 mediasdkvc10

 Timestamp is 5a17997b (Fri Nov 24 12:00:59 2017)

 Preferred load address is 10000000

 Start         Length     Name                   Class
 0001:00000000 00000060H .rodata                 CODE
 0002:00000000 00087612H .text                   CODE
 0002:00087620 00003426H .text$x                 CODE
 0002:0008aa50 000002b9H .text$yc                CODE
 0002:0008ad10 0000024cH .text$yd                CODE
 0003:00000000 00000598H .idata$5                DATA
 0003:00000598 00000004H .CRT$XCA                DATA
 0003:0000059c 00000028H .CRT$XCU                DATA
 0003:000005c4 00000004H .CRT$XCZ                DATA
 0003:000005c8 00000004H .CRT$XIA                DATA
 0003:000005cc 00000004H .CRT$XIAA               DATA
 0003:000005d0 00000004H .CRT$XIC                DATA
 0003:000005d4 00000004H .CRT$XIZ                DATA
 0003:000005e0 0000cb41H .rdata                  DATA
 0003:0000d124 0000006cH .rdata$debug            DATA
 0003:0000d190 00001664H .rdata$r                DATA
 0003:0000e7f4 00000004H .rtc$IAA                DATA
 0003:0000e7f8 0000004cH .rtc$IMZ                DATA
 0003:0000e844 00000004H .rtc$IZZ                DATA
 0003:0000e848 00000004H .rtc$TAA                DATA
 0003:0000e84c 0000004cH .rtc$TMZ                DATA
 0003:0000e898 00000004H .rtc$TZZ                DATA
 0003:0000e8a0 00003294H .xdata$x                DATA
 0003:00011b34 00000000H ATL$__a                 DATA
 0003:00011b34 00000000H ATL$__z                 DATA
 0003:00011b34 000001a4H .idata$2                DATA
 0003:00011cd8 00000014H .idata$3                DATA
 0003:00011cec 00000598H .idata$4                DATA
 0003:00012284 00001eaaH .idata$6                DATA
 0003:00014130 000044f9H .edata                  DATA
 0004:00000000 00002dd0H .data                   DATA
 0004:00002de0 0000ad00H .bss                    DATA

  Address         Publics by Value              Rva+Base       Lib:Object

 0000:00000000       ___safe_se_handler_table   00000000     <absolute>
 0000:00000000       __except_list              00000000     <absolute>
 0000:00000000       ___safe_se_handler_count   00000000     <absolute>
 0000:00009876       __ldused                   00009876     <absolute>
 0000:00009876       __fltused                  00009876     <absolute>
 0000:00000000       ___ImageBase               10000000     <linker-defined>
 0002:00000000       _yv12_to_yuyv_xmm          10002000     colorspace_yuyv_mmx.obj
 0002:00000100       _yv12_to_uyvy_xmm          10002100     colorspace_yuyv_mmx.obj
 0002:00000200       _yv12_to_rgb32_mmx         10002200     yv12_to_rgb32_mmx.obj
 0002:00000580       _bgr_to_yv12_mmx           10002580     colorspace_rgb_mmx.obj
 0002:00000750       _bgra_to_yv12_mmx          10002750     colorspace_rgb_mmx.obj
 0002:00000920       _yv12_to_bgr_mmx           10002920     colorspace_rgb_mmx.obj
 0002:00000c50       _yv12_to_bgra_mmx          10002c50     colorspace_rgb_mmx.obj
 0002:00000f10       ??0CLoopBuf@@QAE@XZ        10002f10 f   cloopbuffer.obj
 0002:00000f90       ??1CLoopBuf@@QAE@XZ        10002f90 f   cloopbuffer.obj
 0002:00000fe0       ?LoopBuf_init@CLoopBuf@@QAEHPAEI@Z 10002fe0 f   cloopbuffer.obj
 0002:00001050       ?LoopBuf_put@CLoopBuf@@QAEIPAEI@Z 10003050 f   cloopbuffer.obj
 0002:000011a0       ?LoopBuf_get@CLoopBuf@@QAEIPAEI@Z 100031a0 f   cloopbuffer.obj
 0002:00001310       ??0CEventWindows@@QAE@XZ   10003310 f   eventwindows.obj
 0002:00001380       ?GetHandle@CEventWindows@@UAEPAXXZ 10003380 f i eventwindows.obj
 0002:000013b0       ??_GCEventWindows@@UAEPAXI@Z 100033b0 f i eventwindows.obj
 0002:000013b0       ??_ECEventWindows@@UAEPAXI@Z 100033b0 f i eventwindows.obj
 0002:00001410       ??1CEventWindows@@UAE@XZ   10003410 f   eventwindows.obj
 0002:00001490       ?Set@CEventWindows@@UAEHXZ 10003490 f   eventwindows.obj
 0002:000014f0       ?Reset@CEventWindows@@UAEHXZ 100034f0 f   eventwindows.obj
 0002:00001550       ?Wait@CEventWindows@@UAE?AW4EnumType@@I@Z 10003550 f   eventwindows.obj
 0002:000015e0       ?StartTimer@CEventWindows@@UAEHHI@Z 100035e0 f   eventwindows.obj
 0002:000016b0       ?StopTimer@CEventWindows@@UAEHXZ 100036b0 f   eventwindows.obj
 0002:00001710       ??0CMediaListCom@@QAE@XZ   10003710 f   listcomponent.obj
 0002:000017c0       ??1CMediaListCom@@QAE@XZ   100037c0 f   listcomponent.obj
 0002:00001850       ?AddDataFront@CMediaListCom@@QAEXPAX@Z 10003850 f   listcomponent.obj
 0002:00001a40       ?AddDataTail@CMediaListCom@@QAEXPAX@Z 10003a40 f   listcomponent.obj
 0002:00001be0       ?DeleteData@CMediaListCom@@QAEXPAX@Z 10003be0 f   listcomponent.obj
 0002:00001d70       ?DeleteAll@CMediaListCom@@QAEXXZ 10003d70 f   listcomponent.obj
 0002:00001de0       ?GetDataByIndex@CMediaListCom@@QAEPAXI@Z 10003de0 f   listcomponent.obj
 0002:00001f80       ??0CApp@@QAE@XZ            10003f80 f i logbase.obj
 0002:000020d0       ??1CApp@@UAE@XZ            100040d0 f i logbase.obj
 0002:00002130       ?GetPriority@CApp@@QAEEXZ  10004130 f i logbase.obj
 0002:00002160       ??0CApp@@QAE@ABU0@@Z       10004160 f i logbase.obj
 0002:00002330       ??4CApp@@QAEAAU0@ABU0@@Z   10004330 f i logbase.obj
 0002:00002530       ??_ECApp@@UAEPAXI@Z        10004530 f i logbase.obj
 0002:000025d0       ?DaemonInstanceEntry@CInstance@@UAEXQAUCMessage@@PAUCApp@@@Z 100045d0 f i logbase.obj
 0002:00002630       ?InstanceDump@CInstance@@UAEXI@Z 10004630 f i logbase.obj
 0002:00002660       ?DaemonInstanceDump@CInstance@@UAEXI@Z 10004660 f i logbase.obj
 0002:00002690       ?InstanceExit@CInstance@@UAEXXZ 10004690 f i logbase.obj
 0002:000026c0       ??0CInstance@@QAE@XZ       100046c0 f i logbase.obj
 0002:00002700       ??0CInstance@@QAE@ABV0@@Z  10004700 f i logbase.obj
 0002:000027f0       ??4CInstance@@QAEAAV0@ABV0@@Z 100047f0 f i logbase.obj
 0002:000028f0       ??0CCodecWrapperLog@@QAE@XZ 100048f0 f   logbase.obj
 0002:00002960       ??1CCodecWrapperLog@@QAE@XZ 10004960 f   logbase.obj
 0002:00002990       ?OpenPtPort@CCodecWrapperLog@@QAEXI@Z 10004990 f   logbase.obj
 0002:00002a90       ?Print@CCodecWrapperLog@@QAAXIPBDII0ZZ 10004a90 f   logbase.obj
 0002:00002c60       ??$vsnprintf_s@$0MI@@@YAHAAY0MI@DIPBDPAD@Z 10004c60 f i logbase.obj
 0002:00002cc0       ?Create@CRecordPakge@@QAEHIPAXH@Z 10004cc0 f   record_pakage.obj
 0002:00002dc0       ??1CRecordPakge@@QAE@XZ    10004dc0 f   record_pakage.obj
 0002:00002e50       ?Destroy@CRecordPakge@@QAEHXZ 10004e50 f   record_pakage.obj
 0002:00002ee0       ?Init@CRecordPakge@@QAEHQAXI@Z 10004ee0 f   record_pakage.obj
 0002:00002ff0       ?Dest@CRecordPakge@@QAEHXZ 10004ff0 f   record_pakage.obj
 0002:00003050       ?WriteData@CRecordPakge@@QAEHQBXI0I@Z 10005050 f   record_pakage.obj
 0002:00003420       ?GetDataBuffer@CRecordPakge@@QAEQAXAAI@Z 10005420 f   record_pakage.obj
 0002:00003560       ?ReturnDataBuffer@CRecordPakge@@QAEHQBXI@Z 10005560 f   record_pakage.obj
 0002:00003780       ?ClearAllData@CRecordPakge@@QAEXXZ 10005780 f   record_pakage.obj
 0002:00003840       ??1CSaveFileCom@@QAE@XZ    10005840 f   savefilecomponent.obj
 0002:00003880       ?Create@CSaveFileCom@@QAEXPBD@Z 10005880 f   savefilecomponent.obj
 0002:000039b0       ?StartSave@CSaveFileCom@@QAEXI@Z 100059b0 f   savefilecomponent.obj
 0002:000039f0       ?SaveToFile@CSaveFileCom@@QAEXPBEIH@Z 100059f0 f   savefilecomponent.obj
 0002:00003c30       ?CloseFile@CSaveFileCom@@QAEXXZ 10005c30 f   savefilecomponent.obj
 0002:00003d30       ?OpenFileSrc@CReadFileCom@@QAEHPAD0I@Z 10005d30 f   savefilecomponent.obj
 0002:00003e60       ?ReadOneFrame@CReadFileCom@@QAEHPAEIAAI@Z 10005e60 f   savefilecomponent.obj
 0002:00003f90       ?CloseFileSrc@CReadFileCom@@QAEHXZ 10005f90 f   savefilecomponent.obj
 0002:00004040       ??0CSemaphoreCom@@QAE@XZ   10006040 f   semcomponent.obj
 0002:00004080       ??1CSemaphoreCom@@QAE@XZ   10006080 f   semcomponent.obj
 0002:000040c0       ?Create@CSemaphoreCom@@QAEXII@Z 100060c0 f   semcomponent.obj
 0002:00004170       ?Destory@CSemaphoreCom@@QAEXXZ 10006170 f   semcomponent.obj
 0002:000041f0       ?Take@CSemaphoreCom@@QAEHI@Z 100061f0 f   semcomponent.obj
 0002:00004280       ?Give@CSemaphoreCom@@QAEXXZ 10006280 f   semcomponent.obj
 0002:000042e0       ??0CAutoLockCom@@QAE@AAVCSemaphoreCom@@I@Z 100062e0 f   semcomponent.obj
 0002:00004370       ??1CAutoLockCom@@QAE@XZ    10006370 f   semcomponent.obj
 0002:000043d0       ?task_createCB@@YGIPAX@Z   100063d0 f   taskcomponent.obj
 0002:00004470       ??0CTaskCreate@@QAE@XZ     10006470 f   taskcomponent.obj
 0002:000044d0       ?RealTaskProcess@CTaskCreate@@UAEXI@Z 100064d0 f i taskcomponent.obj
 0002:00004500       ??_GCTaskCreate@@UAEPAXI@Z 10006500 f i taskcomponent.obj
 0002:00004500       ??_ECTaskCreate@@UAEPAXI@Z 10006500 f i taskcomponent.obj
 0002:00004560       ??1CTaskCreate@@UAE@XZ     10006560 f   taskcomponent.obj
 0002:000045f0       ?CreateTask@CTaskCreate@@QAEIIPAIQAPAD0@Z 100065f0 f   taskcomponent.obj
 0002:00004860       ?DestroyTaskAll@CTaskCreate@@QAEIXZ 10006860 f   taskcomponent.obj
 0002:00004910       ?IsTaskCreate@CTaskCreate@@QAEHI@Z 10006910 f   taskcomponent.obj
 0002:00004970       ?IsTaskRunning@CTaskCreate@@QAEHI@Z 10006970 f   taskcomponent.obj
 0002:000049d0       ?SetTaskRunning@CTaskCreate@@QAEXHI@Z 100069d0 f   taskcomponent.obj
 0002:00004a30       ?TaskDelay@CTaskCreate@@SAXI@Z 10006a30 f   taskcomponent.obj
 0002:00004a80       ?GetTickCount@CTaskCreate@@SAIXZ 10006a80 f   taskcomponent.obj
 0002:00004ad0       ?Sys_CreateThread@@YAPAXP6AXPAX@Z0W4xthreadPriority@@AAUTthreadInfo@@PBD@Z 10006ad0 f   win32common.obj
 0002:00004ba0       ?Sys_DLL_Load@@YAPAUHINSTANCE__@@PBD@Z 10006ba0 f   win32common.obj
 0002:00004c90       ?Sys_DLL_GetProcAddress@@YAPAXPAUHINSTANCE__@@PBD@Z 10006c90 f   win32common.obj
 0002:00004d20       ?Sys_DLL_Unload@@YAXPAUHINSTANCE__@@@Z 10006d20 f   win32common.obj
 0002:00004e10       ?Sys_ClockTicksPerSecond@@YANXZ 10006e10 f   win32common.obj
 0002:00004fb0       ?Sys_IsVistaOrHigher@@YAHXZ 10006fb0 f   win32common.obj
 0002:000051d0       ?Sys_IsWin10@@YAHXZ        100071d0 f   win32common.obj
 0002:00005410       ?PrintComErr@@YAXJ@Z       10007410 f   win32common.obj
 0002:00005550       ??0?$basic_string@DU?$char_traits@D@std@@V?$allocator@D@2@@std@@QAE@XZ 10007550 f i win32common.obj
 0002:000055f0       ??1?$basic_string@DU?$char_traits@D@std@@V?$allocator@D@2@@std@@QAE@XZ 100075f0 f i win32common.obj
 0002:00005680       ??4?$basic_string@DU?$char_traits@D@std@@V?$allocator@D@2@@std@@QAEAAV01@PBD@Z 10007680 f i win32common.obj
 0002:000056d0       ??Y?$basic_string@DU?$char_traits@D@std@@V?$allocator@D@2@@std@@QAEAAV01@PBD@Z 100076d0 f i win32common.obj
 0002:00005720       ?c_str@?$basic_string@DU?$char_traits@D@std@@V?$allocator@D@2@@std@@QBEPBDXZ 10007720 f i win32common.obj
 0002:00005760       ?append@?$basic_string@DU?$char_traits@D@std@@V?$allocator@D@2@@std@@QAEAAV12@PBD@Z 10007760 f i win32common.obj
 0002:000057c0       ?length@?$char_traits@D@std@@SAIPBD@Z 100077c0 f i win32common.obj
 0002:00005800       ?assign@?$basic_string@DU?$char_traits@D@std@@V?$allocator@D@2@@std@@QAEAAV12@PBD@Z 10007800 f i win32common.obj
 0002:00005860       ?_Tidy@?$basic_string@DU?$char_traits@D@std@@V?$allocator@D@2@@std@@QAEX_NI@Z 10007860 f i win32common.obj
 0002:00005900       ?copy@?$char_traits@D@std@@SAPADPADPBDI@Z 10007900 f i win32common.obj
 0002:00005950       ?_Myptr@?$basic_string@DU?$char_traits@D@std@@V?$allocator@D@2@@std@@QBEPBDXZ 10007950 f i win32common.obj
 0002:000059a0       ??0?$_String_val@DV?$allocator@D@std@@@std@@QAE@V?$allocator@D@1@@Z 100079a0 f i win32common.obj
 0002:000059f0       ??1?$_String_val@DV?$allocator@D@std@@@std@@QAE@XZ 100079f0 f i win32common.obj
 0002:00005a20       ??0?$allocator@D@std@@QAE@XZ 10007a20 f i win32common.obj
 0002:00005a50       ??0?$allocator@D@std@@QAE@ABV01@@Z 10007a50 f i win32common.obj
 0002:00005a80       ?append@?$basic_string@DU?$char_traits@D@std@@V?$allocator@D@2@@std@@QAEAAV12@PBDI@Z 10007a80 f i win32common.obj
 0002:00005b60       ?assign@?$basic_string@DU?$char_traits@D@std@@V?$allocator@D@2@@std@@QAEAAV12@PBDI@Z 10007b60 f i win32common.obj
 0002:00005c10       ?_Eos@?$basic_string@DU?$char_traits@D@std@@V?$allocator@D@2@@std@@QAEXI@Z 10007c10 f i win32common.obj
 0002:00005c80       ?assign@?$char_traits@D@std@@SAXAADABD@Z 10007c80 f i win32common.obj
 0002:00005cb0       ?_Myptr@?$basic_string@DU?$char_traits@D@std@@V?$allocator@D@2@@std@@QAEPADXZ 10007cb0 f i win32common.obj
 0002:00005d00       ?deallocate@?$allocator@D@std@@QAEXPADI@Z 10007d00 f i win32common.obj
 0002:00005d50       ?append@?$basic_string@DU?$char_traits@D@std@@V?$allocator@D@2@@std@@QAEAAV12@ABV12@II@Z 10007d50 f i win32common.obj
 0002:00005e30       ?size@?$basic_string@DU?$char_traits@D@std@@V?$allocator@D@2@@std@@QBEIXZ 10007e30 f i win32common.obj
 0002:00005e60       ?_Xran@?$basic_string@DU?$char_traits@D@std@@V?$allocator@D@2@@std@@QBEXXZ 10007e60 f i win32common.obj
 0002:00005eb0       ?assign@?$basic_string@DU?$char_traits@D@std@@V?$allocator@D@2@@std@@QAEAAV12@ABV12@II@Z 10007eb0 f i win32common.obj
 0002:00005f90       ?_Grow@?$basic_string@DU?$char_traits@D@std@@V?$allocator@D@2@@std@@QAE_NI_N@Z 10007f90 f i win32common.obj
 0002:00006060       ?_Inside@?$basic_string@DU?$char_traits@D@std@@V?$allocator@D@2@@std@@QAE_NPBD@Z 10008060 f i win32common.obj
 0002:000060d0       ?_Xlen@?$basic_string@DU?$char_traits@D@std@@V?$allocator@D@2@@std@@QBEXXZ 100080d0 f i win32common.obj
 0002:00006120       ?erase@?$basic_string@DU?$char_traits@D@std@@V?$allocator@D@2@@std@@QAEAAV12@II@Z 10008120 f i win32common.obj
 0002:000061e0       ?move@?$char_traits@D@std@@SAPADPADPBDI@Z 100081e0 f i win32common.obj
 0002:00006230       ?max_size@?$basic_string@DU?$char_traits@D@std@@V?$allocator@D@2@@std@@QBEIXZ 10008230 f i win32common.obj
 0002:000062a0       ?_Copy@?$basic_string@DU?$char_traits@D@std@@V?$allocator@D@2@@std@@QAEXII@Z 100082a0 f i win32common.obj
 0002:00006460       ?allocate@?$allocator@D@std@@QAEPADI@Z 10008460 f i win32common.obj
 0002:000064b0       ?max_size@?$allocator@D@std@@QBEIXZ 100084b0 f i win32common.obj
 0002:00006510       ??$_Allocate@D@std@@YAPADIPAD@Z 10008510 f i win32common.obj
 0002:000065a0       ??0bad_alloc@std@@QAE@PBD@Z 100085a0 f i win32common.obj
 0002:00006600       ??1bad_alloc@std@@UAE@XZ   10008600 f i win32common.obj
 0002:00006660       ??_Ebad_alloc@std@@UAEPAXI@Z 10008660 f i win32common.obj
 0002:00006660       ??_Gbad_alloc@std@@UAEPAXI@Z 10008660 f i win32common.obj
 0002:000066c0       ??0bad_alloc@std@@QAE@ABV01@@Z 100086c0 f i win32common.obj
 0002:00006720       ??0Win32Vars_t@@QAE@XZ     10008720 f i win32common.obj
 0002:00006770       ??1Win32Vars_t@@QAE@XZ     10008770 f i win32common.obj
 0002:000067c0       ?GetSingletonPtr@CKdvAudioAec@@SAPAV1@XZ 100087c0 f   aec.obj
 0002:000067f0       ??0CKdvAudioAec@@QAE@XZ    100087f0 f   aec.obj
 0002:000068a0       ??_GCKdvAudioAec@@UAEPAXI@Z 100088a0 f i aec.obj
 0002:000068a0       ??_ECKdvAudioAec@@UAEPAXI@Z 100088a0 f i aec.obj
 0002:00006900       ??1CKdvAudioAec@@UAE@XZ    10008900 f   aec.obj
 0002:00006990       ?InitAec@CKdvAudioAec@@IAEGXZ 10008990 f   aec.obj
 0002:00006a10       ?DestroyAec@CKdvAudioAec@@QAEGXZ 10008a10 f   aec.obj
 0002:00006c00       ?SavePcm@CKdvAudioAec@@QAEGI@Z 10008c00 f   aec.obj
 0002:00006cc0       ?SetAecParam@CKdvAudioAec@@QAEGIIII@Z 10008cc0 f   aec.obj
 0002:00006e20       ?Process@CKdvAudioAec@@QAEPAEAAUtagAudioPram@@PBEH@Z 10008e20 f   aec.obj
 0002:000071c0       ?Control@CKdvAudioAec@@QAEGW4enAecCtrlID@@ABUtagAecComCtrl@@@Z 100091c0 f   aec.obj
 0002:00007230       ?PrintStatis@CKdvAudioAec@@QAEXXZ 10009230 f   aec.obj
 0002:00007390       ?InitAECInst@@YAXXZ        10009390 f   aec.obj
 0002:00007460       _aecreset                  10009460 f   aec.obj
 0002:00007520       _aecstatis                 10009520 f   aec.obj
 0002:00007560       _aecdelay                  10009560 f   aec.obj
 0002:00007590       _kdvaectest                10009590 f   aec.obj
 0002:00007990       ??0CSaveFileCom@@QAE@XZ    10009990 f i aec.obj
 0002:000079f0       ??0CReadFileCom@@QAE@XZ    100099f0 f i aec.obj
 0002:00007a50       ??1CReadFileCom@@QAE@XZ    10009a50 f i aec.obj
 0002:00007a90       ??0?$Singleton@VCKdvAudioAec@@@@QAE@XZ 10009a90 f i aec.obj
 0002:00007af0       ??1?$Singleton@VCKdvAudioAec@@@@QAE@XZ 10009af0 f i aec.obj
 0002:00007b30       ??0CKdvEncoder@@QAE@ABV0@@Z 10009b30 f i auddecoderwrapper.obj
 0002:00007ba0       ??4CKdvEncoder@@QAEAAV0@ABV0@@Z 10009ba0 f i auddecoderwrapper.obj
 0002:00007c00       ??_ECKdvEncoder@@UAEPAXI@Z 10009c00 f i auddecoderwrapper.obj
 0002:00007ca0       ??0CKdvDecoder@@QAE@ABV0@@Z 10009ca0 f i auddecoderwrapper.obj
 0002:00007d10       ??4CKdvDecoder@@QAEAAV0@ABV0@@Z 10009d10 f i auddecoderwrapper.obj
 0002:00007d70       ??_ECKdvDecoder@@UAEPAXI@Z 10009d70 f i auddecoderwrapper.obj
 0002:00007e10       ??4CAVCapCheck@@QAEAAV0@ABV0@@Z 10009e10 f i auddecoderwrapper.obj
 0002:00007e50       ??0CAudDecWrapper@@QAE@PAUTDecoderRef@@PAUTDecoderStatus@@@Z 10009e50 f   auddecoderwrapper.obj
 0002:00008250       ?OpusRtpSend@CKdvMp3Codec@@UAEXPAEIII@Z 1000a250 f i auddecoderwrapper.obj
 0002:00008280       ??_GCAudDecWrapper@@UAEPAXI@Z 1000a280 f i auddecoderwrapper.obj
 0002:00008280       ??_ECAudDecWrapper@@UAEPAXI@Z 1000a280 f i auddecoderwrapper.obj
 0002:000082e0       ??1CAudDecWrapper@@UAE@XZ  1000a2e0 f   auddecoderwrapper.obj
 0002:00008400       ?AudioDataProc@@YAXPAUtagFrameHdr@@I@Z 1000a400 f   auddecoderwrapper.obj
 0002:00008620       ?InitAudDecWrapper@CAudDecWrapper@@QAEGXZ 1000a620 f   auddecoderwrapper.obj
 0002:00008980       ?DestroyWrap@CAudDecWrapper@@QAEGXZ 1000a980 f   auddecoderwrapper.obj
 0002:00008d70       ?Buffer@CLoopBuf@@QAEPAEXZ 1000ad70 f i auddecoderwrapper.obj
 0002:00008da0       ?ClearAudDecBuf@CAudDecWrapper@@QAEXXZ 1000ada0 f   auddecoderwrapper.obj
 0002:00008e00       ?LoopBuf_reset@CLoopBuf@@QAEXXZ 1000ae00 f i auddecoderwrapper.obj
 0002:00008e80       ?StartDec@CAudDecWrapper@@QAEXH@Z 1000ae80 f   auddecoderwrapper.obj
 0002:00008f40       ?SaveAudio@CAudDecWrapper@@QAEXPBDI@Z 1000af40 f   auddecoderwrapper.obj
 0002:00009130       ?SetData@CAudDecWrapper@@QAEXPAUtagAudDataStream@@@Z 1000b130 f   auddecoderwrapper.obj
 0002:000099e0       ?IsAudioMediaTypeSuported@@YAHE@Z 1000b9e0 f i auddecoderwrapper.obj
 0002:00009a90       ?LoopBuf_len@CLoopBuf@@QAEIXZ 1000ba90 f i auddecoderwrapper.obj
 0002:00009b00       ?StartRcvAudio@CAudDecWrapper@@QAEHXZ 1000bb00 f   auddecoderwrapper.obj
 0002:00009ba0       ?StopRcvAudio@CAudDecWrapper@@QAEHXZ 1000bba0 f   auddecoderwrapper.obj
 0002:00009ce0       ?SetAudioRcvAddress@CAudDecWrapper@@QAEHPBUtagMnetNetParam@@@Z 1000bce0 f   auddecoderwrapper.obj
 0002:00009e90       ?SetNetFeedbackAudioParam@CAudDecWrapper@@QAEHH@Z 1000be90 f   auddecoderwrapper.obj
 0002:00009f30       ?SetAudioVolume@CAudDecWrapper@@QAEXE@Z 1000bf30 f   auddecoderwrapper.obj
 0002:0000a010       ?SetAudioSysVolume@CAudDecWrapper@@QAEHE@Z 1000c010 f   auddecoderwrapper.obj
 0002:0000a0d0       ?GetAudioSysVolume@CAudDecWrapper@@QAEHAAE@Z 1000c0d0 f   auddecoderwrapper.obj
 0002:0000a190       ?SetAudioActivePT@CAudDecWrapper@@QAEHEE@Z 1000c190 f   auddecoderwrapper.obj
 0002:0000a240       ?SetAudioActivePT@CAudDecWrapper@@QAEHUtagMapSet@@@Z 1000c240 f   auddecoderwrapper.obj
 0002:0000a320       ?SetDecryptKey@CAudDecWrapper@@QAEHPADGE@Z 1000c320 f   auddecoderwrapper.obj
 0002:0000a3e0       ?SetReverseG7221c@CAudDecWrapper@@QAEHH@Z 1000c3e0 f   auddecoderwrapper.obj
 0002:0000a480       ?SetAudioRcvId@CAudDecWrapper@@QAEHPBDII@Z 1000c480 f   auddecoderwrapper.obj
 0002:0000a520       ?GetAudioRcvId@CAudDecWrapper@@QAEHPADPAI1@Z 1000c520 f   auddecoderwrapper.obj
 0002:0000a5c0       ?AudioRcvEnableKeepAlive@CAudDecWrapper@@QAEHHPBUtagMnetNetParam@@@Z 1000c5c0 f   auddecoderwrapper.obj
 0002:0000a690       ?SetAudioRtcpStatus@CAudDecWrapper@@QAEHW4RTCPSTATUS@@@Z 1000c690 f   auddecoderwrapper.obj
 0002:0000a730       ?SetAudioCallBack@CAudDecWrapper@@QAEHP6AXEPBEHI@ZI@Z 1000c730 f   auddecoderwrapper.obj
 0002:0000a7b0       ?SetAudioDecPCMCallBack@CAudDecWrapper@@QAEHP6AXPAEHIIII@ZI@Z 1000c7b0 f   auddecoderwrapper.obj
 0002:0000a830       ?SetOutputAudioPowerCB@CAudDecWrapper@@QAEHP6AXEI@ZI@Z 1000c830 f   auddecoderwrapper.obj
 0002:0000a8b0       ?StartPlay@CAudDecWrapper@@QAEXH@Z 1000c8b0 f   auddecoderwrapper.obj
 0002:0000aa10       ?Clear@tagAudioDevNameInfo@@QAEXXZ 1000ca10 f i auddecoderwrapper.obj
 0002:0000aa60       ??0tagAudioDevNameInfo@@QAE@XZ 1000ca60 f i auddecoderwrapper.obj
 0002:0000aaf0       ??1tagAudioDevNameInfo@@QAE@XZ 1000caf0 f i auddecoderwrapper.obj
 0002:0000ab80       ?SetPlyTest@CAudDecWrapper@@QAEHH@Z 1000cb80 f   auddecoderwrapper.obj
 0002:0000ac00       ?ReadFileDataToDecBuffer@CAudDecWrapper@@QAEHPADI@Z 1000cc00 f   auddecoderwrapper.obj
 0002:0000b070       ?wcsrchr@@YAPA_WPA_W_W@Z   1000d070 f i auddecoderwrapper.obj
 0002:0000b0c0       ?PlayPcmData@CAudDecWrapper@@QAEGPAEIIII@Z 1000d0c0 f   auddecoderwrapper.obj
 0002:0000bdf0       ??0AudioFrame@mediawrapper@@QAE@XZ 1000ddf0 f i auddecoderwrapper.obj
 0002:0000beb0       ??_GAudioFrame@mediawrapper@@UAEPAXI@Z 1000deb0 f i auddecoderwrapper.obj
 0002:0000beb0       ??_EAudioFrame@mediawrapper@@UAEPAXI@Z 1000deb0 f i auddecoderwrapper.obj
 0002:0000bf10       ??1AudioFrame@mediawrapper@@UAE@XZ 1000df10 f i auddecoderwrapper.obj
 0002:0000bf50       ?GetAudioVolume@CAudDecWrapper@@QAEXAAE@Z 1000df50 f i auddecoderwrapper.obj
 0002:0000bf90       ?PlayProcFunc@CAudDecWrapper@@SAXIEEIPAEPAX@Z 1000df90 f   auddecoderwrapper.obj
 0002:0000bff0       ?SelectAudioPlyDevice@CAudDecWrapper@@QAEGPB_W0@Z 1000dff0 f   auddecoderwrapper.obj
 0002:0000c410       ??4tagAudioDevNameInfo@@QAEAAU0@ABU0@@Z 1000e410 f i auddecoderwrapper.obj
 0002:0000c470       ?GetCurAudPlyDev@CAudDecWrapper@@QAEGAAUTDevNameInfo@@@Z 1000e470 f   auddecoderwrapper.obj
 0002:0000c510       ?RefeshPlayDevices@CAudDecWrapper@@QAEXAAV?$vector@UtagAudioDevNameInfo@@V?$allocator@UtagAudioDevNameInfo@@@std@@@std@@AAI@Z 1000e510 f   auddecoderwrapper.obj
 0002:0000c570       ?GetAudDecoderStatis@CAudDecWrapper@@QAEGAAUKdvDecStatis@@@Z 1000e570 f   auddecoderwrapper.obj
 0002:0000c930       ?PrintStatis@CAudDecWrapper@@QAEXXZ 1000e930 f   auddecoderwrapper.obj
 0002:0000ce30       ?SetAudDecSpeLevel@CAudDecWrapper@@QAEGHI@Z 1000ee30 f   auddecoderwrapper.obj
 0002:0000cf30       ?GetAudDecSpeLevel@CAudDecWrapper@@QAEGAAI@Z 1000ef30 f   auddecoderwrapper.obj
 0002:0000cfa0       ?SetAudReduceToRadio@CAudDecWrapper@@QAEGI@Z 1000efa0 f   auddecoderwrapper.obj
 0002:0000d020       ?GetAudReduceToRadio@CAudDecWrapper@@QAEGAAI@Z 1000f020 f   auddecoderwrapper.obj
 0002:0000d080       ?SetAudFecEnable@CAudDecWrapper@@QAEHH@Z 1000f080 f   auddecoderwrapper.obj
 0002:0000d110       ?SetAudEnableCrypt@CAudDecWrapper@@QAEHHPATTMnetCryptCfg@@@Z 1000f110 f   auddecoderwrapper.obj
 0002:0000d1a0       ?SetAudMnetCryptCfgInit@CAudDecWrapper@@QAEHPATTMnetCryptCfg@@H@Z 1000f1a0 f   auddecoderwrapper.obj
 0002:0000d200       ?SetAudMnetCryptCfgSetCipherAlgorithm@CAudDecWrapper@@QAEHPATTMnetCryptCfg@@W4TMnetCryptDataType@@W4TMnetCryptAlgoType@@@Z 1000f200 f   auddecoderwrapper.obj
 0002:0000d260       ?SetAudMnetCryptCfgSetAuthAlgorithm@CAudDecWrapper@@QAEHPATTMnetCryptCfg@@W4TMnetCryptDataType@@W4TMnetCryptAlgoType@@@Z 1000f260 f   auddecoderwrapper.obj
 0002:0000d2c0       ?SetAudMnetCryptCfgSetMasterKey@CAudDecWrapper@@QAEHPATTMnetCryptCfg@@W4TMnetCryptDataType@@W4TMnetCryptKeyType@@GPAEW4TMnetCrypKeyLen@@4@Z 1000f2c0 f   auddecoderwrapper.obj
 0002:0000d330       ?SetAudMnetCryptCfgSetCipherKey@CAudDecWrapper@@QAEHPATTMnetCryptCfg@@W4TMnetCryptDataType@@GPAE@Z 1000f330 f   auddecoderwrapper.obj
 0002:0000d390       ?SetAudMnetCryptCfgSetAuthKey@CAudDecWrapper@@QAEHPATTMnetCryptCfg@@W4TMnetCryptDataType@@GPAE@Z 1000f390 f   auddecoderwrapper.obj
 0002:0000d3f0       ?SetAudMnetCryptCfgSetPkt@CAudDecWrapper@@QAEHPATTMnetCryptCfg@@W4TMnetCryptDataType@@W4TMnetCryptPktType@@@Z 1000f3f0 f   auddecoderwrapper.obj
 0002:0000d450       ?SetAudMnetCryptCfgSetAuthTag@CAudDecWrapper@@QAEHPATTMnetCryptCfg@@W4TMnetCryptDataType@@W4TMnetCryptTagLen@@@Z 1000f450 f   auddecoderwrapper.obj
 0002:0000d4b0       ??0?$basic_string@DU?$char_traits@D@std@@V?$allocator@D@2@@std@@QAE@PBD@Z 1000f4b0 f i auddecoderwrapper.obj
 0002:0000d560       ??0?$basic_string@_WU?$char_traits@_W@std@@V?$allocator@_W@2@@std@@QAE@XZ 1000f560 f i auddecoderwrapper.obj
 0002:0000d600       ??1?$basic_string@_WU?$char_traits@_W@std@@V?$allocator@_W@2@@std@@QAE@XZ 1000f600 f i auddecoderwrapper.obj
 0002:0000d690       ??4?$basic_string@_WU?$char_traits@_W@std@@V?$allocator@_W@2@@std@@QAEAAV01@ABV01@@Z 1000f690 f i auddecoderwrapper.obj
 0002:0000d6e0       ??4?$basic_string@_WU?$char_traits@_W@std@@V?$allocator@_W@2@@std@@QAEAAV01@PB_W@Z 1000f6e0 f i auddecoderwrapper.obj
 0002:0000d730       ?clear@?$basic_string@_WU?$char_traits@_W@std@@V?$allocator@_W@2@@std@@QAEXXZ 1000f730 f i auddecoderwrapper.obj
 0002:0000d780       ?c_str@?$basic_string@_WU?$char_traits@_W@std@@V?$allocator@_W@2@@std@@QBEPB_WXZ 1000f780 f i auddecoderwrapper.obj
 0002:0000d7c0       ?length@?$basic_string@_WU?$char_traits@_W@std@@V?$allocator@_W@2@@std@@QBEIXZ 1000f7c0 f i auddecoderwrapper.obj
 0002:0000d7f0       ?compare@?$basic_string@_WU?$char_traits@_W@std@@V?$allocator@_W@2@@std@@QBEHPB_W@Z 1000f7f0 f i auddecoderwrapper.obj
 0002:0000d850       ?length@?$char_traits@_W@std@@SAIPB_W@Z 1000f850 f i auddecoderwrapper.obj
 0002:0000d8a0       ??0?$vector@UtagAudioDevNameInfo@@V?$allocator@UtagAudioDevNameInfo@@@std@@@std@@QAE@XZ 1000f8a0 f i auddecoderwrapper.obj
 0002:0000d8f0       ??1?$vector@UtagAudioDevNameInfo@@V?$allocator@UtagAudioDevNameInfo@@@std@@@std@@QAE@XZ 1000f8f0 f i auddecoderwrapper.obj
 0002:0000d970       ??A?$vector@UtagAudioDevNameInfo@@V?$allocator@UtagAudioDevNameInfo@@@std@@@std@@QAEAAUtagAudioDevNameInfo@@I@Z 1000f970 f i auddecoderwrapper.obj
 0002:0000d9b0       ?assign@?$basic_string@_WU?$char_traits@_W@std@@V?$allocator@_W@2@@std@@QAEAAV12@ABV12@@Z 1000f9b0 f i auddecoderwrapper.obj
 0002:0000da00       ?assign@?$basic_string@_WU?$char_traits@_W@std@@V?$allocator@_W@2@@std@@QAEAAV12@ABV12@II@Z 1000fa00 f i auddecoderwrapper.obj
 0002:0000dae0       ?copy@?$char_traits@_W@std@@SAPA_WPA_WPB_WI@Z 1000fae0 f i auddecoderwrapper.obj
 0002:0000db30       _wmemcpy                   1000fb30 f i auddecoderwrapper.obj
 0002:0000db80       ?size@?$basic_string@_WU?$char_traits@_W@std@@V?$allocator@_W@2@@std@@QBEIXZ 1000fb80 f i auddecoderwrapper.obj
 0002:0000dbb0       ?assign@?$basic_string@_WU?$char_traits@_W@std@@V?$allocator@_W@2@@std@@QAEAAV12@PB_W@Z 1000fbb0 f i auddecoderwrapper.obj
 0002:0000dc10       ?compare@?$basic_string@_WU?$char_traits@_W@std@@V?$allocator@_W@2@@std@@QBEHIIPB_WI@Z 1000fc10 f i auddecoderwrapper.obj
 0002:0000dd00       ?compare@?$char_traits@_W@std@@SAHPB_W0I@Z 1000fd00 f i auddecoderwrapper.obj
 0002:0000dd50       _wmemcmp                   1000fd50 f i auddecoderwrapper.obj
 0002:0000ddd0       ?_Eos@?$basic_string@_WU?$char_traits@_W@std@@V?$allocator@_W@2@@std@@QAEXI@Z 1000fdd0 f i auddecoderwrapper.obj
 0002:0000de40       ?assign@?$char_traits@_W@std@@SAXAA_WAB_W@Z 1000fe40 f i auddecoderwrapper.obj
 0002:0000de80       ?_Tidy@?$basic_string@_WU?$char_traits@_W@std@@V?$allocator@_W@2@@std@@QAEX_NI@Z 1000fe80 f i auddecoderwrapper.obj
 0002:0000df20       ?_Myptr@?$basic_string@_WU?$char_traits@_W@std@@V?$allocator@_W@2@@std@@QBEPB_WXZ 1000ff20 f i auddecoderwrapper.obj
 0002:0000df70       ??0?$_String_val@_WV?$allocator@_W@std@@@std@@QAE@V?$allocator@_W@1@@Z 1000ff70 f i auddecoderwrapper.obj
 0002:0000dfc0       ??1?$_String_val@_WV?$allocator@_W@std@@@std@@QAE@XZ 1000ffc0 f i auddecoderwrapper.obj
 0002:0000dff0       ??0?$allocator@_W@std@@QAE@XZ 1000fff0 f i auddecoderwrapper.obj
 0002:0000e020       ??0?$allocator@_W@std@@QAE@ABV01@@Z 10010020 f i auddecoderwrapper.obj
 0002:0000e050       ?_Tidy@?$vector@UtagAudioDevNameInfo@@V?$allocator@UtagAudioDevNameInfo@@@std@@@std@@IAEXXZ 10010050 f i auddecoderwrapper.obj
 0002:0000e100       ??0?$_Vector_val@UtagAudioDevNameInfo@@V?$allocator@UtagAudioDevNameInfo@@@std@@@std@@QAE@V?$allocator@UtagAudioDevNameInfo@@@1@@Z 10010100 f i auddecoderwrapper.obj
 0002:0000e170       ??1?$_Vector_val@UtagAudioDevNameInfo@@V?$allocator@UtagAudioDevNameInfo@@@std@@@std@@QAE@XZ 10010170 f i auddecoderwrapper.obj
 0002:0000e1a0       ??0?$allocator@UtagAudioDevNameInfo@@@std@@QAE@XZ 100101a0 f i auddecoderwrapper.obj
 0002:0000e1d0       ?assign@?$basic_string@_WU?$char_traits@_W@std@@V?$allocator@_W@2@@std@@QAEAAV12@PB_WI@Z 100101d0 f i auddecoderwrapper.obj
 0002:0000e280       ?erase@?$basic_string@_WU?$char_traits@_W@std@@V?$allocator@_W@2@@std@@QAEAAV12@II@Z 10010280 f i auddecoderwrapper.obj
 0002:0000e340       ?move@?$char_traits@_W@std@@SAPA_WPA_WPB_WI@Z 10010340 f i auddecoderwrapper.obj
 0002:0000e390       _wmemmove                  10010390 f i auddecoderwrapper.obj
 0002:0000e3f0       ?_Grow@?$basic_string@_WU?$char_traits@_W@std@@V?$allocator@_W@2@@std@@QAE_NI_N@Z 100103f0 f i auddecoderwrapper.obj
 0002:0000e4c0       ?_Myptr@?$basic_string@_WU?$char_traits@_W@std@@V?$allocator@_W@2@@std@@QAEPA_WXZ 100104c0 f i auddecoderwrapper.obj
 0002:0000e510       ?_Xran@?$basic_string@_WU?$char_traits@_W@std@@V?$allocator@_W@2@@std@@QBEXXZ 10010510 f i auddecoderwrapper.obj
 0002:0000e560       ?deallocate@?$allocator@_W@std@@QAEXPA_WI@Z 10010560 f i auddecoderwrapper.obj
 0002:0000e5b0       ?_Destroy@?$vector@UtagAudioDevNameInfo@@V?$allocator@UtagAudioDevNameInfo@@@std@@@std@@IAEXPAUtagAudioDevNameInfo@@0@Z 100105b0 f i auddecoderwrapper.obj
 0002:0000e600       ??0?$allocator@UtagAudioDevNameInfo@@@std@@QAE@ABV01@@Z 10010600 f i auddecoderwrapper.obj
 0002:0000e630       ?deallocate@?$allocator@UtagAudioDevNameInfo@@@std@@QAEXPAUtagAudioDevNameInfo@@I@Z 10010630 f i auddecoderwrapper.obj
 0002:0000e680       ?max_size@?$basic_string@_WU?$char_traits@_W@std@@V?$allocator@_W@2@@std@@QBEIXZ 10010680 f i auddecoderwrapper.obj
 0002:0000e6f0       ?_Copy@?$basic_string@_WU?$char_traits@_W@std@@V?$allocator@_W@2@@std@@QAEXII@Z 100106f0 f i auddecoderwrapper.obj
 0002:0000e8b0       ?_Inside@?$basic_string@_WU?$char_traits@_W@std@@V?$allocator@_W@2@@std@@QAE_NPB_W@Z 100108b0 f i auddecoderwrapper.obj
 0002:0000e920       ?_Xlen@?$basic_string@_WU?$char_traits@_W@std@@V?$allocator@_W@2@@std@@QBEXXZ 10010920 f i auddecoderwrapper.obj
 0002:0000e970       ?allocate@?$allocator@_W@std@@QAEPA_WI@Z 10010970 f i auddecoderwrapper.obj
 0002:0000e9c0       ?max_size@?$allocator@_W@std@@QBEIXZ 100109c0 f i auddecoderwrapper.obj
 0002:0000ea20       ??$_Destroy_range@V?$allocator@UtagAudioDevNameInfo@@@std@@@std@@YAXPAUtagAudioDevNameInfo@@0AAV?$allocator@UtagAudioDevNameInfo@@@0@@Z 10010a20 f i auddecoderwrapper.obj
 0002:0000ea90       ??$_Allocate@_W@std@@YAPA_WIPA_W@Z 10010a90 f i auddecoderwrapper.obj
 0002:0000eb20       ??$_Ptr_cat@UtagAudioDevNameInfo@@U1@@std@@YA?AU_Nonscalar_ptr_iterator_tag@0@PAUtagAudioDevNameInfo@@0@Z 10010b20 f i auddecoderwrapper.obj
 0002:0000eb80       ??$_Destroy_range@V?$allocator@UtagAudioDevNameInfo@@@std@@@std@@YAXPAUtagAudioDevNameInfo@@0AAV?$allocator@UtagAudioDevNameInfo@@@0@U_Nonscalar_ptr_iterator_tag@0@@Z 10010b80 f i auddecoderwrapper.obj
 0002:0000ebe0       ??$_Dest_val@V?$allocator@UtagAudioDevNameInfo@@@std@@UtagAudioDevNameInfo@@@std@@YAXAAV?$allocator@UtagAudioDevNameInfo@@@0@PAUtagAudioDevNameInfo@@@Z 10010be0 f i auddecoderwrapper.obj
 0002:0000ec20       ?destroy@?$allocator@UtagAudioDevNameInfo@@@std@@QAEXPAUtagAudioDevNameInfo@@@Z 10010c20 f i auddecoderwrapper.obj
 0002:0000ec70       ??$_Destroy@UtagAudioDevNameInfo@@@std@@YAXPAUtagAudioDevNameInfo@@@Z 10010c70 f i auddecoderwrapper.obj
 0002:0000ecb0       ??_GtagAudioDevNameInfo@@QAEPAXI@Z 10010cb0 f i auddecoderwrapper.obj
 0002:0000ed10       ??0CAudEncWrapper@@QAE@PAUTEncoderRef@@PAUTEncoderStatus@@@Z 10010d10 f   audencoderwrapper.obj
 0002:0000f070       ??_ECAudEncWrapper@@UAEPAXI@Z 10011070 f i audencoderwrapper.obj
 0002:0000f070       ??_GCAudEncWrapper@@UAEPAXI@Z 10011070 f i audencoderwrapper.obj
 0002:0000f0d0       ??1CAudEncWrapper@@UAE@XZ  100110d0 f   audencoderwrapper.obj
 0002:0000f1f0       ?InitAudEncWrapper@CAudEncWrapper@@QAEGXZ 100111f0 f   audencoderwrapper.obj
 0002:0000f310       ?DestroyWrap@CAudEncWrapper@@QAEGXZ 10011310 f   audencoderwrapper.obj
 0002:0000f5c0       ?StartEnc@CAudEncWrapper@@QAEXH@Z 100115c0 f   audencoderwrapper.obj
 0002:0000f6d0       ?StartCap@CAudEncWrapper@@QAEXH@Z 100116d0 f   audencoderwrapper.obj
 0002:0000f840       ?SetCapTest@CAudEncWrapper@@QAEHH@Z 10011840 f   audencoderwrapper.obj
 0002:0000f8e0       ?SetInputAudioPowerCB@CAudEncWrapper@@QAEHP6AXEI@ZI@Z 100118e0 f   audencoderwrapper.obj
 0002:0000f960       ?SetNetFeedbackAudioParam@CAudEncWrapper@@QAEHH@Z 10011960 f   audencoderwrapper.obj
 0002:0000fa20       ?SetAudioSndBand@CAudEncWrapper@@QAEHI@Z 10011a20 f   audencoderwrapper.obj
 0002:0000faf0       ?SetNetSndAudioParam@CAudEncWrapper@@QAEHPBUtagMnetNetParam@@@Z 10011af0 f   audencoderwrapper.obj
 0002:0000ff00       ?SetAudioActivePT@CAudEncWrapper@@QAEHEE@Z 10011f00 f   audencoderwrapper.obj
 0002:0000ffb0       ?SetAudEncryptKey@CAudEncWrapper@@QAEHPADGE@Z 10011fb0 f   audencoderwrapper.obj
 0002:00010070       ?SetAudioSendId@CAudEncWrapper@@QAEHPBDII@Z 10012070 f   audencoderwrapper.obj
 0002:00010120       ?GetAudioSendId@CAudEncWrapper@@QAEHPADPAI1@Z 10012120 f   audencoderwrapper.obj
 0002:000101d0       ?AudioSendEnableKeepAlive@CAudEncWrapper@@QAEHHPBUtagMnetNetParam@@@Z 100121d0 f   audencoderwrapper.obj
 0002:00010290       ?AudioEnableRtpExStrip@CAudEncWrapper@@QAEHH@Z 10012290 f   audencoderwrapper.obj
 0002:00010340       ?SetAudioRtcpStatus@CAudEncWrapper@@QAEHW4RTCPSTATUS@@@Z 10012340 f   audencoderwrapper.obj
 0002:000103f0       ?SetAudFecEnable@CAudEncWrapper@@QAEHH@Z 100123f0 f   audencoderwrapper.obj
 0002:000104a0       ?SetAudFecPackLen@CAudEncWrapper@@QAEHG@Z 100124a0 f   audencoderwrapper.obj
 0002:000104e0       ?SetAudFecIntraFrame@CAudEncWrapper@@QAEHH@Z 100124e0 f   audencoderwrapper.obj
 0002:00010520       ?SetAudFecMode@CAudEncWrapper@@QAEHE@Z 10012520 f   audencoderwrapper.obj
 0002:00010560       ?SetAudFecXY@CAudEncWrapper@@QAEHHH@Z 10012560 f   audencoderwrapper.obj
 0002:000105a0       ?StartSendAudio@CAudEncWrapper@@QAEHI@Z 100125a0 f   audencoderwrapper.obj
 0002:00010680       ?StopSendAudio@CAudEncWrapper@@QAEHXZ 10012680 f   audencoderwrapper.obj
 0002:00010710       ?SetReverseG7221c@CAudEncWrapper@@QAEHH@Z 10012710 f   audencoderwrapper.obj
 0002:000107c0       ?SetNetAudioResend@CAudEncWrapper@@QAEHH@Z 100127c0 f   audencoderwrapper.obj
 0002:00010880       ?CapProcFunc@CAudEncWrapper@@SAXPBEIEEIIHPAX@Z 10012880 f   audencoderwrapper.obj
 0002:000109d0       ?SetAudioVolume@CAudEncWrapper@@QAEXE@Z 100129d0 f   audencoderwrapper.obj
 0002:00010ab0       ?SetAudioSysVolume@CAudEncWrapper@@QAEHE@Z 10012ab0 f   audencoderwrapper.obj
 0002:00010b70       ?GetAudioSysVolume@CAudEncWrapper@@QAEHAAE@Z 10012b70 f   audencoderwrapper.obj
 0002:00010c30       ?SetAudioMode@CAudEncWrapper@@QAEHEG@Z 10012c30 f   audencoderwrapper.obj
 0002:00011260       ?SelectAudioSource@CAudEncWrapper@@QAEGPB_W0@Z 10013260 f   audencoderwrapper.obj
 0002:00011700       ?wcsstr@@YAPA_WPA_WPB_W@Z  10013700 f i audencoderwrapper.obj
 0002:00011750       ?GetCurAudCapDev@CAudEncWrapper@@QAEGAAUTDevNameInfo@@@Z 10013750 f   audencoderwrapper.obj
 0002:000117f0       ?EncAudioFrame@CAudEncWrapper@@QAEGPBEI@Z 100137f0 f   audencoderwrapper.obj
 0002:00011ea0       ?SetAudioCallBack@CAudEncWrapper@@QAEHP6AXEPBEHI@ZI@Z 10013ea0 f   audencoderwrapper.obj
 0002:00011f20       ?RefreshCapDevices@CAudEncWrapper@@QAEXAAV?$vector@UtagAudioDevNameInfo@@V?$allocator@UtagAudioDevNameInfo@@@std@@@std@@AAI@Z 10013f20 f   audencoderwrapper.obj
 0002:00011f70       ?OpusRtpSend@CAudEncWrapper@@UAEXPAEIII@Z 10013f70 f   audencoderwrapper.obj
 0002:00012150       ?PrintStatis@CAudEncWrapper@@QAEXXZ 10014150 f   audencoderwrapper.obj
 0002:00012400       ?GetAudioMode@CAudEncWrapper@@QAEHAAEAAG@Z 10014400 f   audencoderwrapper.obj
 0002:00012450       ?SaveAudio@CAudEncWrapper@@QAEXPBDI@Z 10014450 f   audencoderwrapper.obj
 0002:00012640       ?BufferPcmForEnc@CAudEncWrapper@@QAEGPBEIIII@Z 10014640 f   audencoderwrapper.obj
 0002:00012cb0       ?GetAudioVolume@CAudEncWrapper@@QAEXAAE@Z 10014cb0 f i audencoderwrapper.obj
 0002:00012cf0       ?SetAudEnableCrypt@CAudEncWrapper@@QAEHHPATTMnetCryptCfg@@@Z 10014cf0 f   audencoderwrapper.obj
 0002:00012d80       ?SetAudMnetCryptCfgInit@CAudEncWrapper@@QAEHPATTMnetCryptCfg@@H@Z 10014d80 f   audencoderwrapper.obj
 0002:00012de0       ?SetAudMnetCryptCfgSetCipherAlgorithm@CAudEncWrapper@@QAEHPATTMnetCryptCfg@@W4TMnetCryptDataType@@W4TMnetCryptAlgoType@@@Z 10014de0 f   audencoderwrapper.obj
 0002:00012e40       ?SetAudMnetCryptCfgSetAuthAlgorithm@CAudEncWrapper@@QAEHPATTMnetCryptCfg@@W4TMnetCryptDataType@@W4TMnetCryptAlgoType@@@Z 10014e40 f   audencoderwrapper.obj
 0002:00012ea0       ?SetAudMnetCryptCfgSetMasterKey@CAudEncWrapper@@QAEHPATTMnetCryptCfg@@W4TMnetCryptDataType@@W4TMnetCryptKeyType@@GPAEW4TMnetCrypKeyLen@@4@Z 10014ea0 f   audencoderwrapper.obj
 0002:00012f10       ?SetAudMnetCryptCfgSetCipherKey@CAudEncWrapper@@QAEHPATTMnetCryptCfg@@W4TMnetCryptDataType@@GPAE@Z 10014f10 f   audencoderwrapper.obj
 0002:00012f70       ?SetAudMnetCryptCfgSetAuthKey@CAudEncWrapper@@QAEHPATTMnetCryptCfg@@W4TMnetCryptDataType@@GPAE@Z 10014f70 f   audencoderwrapper.obj
 0002:00012fd0       ?SetAudMnetCryptCfgSetPkt@CAudEncWrapper@@QAEHPATTMnetCryptCfg@@W4TMnetCryptDataType@@W4TMnetCryptPktType@@@Z 10014fd0 f   audencoderwrapper.obj
 0002:00013030       ?SetAudMnetCryptCfgSetAuthTag@CAudEncWrapper@@QAEHPATTMnetCryptCfg@@W4TMnetCryptDataType@@W4TMnetCryptTagLen@@@Z 10015030 f   audencoderwrapper.obj
 0002:00013090       ??0CAudioCapDmo@@QAE@XZ    10015090 f   audiocapdmo.obj
 0002:00013240       ??0CAudioCapCom@@QAE@XZ    10015240 f i audiocapdmo.obj
 0002:000132e0       ??1CAudioCapCom@@UAE@XZ    100152e0 f i audiocapdmo.obj
 0002:00013320       ??_ECAudioCapCom@@UAEPAXI@Z 10015320 f i audiocapdmo.obj
 0002:00013320       ??_GCAudioCapCom@@UAEPAXI@Z 10015320 f i audiocapdmo.obj
 0002:00013380       ??_ECAudioCapDmo@@UAEPAXI@Z 10015380 f i audiocapdmo.obj
 0002:00013380       ??_GCAudioCapDmo@@UAEPAXI@Z 10015380 f i audiocapdmo.obj
 0002:000133e0       ??1CAudioCapDmo@@UAE@XZ    100153e0 f   audiocapdmo.obj
 0002:00013570       ?InitCapThread@CAudioCapDmo@@IAEHXZ 10015570 f   audiocapdmo.obj
 0002:000136b0       ?SetDMOProperties@CAudioCapDmo@@IAEHIIH@Z 100156b0 f   audiocapdmo.obj
 0002:00013ca0       _PropVariantInit           10015ca0 f i audiocapdmo.obj
 0002:00013cf0       ?SetCaptureParam@CAudioCapDmo@@UAEHABUtagAudioCapParam@@H@Z 10015cf0 f   audiocapdmo.obj
 0002:00014100       ?IsCapturing@CAudioCapCom@@QAEHXZ 10016100 f i audiocapdmo.obj
 0002:00014130       ??0MediaBufferImpl@@QAE@K@Z 10016130 f i audiocapdmo.obj
 0002:000141c0       ?GetBufferAndLength@MediaBufferImpl@@UAGJPAPAEPAK@Z 100161c0 f i audiocapdmo.obj
 0002:00014220       ?GetMaxLength@MediaBufferImpl@@UAGJPAK@Z 10016220 f i audiocapdmo.obj
 0002:00014270       ?SetLength@MediaBufferImpl@@UAGJK@Z 10016270 f i audiocapdmo.obj
 0002:000142c0       ?AddRef@MediaBufferImpl@@UAGKXZ 100162c0 f i audiocapdmo.obj
 0002:00014310       ?QueryInterface@MediaBufferImpl@@UAGJABU_GUID@@PAPAX@Z 10016310 f i audiocapdmo.obj
 0002:000143b0       _!=                        100163b0 f i audiocapdmo.obj
 0002:00014400       _==                        10016400 f i audiocapdmo.obj
 0002:00014450       _IsEqualGUID               10016450 f i audiocapdmo.obj
 0002:000144a0       ?Release@MediaBufferImpl@@UAGKXZ 100164a0 f i audiocapdmo.obj
 0002:00014540       ??0IMediaBuffer@@QAE@XZ    10016540 f i audiocapdmo.obj
 0002:00014590       ??_GMediaBufferImpl@@AAEPAXI@Z 10016590 f i audiocapdmo.obj
 0002:000145f0       ??1MediaBufferImpl@@AAE@XZ 100165f0 f i audiocapdmo.obj
 0002:00014650       ??0IUnknown@@QAE@XZ        10016650 f i audiocapdmo.obj
 0002:00014680       ?GetNumCapDevices@CAudioCapDmo@@UAEIXZ 10016680 f   audiocapdmo.obj
 0002:000146d0       ?GetNameCapDevices@CAudioCapDmo@@UAEIGQA_W0@Z 100166d0 f   audiocapdmo.obj
 0002:00014860       ?StartCapture@CAudioCapDmo@@UAEHH@Z 10016860 f   audiocapdmo.obj
 0002:00014990       ?SetPlayDriverInst@CAudioCapDmo@@UAEXPAX@Z 10016990 f   audiocapdmo.obj
 0002:000149c0       ?RealTaskProcess@CAudioCapDmo@@UAEXI@Z 100169c0 f   audiocapdmo.obj
 0002:00014d60       ?CreateDmoInputDevice@@YAPAVCAudioCapCom@@XZ 10016d60 f   audiocapdmo.obj
 0002:00014e20       ??0?$CAutoComInterfacePtr@UIMediaObject@@@@QAE@PAUIMediaObject@@@Z 10016e20 f i audiocapdmo.obj
 0002:00014e60       ??1?$CAutoComInterfacePtr@UIMediaObject@@@@QAE@XZ 10016e60 f i audiocapdmo.obj
 0002:00014ed0       ??4?$CAutoComInterfacePtr@UIMediaObject@@@@QAEPAUIMediaObject@@PAU1@@Z 10016ed0 f i audiocapdmo.obj
 0002:00014f60       ??B?$CAutoComInterfacePtr@UIMediaObject@@@@QBEPAUIMediaObject@@XZ 10016f60 f i audiocapdmo.obj
 0002:00014f90       ??I?$CAutoComInterfacePtr@UIMediaObject@@@@QAEPAPAUIMediaObject@@XZ 10016f90 f i audiocapdmo.obj
 0002:00014fc0       ??C?$CAutoComInterfacePtr@UIMediaObject@@@@QBEPAUIMediaObject@@XZ 10016fc0 f i audiocapdmo.obj
 0002:00014ff0       ??0?$CAutoComInterfacePtr@UIMediaBuffer@@@@QAE@PAUIMediaBuffer@@@Z 10016ff0 f i audiocapdmo.obj
 0002:00015030       ??1?$CAutoComInterfacePtr@UIMediaBuffer@@@@QAE@XZ 10017030 f i audiocapdmo.obj
 0002:000150a0       ??4?$CAutoComInterfacePtr@UIMediaBuffer@@@@QAEPAUIMediaBuffer@@PAU1@@Z 100170a0 f i audiocapdmo.obj
 0002:00015130       ??B?$CAutoComInterfacePtr@UIMediaBuffer@@@@QBEPAUIMediaBuffer@@XZ 10017130 f i audiocapdmo.obj
 0002:00015160       ??C?$CAutoComInterfacePtr@UIMediaBuffer@@@@QBEPAUIMediaBuffer@@XZ 10017160 f i audiocapdmo.obj
 0002:00015190       ??0?$CAutoComInterfacePtr@UIPropertyStore@@@@QAE@PAUIPropertyStore@@@Z 10017190 f i audiocapdmo.obj
 0002:000151d0       ??1?$CAutoComInterfacePtr@UIPropertyStore@@@@QAE@XZ 100171d0 f i audiocapdmo.obj
 0002:00015240       ??4?$CAutoComInterfacePtr@UIPropertyStore@@@@QAEPAUIPropertyStore@@PAU1@@Z 10017240 f i audiocapdmo.obj
 0002:000152d0       ??C?$CAutoComInterfacePtr@UIPropertyStore@@@@QBEPAUIPropertyStore@@XZ 100172d0 f i audiocapdmo.obj
 0002:00015300       ??0?$CAutoComInterfacePtr@UIMMDeviceCollection@@@@QAE@PAUIMMDeviceCollection@@@Z 10017300 f i audiocapdmo.obj
 0002:00015340       ??1?$CAutoComInterfacePtr@UIMMDeviceCollection@@@@QAE@XZ 10017340 f i audiocapdmo.obj
 0002:000153b0       ??B?$CAutoComInterfacePtr@UIMMDeviceCollection@@@@QBEPAUIMMDeviceCollection@@XZ 100173b0 f i audiocapdmo.obj
 0002:000153e0       ??I?$CAutoComInterfacePtr@UIMMDeviceCollection@@@@QAEPAPAUIMMDeviceCollection@@XZ 100173e0 f i audiocapdmo.obj
 0002:00015410       ??_ECAudioCapDmo@@WCE@AEPAXI@Z 10017410 f i audiocapdmo.obj
 0002:00015420       ??0CAudioCapWasapi@@QAE@XZ 10017420 f   audiocapwasapi.obj
 0002:000155a0       ??_ECAudioCapWasapi@@UAEPAXI@Z 100175a0 f i audiocapwasapi.obj
 0002:000155a0       ??_GCAudioCapWasapi@@UAEPAXI@Z 100175a0 f i audiocapwasapi.obj
 0002:00015600       ??1CAudioCapWasapi@@UAE@XZ 10017600 f   audiocapwasapi.obj
 0002:000158b0       ?SetCaptureParam@CAudioCapWasapi@@UAEHABUtagAudioCapParam@@H@Z 100178b0 f   audiocapwasapi.obj
 0002:00015bd0       ?GetNumCapDevices@CAudioCapWasapi@@UAEIXZ 10017bd0 f   audiocapwasapi.obj
 0002:00015c20       ?GetNameCapDevices@CAudioCapWasapi@@UAEIGQA_W0@Z 10017c20 f   audiocapwasapi.obj
 0002:00015db0       ?StartCapture@CAudioCapWasapi@@UAEHH@Z 10017db0 f   audiocapwasapi.obj
 0002:00015ff0       ?SetPlayDriverInst@CAudioCapWasapi@@UAEXPAX@Z 10017ff0 f   audiocapwasapi.obj
 0002:00016020       ?InitCapThread@CAudioCapWasapi@@IAEHXZ 10018020 f   audiocapwasapi.obj
 0002:00016130       ?RealTaskProcess@CAudioCapWasapi@@UAEXI@Z 10018130 f   audiocapwasapi.obj
 0002:000166a0       ?RealStartWork@CAudioCapWasapi@@IAEGXZ 100186a0 f   audiocapwasapi.obj
 0002:00017200       ?TestWasApiCap@@YAHXZ      10019200 f   audiocapwasapi.obj
 0002:000173c0       ?CreateWasapiInputDevice@@YAPAVCAudioCapCom@@XZ 100193c0 f   audiocapwasapi.obj
 0002:00017480       ??_ECAudioCapWasapi@@WCE@AEPAXI@Z 10019480 f i audiocapwasapi.obj
 0002:00017490       ?TraceWaveInError@@YAXI@Z  10019490 f   audiocapwav.obj
 0002:00017550       ?GetNumCapDevices@CAudioCapWav@@UAEIXZ 10019550 f   audiocapwav.obj
 0002:000175a0       ?GetNameCapDevices@CAudioCapWav@@UAEIGQA_W0@Z 100195a0 f   audiocapwav.obj
 0002:000178c0       ?StartCapture@CAudioCapWav@@UAEHH@Z 100198c0 f   audiocapwav.obj
 0002:00017df0       ?SetCaptureParam@CAudioCapWav@@UAEHABUtagAudioCapParam@@H@Z 10019df0 f   audiocapwav.obj
 0002:00017ef0       ?PrepareCapBuffer@CAudioCapWav@@QAEHXZ 10019ef0 f   audiocapwav.obj
 0002:00018290       ??0CAudioCapWav@@QAE@XZ    1001a290 f   audiocapwav.obj
 0002:00018450       ?SetPlayDriverInst@CAudioCapWav@@UAEXPAX@Z 1001a450 f i audiocapwav.obj
 0002:00018490       ??_ECAudioCapWav@@UAEPAXI@Z 1001a490 f i audiocapwav.obj
 0002:00018490       ??_GCAudioCapWav@@UAEPAXI@Z 1001a490 f i audiocapwav.obj
 0002:000184f0       ??1CAudioCapWav@@UAE@XZ    1001a4f0 f   audiocapwav.obj
 0002:000186a0       ?RealTaskProcess@CAudioCapWav@@UAEXI@Z 1001a6a0 f   audiocapwav.obj
 0002:00018860       ?GetRecordingBufferDelay@CAudioCapWav@@QAEHAAI0@Z 1001a860 f   audiocapwav.obj
 0002:00018cf0       ?GetClockDrift@CAudioCapWav@@QAEHII@Z 1001acf0 f   audiocapwav.obj
 0002:00018e20       ?ReadOneBuffer@CAudioCapWav@@QAEIAA_JII@Z 1001ae20 f   audiocapwav.obj
 0002:00019350       ?CreateWavInDevice@@YAPAVCAudioCapCom@@XZ 1001b350 f   audiocapwav.obj
 0002:00019410       ??_ECAudioCapWav@@WCE@AEPAXI@Z 1001b410 f i audiocapwav.obj
 0002:00019420       ??0CKdvMp3Codec@@QAE@XZ    1001b420 f   audiocodec.obj
 0002:000195e0       ??0CAudioStreamCallback@@QAE@XZ 1001b5e0 f i audiocodec.obj
 0002:00019640       ??_GCAudioStreamCallback@@UAEPAXI@Z 1001b640 f i audiocodec.obj
 0002:00019640       ??_ECAudioStreamCallback@@UAEPAXI@Z 1001b640 f i audiocodec.obj
 0002:000196a0       ??0AudioPacketizationCallback@mediawrapper@@QAE@XZ 1001b6a0 f i audiocodec.obj
 0002:000196e0       ??_GAudioPacketizationCallback@mediawrapper@@UAEPAXI@Z 1001b6e0 f i audiocodec.obj
 0002:000196e0       ??_EAudioPacketizationCallback@mediawrapper@@UAEPAXI@Z 1001b6e0 f i audiocodec.obj
 0002:00019740       ??1AudioPacketizationCallback@mediawrapper@@UAE@XZ 1001b740 f i audiocodec.obj
 0002:00019780       ??1CAudioStreamCallback@@UAE@XZ 1001b780 f i audiocodec.obj
 0002:000197c0       ??_ECKdvMp3Codec@@UAEPAXI@Z 1001b7c0 f i audiocodec.obj
 0002:000197c0       ??_GCKdvMp3Codec@@UAEPAXI@Z 1001b7c0 f i audiocodec.obj
 0002:00019820       ??1CKdvMp3Codec@@UAE@XZ    1001b820 f   audiocodec.obj
 0002:00019970       ?SetConvertFormat@CKdvMp3Codec@@IAEHPAUtWAVEFORMATEX@@0H@Z 1001b970 f   audiocodec.obj
 0002:000199f0       ?Init@CKdvMp3Codec@@IAEHHHH@Z 1001b9f0 f   audiocodec.obj
 0002:00019f50       ?Free@CKdvMp3Codec@@QAEHXZ 1001bf50 f   audiocodec.obj
 0002:0001a1b0       ?Convert@CKdvMp3Codec@@QAEHPBEHPAPAEAAH@Z 1001c1b0 f   audiocodec.obj
 0002:0001a320       ?SetAudioDecType@CKdvMp3Codec@@QAEGEI@Z 1001c320 f   audiocodec.obj
 0002:0001a380       ?SetRatio@CKdvMp3Codec@@QAEHHEHHAAH@Z 1001c380 f   audiocodec.obj
 0002:0001a690       ?SetAudioDecParam@CKdvMp3Codec@@QAEHII@Z 1001c690 f   audiocodec.obj
 0002:0001a700       ?SetRatioOpus@CKdvMp3Codec@@QAEHHEHHAAH@Z 1001c700 f   audiocodec.obj
 0002:0001ac50       ?SetParam@CAudioStreamCallback@@QAEHPAX@Z 1001cc50 f i audiocodec.obj
 0002:0001ac90       ?EncodeOpus@CKdvMp3Codec@@QAEHPBEH@Z 1001cc90 f   audiocodec.obj
 0002:0001aea0       ?UpdateFrame@AudioFrame@mediawrapper@@QAEXHIPBFHHW4SpeechType@12@W4VADActivity@12@HI@Z 1001cea0 f i audiocodec.obj
 0002:0001af80       ?DecodeOpus@CKdvMp3Codec@@QAEHPAUtagAudDataStream@@@Z 1001cf80 f   audiocodec.obj
 0002:0001b0b0       ?CalcStatis@CKdvMp3Codec@@QAEXIAAI0@Z 1001d0b0 f   audiocodec.obj
 0002:0001b1b0       ?SendData@CAudioStreamCallback@@UAEHW4FrameType@mediawrapper@@EIPBEGPBVRTPFragmentationHeader@3@@Z 1001d1b0 f   audiocodec.obj
 0002:0001b3b0       _RegistAudEncoder          1001d3b0 f   audiocommand.obj
 0002:0001b3e0       _RegistAudDecoder          1001d3e0 f   audiocommand.obj
 0002:0001b410       _printallaudiodevice       1001d410 f   audiocommand.obj
 0002:0001b700       _getcuraudiodevice         1001d700 f   audiocommand.obj
 0002:0001b940       _testaudcap                1001d940 f   audiocommand.obj
 0002:0001ba90       _testaudplay               1001da90 f   audiocommand.obj
 0002:0001bbe0       _createaudencwrapper       1001dbe0 f   audiocommand.obj
 0002:0001bce0       _destroyaudencwrapper      1001dce0 f   audiocommand.obj
 0002:0001bdf0       _setaudmode                1001ddf0 f   audiocommand.obj
 0002:0001be50       _setencvol                 1001de50 f   audiocommand.obj
 0002:0001bea0       _setsysvol                 1001dea0 f   audiocommand.obj
 0002:0001bef0       _getencvol                 1001def0 f   audiocommand.obj
 0002:0001bf60       _getsysvol                 1001df60 f   audiocommand.obj
 0002:0001bfd0       _setaudsendparam           1001dfd0 f   audiocommand.obj
 0002:0001c660       _startaudsend              1001e660 f   audiocommand.obj
 0002:0001c6d0       _pGetInputAudioPowerCB     1001e6d0 f   audiocommand.obj
 0002:0001c720       _startaudcap               1001e720 f   audiocommand.obj
 0002:0001c780       _startaudenc               1001e780 f   audiocommand.obj
 0002:0001c7d0       _setaudnetband             1001e7d0 f   audiocommand.obj
 0002:0001c820       _setaudresend              1001e820 f   audiocommand.obj
 0002:0001c870       _selectaudcap              1001e870 f   audiocommand.obj
 0002:0001c960       _saveaec                   1001e960 f   audiocommand.obj
 0002:0001c9b0       _setautogain               1001e9b0 f   audiocommand.obj
 0002:0001ca00       ?SetAudioCapAutoGain@CAudEncWrapper@@QAEXH@Z 1001ea00 f i audiocommand.obj
 0002:0001ca40       _getautogain               1001ea40 f   audiocommand.obj
 0002:0001cae0       ?GetAudioCapAutoGain@CAudEncWrapper@@QAEXAAH@Z 1001eae0 f i audiocommand.obj
 0002:0001cb20       _saveaenc                  1001eb20 f   audiocommand.obj
 0002:0001cc30       _setreve                   1001ec30 f   audiocommand.obj
 0002:0001cc80       _setencaudmute             1001ec80 f   audiocommand.obj
 0002:0001ccd0       ?SetAudioMute@CKdvMp3Codec@@QAEXH@Z 1001ecd0 f i audiocommand.obj
 0002:0001cd10       _captest                   1001ed10 f   audiocommand.obj
 0002:0001cd60       _opensysaec                1001ed60 f   audiocommand.obj
 0002:0001cdb0       _setaudencryptkey          1001edb0 f   audiocommand.obj
 0002:0001ce30       _setaudencpt               1001ee30 f   audiocommand.obj
 0002:0001ce90       _createauddeccwrapper      1001ee90 f   audiocommand.obj
 0002:0001cf90       _destroyauddeccwrapper     1001ef90 f   audiocommand.obj
 0002:0001d0a0       _clearauddecbuf            1001f0a0 f   audiocommand.obj
 0002:0001d0f0       _saveadec                  1001f0f0 f   audiocommand.obj
 0002:0001d200       _setaudrecvparam           1001f200 f   audiocommand.obj
 0002:0001d7c0       _startaudrecv              1001f7c0 f   audiocommand.obj
 0002:0001d830       _pGetOutPutAudioPowerCB    1001f830 f   audiocommand.obj
 0002:0001d880       _startaudplay              1001f880 f   audiocommand.obj
 0002:0001d8f0       _startauddec               1001f8f0 f   audiocommand.obj
 0002:0001d950       _selectaudplay             1001f950 f   audiocommand.obj
 0002:0001da40       _adump                     1001fa40 f   audiocommand.obj
 0002:0001dab0       _setdecreve                1001fab0 f   audiocommand.obj
 0002:0001db00       _setdecvol                 1001fb00 f   audiocommand.obj
 0002:0001db50       _getdecvol                 1001fb50 f   audiocommand.obj
 0002:0001dbc0       _setdecsysvol              1001fbc0 f   audiocommand.obj
 0002:0001dc10       _getdecsysvol              1001fc10 f   audiocommand.obj
 0002:0001dc80       _setdecaudmute             1001fc80 f   audiocommand.obj
 0002:0001dce0       _plytest                   1001fce0 f   audiocommand.obj
 0002:0001dd40       _setauddecryptkey          1001fd40 f   audiocommand.obj
 0002:0001de50       _setaudencfecenable        1001fe50 f   audiocommand.obj
 0002:0001dec0       _setauddecfecenable        1001fec0 f   audiocommand.obj
 0002:0001df30       _setaudrat                 1001ff30 f   audiocommand.obj
 0002:0001dfa0       _getaudrat                 1001ffa0 f   audiocommand.obj
 0002:0001e030       _setauddecspelevel         10020030 f   audiocommand.obj
 0002:0001e0a0       _getauddecspelevel         100200a0 f   audiocommand.obj
 0002:0001e140       ?InitAudioDriverInst@@YAXXZ 10020140 f   audiocommand.obj
 0002:0001e280       ?DeInitAudioDriverInst@@YAXXZ 10020280 f   audiocommand.obj
 0002:0001e5a0       ?GetWavformatFromMode@@YAHEHIPAPAUtWAVEFORMATEX@@0@Z 100205a0 f   audiocommon.obj
 0002:0001e720       ?GetAudLenPerFrame@@YAII@Z 10020720 f   audiocommon.obj
 0002:0001e7c0       ?GetPcmHeadFromMode@@YAHEAAUtagAudioPram@@@Z 100207c0 f   audiocommon.obj
 0002:0001e830       ?AudioModeToMediaType@@YAEE@Z 10020830 f   audiocommon.obj
 0002:0001e980       ?MediaTypeToAudioMode@@YAXEAAE@Z 10020980 f   audiocommon.obj
 0002:0001eb40       ?AudioCap16Bit32kTo8kTrans@@YAXPAX0HH@Z 10020b40 f   audiocommon.obj
 0002:0001ecf0       ?TestPlayCallback@@YAXIEEIPAEPAX@Z 10020cf0 f   audiodeviceman.obj
 0002:0001ed60       ?TestCapCallback@@YAXPBEIEEIIHPAX@Z 10020d60 f   audiodeviceman.obj
 0002:0001edd0       ?GetSingletonPtr@CAudioDeviceMan@@SAPAV1@XZ 10020dd0 f   audiodeviceman.obj
 0002:0001ee00       ?GetSingleton@CAudioDeviceMan@@SAAAV1@XZ 10020e00 f   audiodeviceman.obj
 0002:0001ee30       ??0CAudioDeviceMan@@QAE@XZ 10020e30 f   audiodeviceman.obj
 0002:0001eea0       ??_GCAudioDeviceMan@@UAEPAXI@Z 10020ea0 f i audiodeviceman.obj
 0002:0001eea0       ??_ECAudioDeviceMan@@UAEPAXI@Z 10020ea0 f i audiodeviceman.obj
 0002:0001ef00       ??1CAudioDeviceMan@@UAE@XZ 10020f00 f   audiodeviceman.obj
 0002:0001ef90       ?Init@CAudioDeviceMan@@QAEGW4ENAUDIOAPI@@@Z 10020f90 f   audiodeviceman.obj
 0002:0001f0f0       ?SetCapCallBack@CAudioCapCom@@QAEXP6AXPBEIEEIIHPAX@Z1@Z 100210f0 f i audiodeviceman.obj
 0002:0001f140       ?SetPlayCallBack@CAudioPlayCom@@QAEXP6AXIEEIPAEPAX@Z1@Z 10021140 f i audiodeviceman.obj
 0002:0001f190       ?Destroy@CAudioDeviceMan@@QAEGXZ 10021190 f   audiodeviceman.obj
 0002:0001f2f0       ?RefeshPlay@CAudioDeviceMan@@QAEGAAV?$vector@UtagAudioDevNameInfo@@V?$allocator@UtagAudioDevNameInfo@@@std@@@std@@AAI@Z 100212f0 f   audiodeviceman.obj
 0002:0001f510       ?SelectCapDevice@CAudioDeviceMan@@QAEGPAUtagAudioDevNameInfo@@ABUtagAudioCapParam@@@Z 10021510 f   audiodeviceman.obj
 0002:0001f830       ?GetCaptureParam@CAudioCapCom@@QAEXAAUtagAudioCapParam@@@Z 10021830 f i audiodeviceman.obj
 0002:0001f890       ?SelectPlayDevice@CAudioDeviceMan@@QAEGPAUtagAudioDevNameInfo@@ABUtagAudioPlayParam@@@Z 10021890 f   audiodeviceman.obj
 0002:0001fb20       ?GetPlayParam@CAudioPlayCom@@QAEXAAUtagAudioPlayParam@@@Z 10021b20 f i audiodeviceman.obj
 0002:0001fb80       ?StartPlayout@CAudioDeviceMan@@QAEGH@Z 10021b80 f   audiodeviceman.obj
 0002:0001fc00       ?IsPlaying@CAudioDeviceMan@@QBEGXZ 10021c00 f   audiodeviceman.obj
 0002:0001fc60       ?IsPlaying@CAudioPlayCom@@QAEHXZ 10021c60 f i audiodeviceman.obj
 0002:0001fc90       ?StartCapture@CAudioDeviceMan@@QAEGH@Z 10021c90 f   audiodeviceman.obj
 0002:0001fd10       ?IsCapturing@CAudioDeviceMan@@QBEGXZ 10021d10 f   audiodeviceman.obj
 0002:0001fd70       ?RefeshCap@CAudioDeviceMan@@QAEGAAV?$vector@UtagAudioDevNameInfo@@V?$allocator@UtagAudioDevNameInfo@@@std@@@std@@AAI@Z 10021d70 f   audiodeviceman.obj
 0002:0001ff90       ?GetAudioCapParam@CAudioDeviceMan@@QAEGAAUtagAudioCapParam@@@Z 10021f90 f   audiodeviceman.obj
 0002:0001fff0       ?GetAudioPlayParam@CAudioDeviceMan@@QAEGAAUtagAudioPlayParam@@@Z 10021ff0 f   audiodeviceman.obj
 0002:00020050       ?SetAudioPlayCallBack@CAudioDeviceMan@@QAEGP6AXIEEIPAEPAX@Z1@Z 10022050 f   audiodeviceman.obj
 0002:000200b0       ?SetAudioCapCallBack@CAudioDeviceMan@@QAEGP6AXPBEIEEIIHPAX@Z1@Z 100220b0 f   audiodeviceman.obj
 0002:00020110       ?OpenSysAEC@CAudioDeviceMan@@QAEGH@Z 10022110 f   audiodeviceman.obj
 0002:00020290       ?empty@?$basic_string@_WU?$char_traits@_W@std@@V?$allocator@_W@2@@std@@QBE_NXZ 10022290 f i audiodeviceman.obj
 0002:000202d0       ?compare@?$basic_string@_WU?$char_traits@_W@std@@V?$allocator@_W@2@@std@@QBEHABV12@@Z 100222d0 f i audiodeviceman.obj
 0002:00020330       ??0?$Singleton@VCAudioDeviceMan@@@@QAE@XZ 10022330 f i audiodeviceman.obj
 0002:00020390       ??1?$Singleton@VCAudioDeviceMan@@@@QAE@XZ 10022390 f i audiodeviceman.obj
 0002:000203d0       ?push_back@?$vector@UtagAudioDevNameInfo@@V?$allocator@UtagAudioDevNameInfo@@@std@@@std@@QAEXABUtagAudioDevNameInfo@@@Z 100223d0 f i audiodeviceman.obj
 0002:00020500       ?clear@?$vector@UtagAudioDevNameInfo@@V?$allocator@UtagAudioDevNameInfo@@@std@@@std@@QAEXXZ 10022500 f i audiodeviceman.obj
 0002:00020590       ?begin@?$vector@UtagAudioDevNameInfo@@V?$allocator@UtagAudioDevNameInfo@@@std@@@std@@QAE?AV?$_Vector_iterator@V?$_Vector_val@UtagAudioDevNameInfo@@V?$allocator@UtagAudioDevNameInfo@@@std@@@std@@@2@XZ 10022590 f i audiodeviceman.obj
 0002:000205e0       ?end@?$vector@UtagAudioDevNameInfo@@V?$allocator@UtagAudioDevNameInfo@@@std@@@std@@QAE?AV?$_Vector_iterator@V?$_Vector_val@UtagAudioDevNameInfo@@V?$allocator@UtagAudioDevNameInfo@@@std@@@std@@@2@XZ 100225e0 f i audiodeviceman.obj
 0002:00020630       ?erase@?$vector@UtagAudioDevNameInfo@@V?$allocator@UtagAudioDevNameInfo@@@std@@@std@@QAE?AV?$_Vector_iterator@V?$_Vector_val@UtagAudioDevNameInfo@@V?$allocator@UtagAudioDevNameInfo@@@std@@@std@@@2@V?$_Vector_const_iterator@V?$_Vector_val@UtagAudioDevNameInfo@@V?$allocator@UtagAudioDevNameInfo@@@std@@@std@@@2@0@Z 10022630 f i audiodeviceman.obj
 0002:00020740       ?_Inside@?$vector@UtagAudioDevNameInfo@@V?$allocator@UtagAudioDevNameInfo@@@std@@@std@@IBE_NPBUtagAudioDevNameInfo@@@Z 10022740 f i audiodeviceman.obj
 0002:000207a0       ?_Reserve@?$vector@UtagAudioDevNameInfo@@V?$allocator@UtagAudioDevNameInfo@@@std@@@std@@IAEXI@Z 100227a0 f i audiodeviceman.obj
 0002:00020830       ?_Orphan_range@?$vector@UtagAudioDevNameInfo@@V?$allocator@UtagAudioDevNameInfo@@@std@@@std@@IBEXPAUtagAudioDevNameInfo@@0@Z 10022830 f i audiodeviceman.obj
 0002:00020860       ?reserve@?$vector@UtagAudioDevNameInfo@@V?$allocator@UtagAudioDevNameInfo@@@std@@@std@@QAEXI@Z 10022860 f i audiodeviceman.obj
 0002:000209e0       ?capacity@?$vector@UtagAudioDevNameInfo@@V?$allocator@UtagAudioDevNameInfo@@@std@@@std@@QBEIXZ 100229e0 f i audiodeviceman.obj
 0002:00020a20       ?_Make_iter@?$vector@UtagAudioDevNameInfo@@V?$allocator@UtagAudioDevNameInfo@@@std@@@std@@QBE?AV?$_Vector_iterator@V?$_Vector_val@UtagAudioDevNameInfo@@V?$allocator@UtagAudioDevNameInfo@@@std@@@std@@@2@V?$_Vector_const_iterator@V?$_Vector_val@UtagAudioDevNameInfo@@V?$allocator@UtagAudioDevNameInfo@@@std@@@std@@@2@@Z 10022a20 f i audiodeviceman.obj
 0002:00020a70       ?size@?$vector@UtagAudioDevNameInfo@@V?$allocator@UtagAudioDevNameInfo@@@std@@@std@@QBEIXZ 10022a70 f i audiodeviceman.obj
 0002:00020ab0       ?max_size@?$vector@UtagAudioDevNameInfo@@V?$allocator@UtagAudioDevNameInfo@@@std@@@std@@QBEIXZ 10022ab0 f i audiodeviceman.obj
 0002:00020b00       ?_Grow_to@?$vector@UtagAudioDevNameInfo@@V?$allocator@UtagAudioDevNameInfo@@@std@@@std@@IBEII@Z 10022b00 f i audiodeviceman.obj
 0002:00020b90       ?_Xlen@?$vector@UtagAudioDevNameInfo@@V?$allocator@UtagAudioDevNameInfo@@@std@@@std@@IBEXXZ 10022b90 f i audiodeviceman.obj
 0002:00020be0       ??0?$_Vector_iterator@V?$_Vector_val@UtagAudioDevNameInfo@@V?$allocator@UtagAudioDevNameInfo@@@std@@@std@@@std@@QAE@PAUtagAudioDevNameInfo@@PBU_Container_base0@1@@Z 10022be0 f i audiodeviceman.obj
 0002:00020c30       ??9?$_Vector_const_iterator@V?$_Vector_val@UtagAudioDevNameInfo@@V?$allocator@UtagAudioDevNameInfo@@@std@@@std@@@std@@QBE_NABV01@@Z 10022c30 f i audiodeviceman.obj
 0002:00020c80       ?allocate@?$allocator@UtagAudioDevNameInfo@@@std@@QAEPAUtagAudioDevNameInfo@@I@Z 10022c80 f i audiodeviceman.obj
 0002:00020cd0       ?max_size@?$allocator@UtagAudioDevNameInfo@@@std@@QBEIXZ 10022cd0 f i audiodeviceman.obj
 0002:00020d30       ??0?$_Vector_const_iterator@V?$_Vector_val@UtagAudioDevNameInfo@@V?$allocator@UtagAudioDevNameInfo@@@std@@@std@@@std@@QAE@PAUtagAudioDevNameInfo@@PBU_Container_base0@1@@Z 10022d30 f i audiodeviceman.obj
 0002:00020d80       ?_Adopt@_Iterator_base0@std@@QAEXPBX@Z 10022d80 f i audiodeviceman.obj
 0002:00020db0       ??8?$_Vector_const_iterator@V?$_Vector_val@UtagAudioDevNameInfo@@V?$allocator@UtagAudioDevNameInfo@@@std@@@std@@@std@@QBE_NABV01@@Z 10022db0 f i audiodeviceman.obj
 0002:00020e10       ?_Compat@?$_Vector_const_iterator@V?$_Vector_val@UtagAudioDevNameInfo@@V?$allocator@UtagAudioDevNameInfo@@@std@@@std@@@std@@QBEXABV12@@Z 10022e10 f i audiodeviceman.obj
 0002:00020e40       ??$addressof@$$CBUtagAudioDevNameInfo@@@std@@YAPBUtagAudioDevNameInfo@@ABU1@@Z 10022e40 f i audiodeviceman.obj
 0002:00020e70       ??$_Cons_val@V?$allocator@UtagAudioDevNameInfo@@@std@@UtagAudioDevNameInfo@@AAU3@@std@@YAXAAV?$allocator@UtagAudioDevNameInfo@@@0@PAUtagAudioDevNameInfo@@AAU2@@Z 10022e70 f i audiodeviceman.obj
 0002:00020ec0       ??$_Cons_val@V?$allocator@UtagAudioDevNameInfo@@@std@@UtagAudioDevNameInfo@@ABU3@@std@@YAXAAV?$allocator@UtagAudioDevNameInfo@@@0@PAUtagAudioDevNameInfo@@ABU2@@Z 10022ec0 f i audiodeviceman.obj
 0002:00020f10       ??$_Move@PAUtagAudioDevNameInfo@@PAU1@@std@@YAPAUtagAudioDevNameInfo@@PAU1@00@Z 10022f10 f i audiodeviceman.obj
 0002:00020f80       ??$_Umove@PAUtagAudioDevNameInfo@@@?$vector@UtagAudioDevNameInfo@@V?$allocator@UtagAudioDevNameInfo@@@std@@@std@@IAEPAUtagAudioDevNameInfo@@PAU2@00@Z 10022f80 f i audiodeviceman.obj
 0002:00020fe0       ??$_Allocate@UtagAudioDevNameInfo@@@std@@YAPAUtagAudioDevNameInfo@@IPAU1@@Z 10022fe0 f i audiodeviceman.obj
 0002:00021070       ?construct@?$allocator@UtagAudioDevNameInfo@@@std@@QAEXPAUtagAudioDevNameInfo@@ABU3@@Z 10023070 f i audiodeviceman.obj
 0002:000210c0       ??$forward@AAUtagAudioDevNameInfo@@@std@@YAAAUtagAudioDevNameInfo@@AAU1@@Z 100230c0 f i audiodeviceman.obj
 0002:000210f0       ??$construct@AAUtagAudioDevNameInfo@@@?$allocator@UtagAudioDevNameInfo@@@std@@QAEXPAUtagAudioDevNameInfo@@AAU2@@Z 100230f0 f i audiodeviceman.obj
 0002:000211c0       ??2@YAPAXIPAX@Z            100231c0 f i audiodeviceman.obj
 0002:000211f0       ??3@YAXPAX0@Z              100231f0 f i audiodeviceman.obj
 0002:00021220       ??$forward@ABUtagAudioDevNameInfo@@@std@@YAABUtagAudioDevNameInfo@@ABU1@@Z 10023220 f i audiodeviceman.obj
 0002:00021250       ??$_Move@PAUtagAudioDevNameInfo@@PAU1@@std@@YAPAUtagAudioDevNameInfo@@PAU1@00U_Nonscalar_ptr_iterator_tag@0@@Z 10023250 f i audiodeviceman.obj
 0002:000212c0       ??$_Uninitialized_move@PAUtagAudioDevNameInfo@@PAU1@V?$allocator@UtagAudioDevNameInfo@@@std@@@std@@YAPAUtagAudioDevNameInfo@@PAU1@00AAV?$allocator@UtagAudioDevNameInfo@@@0@@Z 100232c0 f i audiodeviceman.obj
 0002:00021340       ??$_Construct@UtagAudioDevNameInfo@@ABU1@@std@@YAXPAUtagAudioDevNameInfo@@ABU1@@Z 10023340 f i audiodeviceman.obj
 0002:00021410       ??0tagAudioDevNameInfo@@QAE@ABU0@@Z 10023410 f i audiodeviceman.obj
 0002:000214b0       ??0?$basic_string@_WU?$char_traits@_W@std@@V?$allocator@_W@2@@std@@QAE@ABV01@@Z 100234b0 f i audiodeviceman.obj
 0002:00021570       ??$move@AAUtagAudioDevNameInfo@@@std@@YA$$QAUtagAudioDevNameInfo@@AAU1@@Z 10023570 f i audiodeviceman.obj
 0002:000215a0       ??$_Val_type@PAUtagAudioDevNameInfo@@@std@@YAPAUtagAudioDevNameInfo@@PAU1@@Z 100235a0 f i audiodeviceman.obj
 0002:000215d0       ??$_Uninit_move@PAUtagAudioDevNameInfo@@PAU1@V?$allocator@UtagAudioDevNameInfo@@@std@@U1@@std@@YAPAUtagAudioDevNameInfo@@PAU1@00AAV?$allocator@UtagAudioDevNameInfo@@@0@0U_Nonscalar_ptr_iterator_tag@0@@Z 100235d0 f i audiodeviceman.obj
 0002:000216c0       ??$_Cons_val@V?$allocator@UtagAudioDevNameInfo@@@std@@UtagAudioDevNameInfo@@U3@@std@@YAXAAV?$allocator@UtagAudioDevNameInfo@@@0@PAUtagAudioDevNameInfo@@$$QAU2@@Z 100236c0 f i audiodeviceman.obj
 0002:00021710       ?construct@?$allocator@UtagAudioDevNameInfo@@@std@@QAEXPAUtagAudioDevNameInfo@@$$QAU3@@Z 10023710 f i audiodeviceman.obj
 0002:000217e0       ??$forward@UtagAudioDevNameInfo@@@std@@YA$$QAUtagAudioDevNameInfo@@AAU1@@Z 100237e0 f i audiodeviceman.obj
 0002:00021810       ?DestroyAudioDecoder@CKdvDecoder@@IAEXXZ 10023810 f   audiointerfaceimp.obj
 0002:000218b0       ?InitialAudioDecoder@CKdvDecoder@@QAEGABUtagInitAudDecoder@@@Z 100238b0 f   audiointerfaceimp.obj
 0002:000219c0       ?SelectAudioPlayDev@CKdvDecoder@@QAEGPB_W0@Z 100239c0 f   audiointerfaceimp.obj
 0002:00021a20       ?GetCurAudPlyDev@CKdvDecoder@@QAEGAAUTDevNameInfo@@@Z 10023a20 f   audiointerfaceimp.obj
 0002:00021a80       ?SetAudioSoftVolume@CKdvDecoder@@QAEGE@Z 10023a80 f   audiointerfaceimp.obj
 0002:00021ae0       ?GetAudioSoftVolume@CKdvDecoder@@QAEGAAE@Z 10023ae0 f   audiointerfaceimp.obj
 0002:00021b40       ?SetAudioVolume@CKdvDecoder@@QAEGE@Z 10023b40 f   audiointerfaceimp.obj
 0002:00021bb0       ?GetAudioVolume@CKdvDecoder@@QAEGAAE@Z 10023bb0 f   audiointerfaceimp.obj
 0002:00021c10       ?SetAudioMute@CKdvDecoder@@QAEGH@Z 10023c10 f   audiointerfaceimp.obj
 0002:00021c70       ?GetAudioMute@CKdvDecoder@@QAEGAAH@Z 10023c70 f   audiointerfaceimp.obj
 0002:00021cd0       ?IsMute@CKdvMp3Codec@@QAEHXZ 10023cd0 f i audiointerfaceimp.obj
 0002:00021d00       ?SetAudioDecType@CKdvDecoder@@QAEGEI@Z 10023d00 f   audiointerfaceimp.obj
 0002:00021d60       ?StartAudioDec@CKdvDecoder@@QAEGXZ 10023d60 f   audiointerfaceimp.obj
 0002:00021dd0       ?StopAudioDec@CKdvDecoder@@QAEGXZ 10023dd0 f   audiointerfaceimp.obj
 0002:00021e40       ?SetAudioCallBack@CKdvDecoder@@QAEGP6AXEPBEHI@ZI@Z 10023e40 f   audiointerfaceimp.obj
 0002:00021ea0       ?SetAudioDecPCMCallBack@CKdvDecoder@@QAEGP6AXPAEHIIII@ZI@Z 10023ea0 f   audiointerfaceimp.obj
 0002:00021f00       ?SetOutputAudioPowerCB@CKdvDecoder@@QAEGP6AXEI@ZI@Z 10023f00 f   audiointerfaceimp.obj
 0002:00021f60       ?SetAudioDecParam@CKdvDecoder@@QAEGII@Z 10023f60 f   audiointerfaceimp.obj
 0002:00021fd0       ?SetAuditoPlyTest@CKdvDecoder@@QAEGH@Z 10023fd0 f   audiointerfaceimp.obj
 0002:00022030       ?SetAudioActivePT@CKdvDecoder@@QAEGEE@Z 10024030 f   audiointerfaceimp.obj
 0002:000220a0       ?SetAudioActivePT@CKdvDecoder@@QAEGUtagMapSet@@@Z 100240a0 f   audiointerfaceimp.obj
 0002:00022150       ?SetAudDecryptKey@CKdvDecoder@@QAEGPADGE@Z 10024150 f   audiointerfaceimp.obj
 0002:000221c0       ?SetAudioNetRcvParam@CKdvDecoder@@QAEGPBUtagMnetNetParam@@@Z 100241c0 f   audiointerfaceimp.obj
 0002:00022230       ?SetAudioRcvId@CKdvDecoder@@QAEGPBDII@Z 10024230 f   audiointerfaceimp.obj
 0002:000222a0       ?GetAudioRcvId@CKdvDecoder@@QAEGPADPAI1@Z 100242a0 f   audiointerfaceimp.obj
 0002:00022310       ?AudioRcvEnableKeepAlive@CKdvDecoder@@QAEGHPBUtagMnetNetParam@@@Z 10024310 f   audiointerfaceimp.obj
 0002:00022380       ?SetAudioRtcpStatus@CKdvDecoder@@QAEGW4RTCPSTATUS@@@Z 10024380 f   audiointerfaceimp.obj
 0002:000223f0       ?GetAudDecoderStatus@CKdvDecoder@@QAEGAAUKdvDecStatus@@@Z 100243f0 f   audiointerfaceimp.obj
 0002:00022460       ?GetAudDecoderStatis@CKdvDecoder@@QAEGAAUKdvDecStatis@@@Z 10024460 f   audiointerfaceimp.obj
 0002:000224c0       ?StartRcvAudio@CKdvDecoder@@QAEGXZ 100244c0 f   audiointerfaceimp.obj
 0002:00022520       ?StopRcvAudio@CKdvDecoder@@QAEGXZ 10024520 f   audiointerfaceimp.obj
 0002:00022580       ?SetAudDecDblSend@CKdvDecoder@@QAEGPBUtagMnetNetParam@@@Z 10024580 f   audiointerfaceimp.obj
 0002:000225b0       ?SetReverseG7221c@CKdvDecoder@@QAEGH@Z 100245b0 f   audiointerfaceimp.obj
 0002:00022610       ?SetNetFeedbackAudioParam@CKdvDecoder@@QAEGH@Z 10024610 f   audiointerfaceimp.obj
 0002:00022670       ?SetAudFecEnable@CKdvDecoder@@QAEGH@Z 10024670 f   audiointerfaceimp.obj
 0002:000226e0       ?SetAudEnableCrypt@CKdvDecoder@@QAEGHPATTMnetCryptCfg@@@Z 100246e0 f   audiointerfaceimp.obj
 0002:00022750       ?SetAudMnetCryptCfgInit@CKdvDecoder@@QAEGPATTMnetCryptCfg@@H@Z 10024750 f   audiointerfaceimp.obj
 0002:000227c0       ?SetAudMnetCryptCfgSetCipherAlgorithm@CKdvDecoder@@QAEGPATTMnetCryptCfg@@W4TMnetCryptDataType@@W4TMnetCryptAlgoType@@@Z 100247c0 f   audiointerfaceimp.obj
 0002:00022840       ?SetAudMnetCryptCfgSetAuthAlgorithm@CKdvDecoder@@QAEGPATTMnetCryptCfg@@W4TMnetCryptDataType@@W4TMnetCryptAlgoType@@@Z 10024840 f   audiointerfaceimp.obj
 0002:000228c0       ?SetAudMnetCryptCfgSetMasterKey@CKdvDecoder@@QAEGPATTMnetCryptCfg@@W4TMnetCryptDataType@@W4TMnetCryptKeyType@@GPAEW4TMnetCrypKeyLen@@4@Z 100248c0 f   audiointerfaceimp.obj
 0002:00022950       ?SetAudMnetCryptCfgSetCipherKey@CKdvDecoder@@QAEGPATTMnetCryptCfg@@W4TMnetCryptDataType@@GPAE@Z 10024950 f   audiointerfaceimp.obj
 0002:000229d0       ?SetAudMnetCryptCfgSetAuthKey@CKdvDecoder@@QAEGPATTMnetCryptCfg@@W4TMnetCryptDataType@@GPAE@Z 100249d0 f   audiointerfaceimp.obj
 0002:00022a50       ?SetAudMnetCryptCfgSetPkt@CKdvDecoder@@QAEGPATTMnetCryptCfg@@W4TMnetCryptDataType@@W4TMnetCryptPktType@@@Z 10024a50 f   audiointerfaceimp.obj
 0002:00022ad0       ?SetAudMnetCryptCfgSetAuthTag@CKdvDecoder@@QAEGPATTMnetCryptCfg@@W4TMnetCryptDataType@@W4TMnetCryptTagLen@@@Z 10024ad0 f   audiointerfaceimp.obj
 0002:00022b50       ?SetVoiceCheck@CKdvEncoder@@QAEGHPBUtagVoiceCheck@@@Z 10024b50 f   audiointerfaceimp.obj
 0002:00022bd0       ?StartAudioCap@CKdvEncoder@@QAEGXZ 10024bd0 f   audiointerfaceimp.obj
 0002:00022c30       ?StopAudioCap@CKdvEncoder@@QAEGXZ 10024c30 f   audiointerfaceimp.obj
 0002:00022c90       ?StartAudioEnc@CKdvEncoder@@QAEGXZ 10024c90 f   audiointerfaceimp.obj
 0002:00022cf0       ?StopAudioEnc@CKdvEncoder@@QAEGXZ 10024cf0 f   audiointerfaceimp.obj
 0002:00022d50       ?SetAudioEncParam@CKdvEncoder@@QAEGEG@Z 10024d50 f   audiointerfaceimp.obj
 0002:00022dc0       ?GetAudioEncParam@CKdvEncoder@@QAEGAAEAAG@Z 10024dc0 f   audiointerfaceimp.obj
 0002:00022e20       ?SetAudioCallBack@CKdvEncoder@@QAEGP6AXEPBEHI@ZI@Z 10024e20 f   audiointerfaceimp.obj
 0002:00022e90       ?SetAudioCapCallBack@CKdvEncoder@@QAEGP6AXPAX@ZI@Z 10024e90 f   audiointerfaceimp.obj
 0002:00022f10       ?SetAudioCaptureDeviceChangeCB@CKdvEncoder@@QAEGP6AXIABV?$vector@UTDevNameInfo@@V?$allocator@UTDevNameInfo@@@std@@@std@@0@ZI@Z 10024f10 f   audiointerfaceimp.obj
 0002:00022f70       ?SetInputAudioPowerCB@CKdvEncoder@@QAEGP6AXEI@ZI@Z 10024f70 f   audiointerfaceimp.obj
 0002:00022fd0       ?GetAudioMute@CKdvEncoder@@QAEGAAH@Z 10024fd0 f   audiointerfaceimp.obj
 0002:00023030       ?SetAudioMute@CKdvEncoder@@QAEGH@Z 10025030 f   audiointerfaceimp.obj
 0002:00023090       ?SetAudioCapAutoGain@CKdvEncoder@@QAEGH@Z 10025090 f   audiointerfaceimp.obj
 0002:000230f0       ?GetAudioCapAutoGain@CKdvEncoder@@QAEGAAH@Z 100250f0 f   audiointerfaceimp.obj
 0002:00023150       ?SetAudioSoftVolume@CKdvEncoder@@QAEGE@Z 10025150 f   audiointerfaceimp.obj
 0002:000231b0       ?SetAudioVolume@CKdvEncoder@@QAEGE@Z 100251b0 f   audiointerfaceimp.obj
 0002:00023220       ?GetAudioSoftVolume@CKdvEncoder@@QAEGAAE@Z 10025220 f   audiointerfaceimp.obj
 0002:00023280       ?GetAudioVolume@CKdvEncoder@@QAEGAAE@Z 10025280 f   audiointerfaceimp.obj
 0002:000232f0       ?SetNetFeedbackAudioParam@CKdvEncoder@@QAEGGH@Z 100252f0 f   audiointerfaceimp.obj
 0002:00023360       ?DestroyAudioEncoder@CKdvEncoder@@IAEXXZ 10025360 f   audiointerfaceimp.obj
 0002:00023400       ?InitialAudioEncoder@CKdvEncoder@@QAEGABUtagInitAudEncoder@@@Z 10025400 f   audiointerfaceimp.obj
 0002:00023500       ?SelectAudioSource@CKdvEncoder@@QAEGPB_W0@Z 10025500 f   audiointerfaceimp.obj
 0002:00023560       ?GetCurAudCapDev@CKdvEncoder@@QAEGAAUTDevNameInfo@@@Z 10025560 f   audiointerfaceimp.obj
 0002:000235c0       ?RefreshAudCapDevList@CKdvEncoder@@QAEXAAV?$vector@UTDevNameInfo@@V?$allocator@UTDevNameInfo@@@std@@@std@@AAI@Z 100255c0 f   audiointerfaceimp.obj
 0002:000237c0       ?SetNetAudioResend@CKdvEncoder@@QAEGH@Z 100257c0 f   audiointerfaceimp.obj
 0002:00023830       ?SetAudNetSndBand@CKdvEncoder@@QAEGI@Z 10025830 f   audiointerfaceimp.obj
 0002:000238a0       ?SetNetSndAudioParam@CKdvEncoder@@QAEGPBUtagMnetNetParam@@@Z 100258a0 f   audiointerfaceimp.obj
 0002:00023910       ?SetAudioSendId@CKdvEncoder@@QAEGPBDII@Z 10025910 f   audiointerfaceimp.obj
 0002:00023980       ?GetAudioSendId@CKdvEncoder@@QAEGPADPAI1@Z 10025980 f   audiointerfaceimp.obj
 0002:000239f0       ?AudioSendEnableKeepAlive@CKdvEncoder@@QAEGHPBUtagMnetNetParam@@@Z 100259f0 f   audiointerfaceimp.obj
 0002:00023a60       ?AudioEnableRtpExStrip@CKdvEncoder@@QAEGH@Z 10025a60 f   audiointerfaceimp.obj
 0002:00023ad0       ?SetAudioRtcpStatus@CKdvEncoder@@QAEGW4RTCPSTATUS@@@Z 10025ad0 f   audiointerfaceimp.obj
 0002:00023b40       ?StartSendAudio@CKdvEncoder@@QAEGH@Z 10025b40 f   audiointerfaceimp.obj
 0002:00023bb0       ?StopSendAudio@CKdvEncoder@@QAEGXZ 10025bb0 f   audiointerfaceimp.obj
 0002:00023c10       ?SetAudFecEnable@CKdvEncoder@@QAEGH@Z 10025c10 f   audiointerfaceimp.obj
 0002:00023c70       ?SetAudFecPackLen@CKdvEncoder@@QAEGG@Z 10025c70 f   audiointerfaceimp.obj
 0002:00023cd0       ?SetAudFecIntraFrame@CKdvEncoder@@QAEGH@Z 10025cd0 f   audiointerfaceimp.obj
 0002:00023d30       ?SetAudFecMode@CKdvEncoder@@QAEGE@Z 10025d30 f   audiointerfaceimp.obj
 0002:00023d90       ?SetAudFecXY@CKdvEncoder@@QAEGHH@Z 10025d90 f   audiointerfaceimp.obj
 0002:00023df0       ?SetAudioActivePT@CKdvEncoder@@QAEGEE@Z 10025df0 f   audiointerfaceimp.obj
 0002:00023e60       ?SetAudEncryptKey@CKdvEncoder@@QAEGPADGE@Z 10025e60 f   audiointerfaceimp.obj
 0002:00023ed0       ?SetReverseG7221c@CKdvEncoder@@QAEGH@Z 10025ed0 f   audiointerfaceimp.obj
 0002:00023f40       ?RefreshPlayDevList@CKdvDecoder@@QAEXAAV?$vector@UTDevNameInfo@@V?$allocator@UTDevNameInfo@@@std@@@std@@AAI@Z 10025f40 f   audiointerfaceimp.obj
 0002:00024140       ?SetAudioCapTest@CKdvEncoder@@QAEGH@Z 10026140 f   audiointerfaceimp.obj
 0002:000241a0       ?SetAudEnableCrypt@CKdvEncoder@@QAEGHPATTMnetCryptCfg@@@Z 100261a0 f   audiointerfaceimp.obj
 0002:00024210       ?SetAudMnetCryptCfgInit@CKdvEncoder@@QAEGPATTMnetCryptCfg@@H@Z 10026210 f   audiointerfaceimp.obj
 0002:00024280       ?SetAudMnetCryptCfgSetCipherAlgorithm@CKdvEncoder@@QAEGPATTMnetCryptCfg@@W4TMnetCryptDataType@@W4TMnetCryptAlgoType@@@Z 10026280 f   audiointerfaceimp.obj
 0002:00024300       ?SetAudMnetCryptCfgSetAuthAlgorithm@CKdvEncoder@@QAEGPATTMnetCryptCfg@@W4TMnetCryptDataType@@W4TMnetCryptAlgoType@@@Z 10026300 f   audiointerfaceimp.obj
 0002:00024380       ?SetAudMnetCryptCfgSetMasterKey@CKdvEncoder@@QAEGPATTMnetCryptCfg@@W4TMnetCryptDataType@@W4TMnetCryptKeyType@@GPAEW4TMnetCrypKeyLen@@4@Z 10026380 f   audiointerfaceimp.obj
 0002:00024410       ?SetAudMnetCryptCfgSetCipherKey@CKdvEncoder@@QAEGPATTMnetCryptCfg@@W4TMnetCryptDataType@@GPAE@Z 10026410 f   audiointerfaceimp.obj
 0002:00024490       ?SetAudMnetCryptCfgSetAuthKey@CKdvEncoder@@QAEGPATTMnetCryptCfg@@W4TMnetCryptDataType@@GPAE@Z 10026490 f   audiointerfaceimp.obj
 0002:00024510       ?SetAudMnetCryptCfgSetPkt@CKdvEncoder@@QAEGPATTMnetCryptCfg@@W4TMnetCryptDataType@@W4TMnetCryptPktType@@@Z 10026510 f   audiointerfaceimp.obj
 0002:00024590       ?SetAudMnetCryptCfgSetAuthTag@CKdvEncoder@@QAEGPATTMnetCryptCfg@@W4TMnetCryptDataType@@W4TMnetCryptTagLen@@@Z 10026590 f   audiointerfaceimp.obj
 0002:00024610       ?_Copy_s@?$basic_string@_WU?$char_traits@_W@std@@V?$allocator@_W@2@@std@@QBEIPA_WIII@Z 10026610 f i audiointerfaceimp.obj
 0002:000246a0       ?_Copy_s@?$char_traits@_W@std@@SAPA_WPA_WIPB_WI@Z 100266a0 f i audiointerfaceimp.obj
 0002:000246f0       ?push_back@?$vector@UTDevNameInfo@@V?$allocator@UTDevNameInfo@@@std@@@std@@QAEXABUTDevNameInfo@@@Z 100266f0 f i audiointerfaceimp.obj
 0002:00024820       ?clear@?$vector@UTDevNameInfo@@V?$allocator@UTDevNameInfo@@@std@@@std@@QAEXXZ 10026820 f i audiointerfaceimp.obj
 0002:000248b0       ?begin@?$vector@UTDevNameInfo@@V?$allocator@UTDevNameInfo@@@std@@@std@@QAE?AV?$_Vector_iterator@V?$_Vector_val@UTDevNameInfo@@V?$allocator@UTDevNameInfo@@@std@@@std@@@2@XZ 100268b0 f i audiointerfaceimp.obj
 0002:00024900       ?end@?$vector@UTDevNameInfo@@V?$allocator@UTDevNameInfo@@@std@@@std@@QAE?AV?$_Vector_iterator@V?$_Vector_val@UTDevNameInfo@@V?$allocator@UTDevNameInfo@@@std@@@std@@@2@XZ 10026900 f i audiointerfaceimp.obj
 0002:00024950       ?erase@?$vector@UTDevNameInfo@@V?$allocator@UTDevNameInfo@@@std@@@std@@QAE?AV?$_Vector_iterator@V?$_Vector_val@UTDevNameInfo@@V?$allocator@UTDevNameInfo@@@std@@@std@@@2@V?$_Vector_const_iterator@V?$_Vector_val@UTDevNameInfo@@V?$allocator@UTDevNameInfo@@@std@@@std@@@2@0@Z 10026950 f i audiointerfaceimp.obj
 0002:00024a60       ?_Inside@?$vector@UTDevNameInfo@@V?$allocator@UTDevNameInfo@@@std@@@std@@IBE_NPBUTDevNameInfo@@@Z 10026a60 f i audiointerfaceimp.obj
 0002:00024ac0       ?_Reserve@?$vector@UTDevNameInfo@@V?$allocator@UTDevNameInfo@@@std@@@std@@IAEXI@Z 10026ac0 f i audiointerfaceimp.obj
 0002:00024b50       ?_Orphan_range@?$vector@UTDevNameInfo@@V?$allocator@UTDevNameInfo@@@std@@@std@@IBEXPAUTDevNameInfo@@0@Z 10026b50 f i audiointerfaceimp.obj
 0002:00024b80       ?reserve@?$vector@UTDevNameInfo@@V?$allocator@UTDevNameInfo@@@std@@@std@@QAEXI@Z 10026b80 f i audiointerfaceimp.obj
 0002:00024d00       ?capacity@?$vector@UTDevNameInfo@@V?$allocator@UTDevNameInfo@@@std@@@std@@QBEIXZ 10026d00 f i audiointerfaceimp.obj
 0002:00024d40       ?_Make_iter@?$vector@UTDevNameInfo@@V?$allocator@UTDevNameInfo@@@std@@@std@@QBE?AV?$_Vector_iterator@V?$_Vector_val@UTDevNameInfo@@V?$allocator@UTDevNameInfo@@@std@@@std@@@2@V?$_Vector_const_iterator@V?$_Vector_val@UTDevNameInfo@@V?$allocator@UTDevNameInfo@@@std@@@std@@@2@@Z 10026d40 f i audiointerfaceimp.obj
 0002:00024d90       ?size@?$vector@UTDevNameInfo@@V?$allocator@UTDevNameInfo@@@std@@@std@@QBEIXZ 10026d90 f i audiointerfaceimp.obj
 0002:00024dd0       ?max_size@?$vector@UTDevNameInfo@@V?$allocator@UTDevNameInfo@@@std@@@std@@QBEIXZ 10026dd0 f i audiointerfaceimp.obj
 0002:00024e20       ?_Destroy@?$vector@UTDevNameInfo@@V?$allocator@UTDevNameInfo@@@std@@@std@@IAEXPAUTDevNameInfo@@0@Z 10026e20 f i audiointerfaceimp.obj
 0002:00024e70       ?_Grow_to@?$vector@UTDevNameInfo@@V?$allocator@UTDevNameInfo@@@std@@@std@@IBEII@Z 10026e70 f i audiointerfaceimp.obj
 0002:00024f00       ?_Xlen@?$vector@UTDevNameInfo@@V?$allocator@UTDevNameInfo@@@std@@@std@@IBEXXZ 10026f00 f i audiointerfaceimp.obj
 0002:00024f50       ??0?$_Vector_iterator@V?$_Vector_val@UTDevNameInfo@@V?$allocator@UTDevNameInfo@@@std@@@std@@@std@@QAE@PAUTDevNameInfo@@PBU_Container_base0@1@@Z 10026f50 f i audiointerfaceimp.obj
 0002:00024fa0       ??9?$_Vector_const_iterator@V?$_Vector_val@UTDevNameInfo@@V?$allocator@UTDevNameInfo@@@std@@@std@@@std@@QBE_NABV01@@Z 10026fa0 f i audiointerfaceimp.obj
 0002:00024ff0       ?deallocate@?$allocator@UTDevNameInfo@@@std@@QAEXPAUTDevNameInfo@@I@Z 10026ff0 f i audiointerfaceimp.obj
 0002:00025040       ?allocate@?$allocator@UTDevNameInfo@@@std@@QAEPAUTDevNameInfo@@I@Z 10027040 f i audiointerfaceimp.obj
 0002:00025090       ?max_size@?$allocator@UTDevNameInfo@@@std@@QBEIXZ 10027090 f i audiointerfaceimp.obj
 0002:000250f0       ??0?$_Vector_const_iterator@V?$_Vector_val@UTDevNameInfo@@V?$allocator@UTDevNameInfo@@@std@@@std@@@std@@QAE@PAUTDevNameInfo@@PBU_Container_base0@1@@Z 100270f0 f i audiointerfaceimp.obj
 0002:00025140       ??8?$_Vector_const_iterator@V?$_Vector_val@UTDevNameInfo@@V?$allocator@UTDevNameInfo@@@std@@@std@@@std@@QBE_NABV01@@Z 10027140 f i audiointerfaceimp.obj
 0002:000251a0       ?_Compat@?$_Vector_const_iterator@V?$_Vector_val@UTDevNameInfo@@V?$allocator@UTDevNameInfo@@@std@@@std@@@std@@QBEXABV12@@Z 100271a0 f i audiointerfaceimp.obj
 0002:000251d0       ??$addressof@$$CBUTDevNameInfo@@@std@@YAPBUTDevNameInfo@@ABU1@@Z 100271d0 f i audiointerfaceimp.obj
 0002:00025200       ??$_Cons_val@V?$allocator@UTDevNameInfo@@@std@@UTDevNameInfo@@AAU3@@std@@YAXAAV?$allocator@UTDevNameInfo@@@0@PAUTDevNameInfo@@AAU2@@Z 10027200 f i audiointerfaceimp.obj
 0002:00025250       ??$_Cons_val@V?$allocator@UTDevNameInfo@@@std@@UTDevNameInfo@@ABU3@@std@@YAXAAV?$allocator@UTDevNameInfo@@@0@PAUTDevNameInfo@@ABU2@@Z 10027250 f i audiointerfaceimp.obj
 0002:000252a0       ??$_Move@PAUTDevNameInfo@@PAU1@@std@@YAPAUTDevNameInfo@@PAU1@00@Z 100272a0 f i audiointerfaceimp.obj
 0002:00025310       ??$_Umove@PAUTDevNameInfo@@@?$vector@UTDevNameInfo@@V?$allocator@UTDevNameInfo@@@std@@@std@@IAEPAUTDevNameInfo@@PAU2@00@Z 10027310 f i audiointerfaceimp.obj
 0002:00025370       ??$_Destroy_range@V?$allocator@UTDevNameInfo@@@std@@@std@@YAXPAUTDevNameInfo@@0AAV?$allocator@UTDevNameInfo@@@0@@Z 10027370 f i audiointerfaceimp.obj
 0002:000253e0       ??$_Allocate@UTDevNameInfo@@@std@@YAPAUTDevNameInfo@@IPAU1@@Z 100273e0 f i audiointerfaceimp.obj
 0002:00025470       ?construct@?$allocator@UTDevNameInfo@@@std@@QAEXPAUTDevNameInfo@@ABU3@@Z 10027470 f i audiointerfaceimp.obj
 0002:000254c0       ??$forward@AAUTDevNameInfo@@@std@@YAAAUTDevNameInfo@@AAU1@@Z 100274c0 f i audiointerfaceimp.obj
 0002:000254f0       ??$construct@AAUTDevNameInfo@@@?$allocator@UTDevNameInfo@@@std@@QAEXPAUTDevNameInfo@@AAU2@@Z 100274f0 f i audiointerfaceimp.obj
 0002:000255c0       ??$forward@ABUTDevNameInfo@@@std@@YAABUTDevNameInfo@@ABU1@@Z 100275c0 f i audiointerfaceimp.obj
 0002:000255f0       ??$_Ptr_cat@UTDevNameInfo@@U1@@std@@YA?AU_Nonscalar_ptr_iterator_tag@0@PAUTDevNameInfo@@0@Z 100275f0 f i audiointerfaceimp.obj
 0002:00025650       ??$_Move@PAUTDevNameInfo@@PAU1@@std@@YAPAUTDevNameInfo@@PAU1@00U_Nonscalar_ptr_iterator_tag@0@@Z 10027650 f i audiointerfaceimp.obj
 0002:000256c0       ??$_Uninitialized_move@PAUTDevNameInfo@@PAU1@V?$allocator@UTDevNameInfo@@@std@@@std@@YAPAUTDevNameInfo@@PAU1@00AAV?$allocator@UTDevNameInfo@@@0@@Z 100276c0 f i audiointerfaceimp.obj
 0002:00025740       ??$_Destroy_range@V?$allocator@UTDevNameInfo@@@std@@@std@@YAXPAUTDevNameInfo@@0AAV?$allocator@UTDevNameInfo@@@0@U_Nonscalar_ptr_iterator_tag@0@@Z 10027740 f i audiointerfaceimp.obj
 0002:000257a0       ??$_Construct@UTDevNameInfo@@ABU1@@std@@YAXPAUTDevNameInfo@@ABU1@@Z 100277a0 f i audiointerfaceimp.obj
 0002:00025870       ??$move@AAUTDevNameInfo@@@std@@YA$$QAUTDevNameInfo@@AAU1@@Z 10027870 f i audiointerfaceimp.obj
 0002:000258a0       ??$_Val_type@PAUTDevNameInfo@@@std@@YAPAUTDevNameInfo@@PAU1@@Z 100278a0 f i audiointerfaceimp.obj
 0002:000258d0       ??$_Uninit_move@PAUTDevNameInfo@@PAU1@V?$allocator@UTDevNameInfo@@@std@@U1@@std@@YAPAUTDevNameInfo@@PAU1@00AAV?$allocator@UTDevNameInfo@@@0@0U_Nonscalar_ptr_iterator_tag@0@@Z 100278d0 f i audiointerfaceimp.obj
 0002:000259c0       ??$_Dest_val@V?$allocator@UTDevNameInfo@@@std@@UTDevNameInfo@@@std@@YAXAAV?$allocator@UTDevNameInfo@@@0@PAUTDevNameInfo@@@Z 100279c0 f i audiointerfaceimp.obj
 0002:00025a00       ?destroy@?$allocator@UTDevNameInfo@@@std@@QAEXPAUTDevNameInfo@@@Z 10027a00 f i audiointerfaceimp.obj
 0002:00025a50       ??$_Cons_val@V?$allocator@UTDevNameInfo@@@std@@UTDevNameInfo@@U3@@std@@YAXAAV?$allocator@UTDevNameInfo@@@0@PAUTDevNameInfo@@$$QAU2@@Z 10027a50 f i audiointerfaceimp.obj
 0002:00025aa0       ??$_Destroy@UTDevNameInfo@@@std@@YAXPAUTDevNameInfo@@@Z 10027aa0 f i audiointerfaceimp.obj
 0002:00025ad0       ?construct@?$allocator@UTDevNameInfo@@@std@@QAEXPAUTDevNameInfo@@$$QAU3@@Z 10027ad0 f i audiointerfaceimp.obj
 0002:00025ba0       ??$forward@UTDevNameInfo@@@std@@YA$$QAUTDevNameInfo@@AAU1@@Z 10027ba0 f i audiointerfaceimp.obj
 0002:00025bd0       ?SetPlayParam@CAudioPlayWasapi@@UAEHABUtagAudioPlayParam@@@Z 10027bd0 f   audioplaywasapi.obj
 0002:00025ef0       ?GetAudDevideName@@YAIPAUIMMDeviceCollection@@GQA_W1@Z 10027ef0 f   audioplaywasapi.obj
 0002:000261b0       ?GetNumAudDevice@@YAIEPAUIMMDeviceEnumerator@@@Z 100281b0 f   audioplaywasapi.obj
 0002:000263d0       ?GetNumPlayDevices@CAudioPlayWasapi@@UAEIXZ 100283d0 f   audioplaywasapi.obj
 0002:00026420       ?GetNamePlayDevices@CAudioPlayWasapi@@UAEIGQA_W0@Z 10028420 f   audioplaywasapi.obj
 0002:000265b0       ?StartPlay@CAudioPlayWasapi@@UAEHH@Z 100285b0 f   audioplaywasapi.obj
 0002:000267d0       ?GetPlayoutBufferDelay@CAudioPlayWasapi@@UAEHAAI0@Z 100287d0 f   audioplaywasapi.obj
 0002:00026800       ??0CAudioPlayWasapi@@QAE@XZ 10028800 f   audioplaywasapi.obj
 0002:00026970       ??0CAudioPlayCom@@QAE@XZ   10028970 f i audioplaywasapi.obj
 0002:00026a10       ??1CAudioPlayCom@@UAE@XZ   10028a10 f i audioplaywasapi.obj
 0002:00026a50       ??_ECAudioPlayCom@@UAEPAXI@Z 10028a50 f i audioplaywasapi.obj
 0002:00026a50       ??_GCAudioPlayCom@@UAEPAXI@Z 10028a50 f i audioplaywasapi.obj
 0002:00026ab0       ??_ECAudioPlayWasapi@@UAEPAXI@Z 10028ab0 f i audioplaywasapi.obj
 0002:00026ab0       ??_GCAudioPlayWasapi@@UAEPAXI@Z 10028ab0 f i audioplaywasapi.obj
 0002:00026b10       ??1CAudioPlayWasapi@@UAE@XZ 10028b10 f   audioplaywasapi.obj
 0002:00026d20       ?InitialPlayThread@CAudioPlayWasapi@@IAEGXZ 10028d20 f   audioplaywasapi.obj
 0002:00026e30       ?RealStartWork@CAudioPlayWasapi@@IAEGXZ 10028e30 f   audioplaywasapi.obj
 0002:000278a0       ?SetAudCapInst@CAudioPlayWasapi@@UAEXPAX@Z 100298a0 f   audioplaywasapi.obj
 0002:000278d0       ?RealTaskProcess@CAudioPlayWasapi@@UAEXI@Z 100298d0 f   audioplaywasapi.obj
 0002:00027bf0       ?TestWasApiPly@@YAHXZ      10029bf0 f   audioplaywasapi.obj
 0002:00027db0       ?CreateWasapiOutputDevice@@YAPAVCAudioPlayCom@@XZ 10029db0 f   audioplaywasapi.obj
 0002:00027e70       ??C?$CAutoComInterfacePtr@UIMMDeviceCollection@@@@QBEPAUIMMDeviceCollection@@XZ 10029e70 f i audioplaywasapi.obj
 0002:00027ea0       ??0?$CAutoComInterfacePtr@UIMMDevice@@@@QAE@PAUIMMDevice@@@Z 10029ea0 f i audioplaywasapi.obj
 0002:00027ee0       ??1?$CAutoComInterfacePtr@UIMMDevice@@@@QAE@XZ 10029ee0 f i audioplaywasapi.obj
 0002:00027f50       ??I?$CAutoComInterfacePtr@UIMMDevice@@@@QAEPAPAUIMMDevice@@XZ 10029f50 f i audioplaywasapi.obj
 0002:00027f80       ??C?$CAutoComInterfacePtr@UIMMDevice@@@@QBEPAUIMMDevice@@XZ 10029f80 f i audioplaywasapi.obj
 0002:00027fb0       ??I?$CAutoComInterfacePtr@UIPropertyStore@@@@QAEPAPAUIPropertyStore@@XZ 10029fb0 f i audioplaywasapi.obj
 0002:00027fe0       ??_ECAudioPlayWasapi@@WCE@AEPAXI@Z 10029fe0 f i audioplaywasapi.obj
 0002:00027ff0       ?TraceWaveOutError@@YAXI@Z 10029ff0 f   audioplaywav.obj
 0002:000280b0       ?SetPlayParam@CAudioPlayWav@@UAEHABUtagAudioPlayParam@@@Z 1002a0b0 f   audioplaywav.obj
 0002:00028260       ?GetNumPlayDevices@CAudioPlayWav@@UAEIXZ 1002a260 f   audioplaywav.obj
 0002:000282b0       ?GetNamePlayDevices@CAudioPlayWav@@UAEIGQA_W0@Z 1002a2b0 f   audioplaywav.obj
 0002:000285c0       ?StartPlay@CAudioPlayWav@@UAEHH@Z 1002a5c0 f   audioplaywav.obj
 0002:00028cc0       ?InitPlayThread@CAudioPlayWav@@QAEHXZ 1002acc0 f   audioplaywav.obj
 0002:00028de0       ?RealTaskProcess@CAudioPlayWav@@UAEXI@Z 1002ade0 f   audioplaywav.obj
 0002:00029230       ??0CAudioPlayWav@@QAE@XZ   1002b230 f   audioplaywav.obj
 0002:00029470       ?SetAudCapInst@CAudioPlayWav@@UAEXPAX@Z 1002b470 f i audioplaywav.obj
 0002:000294b0       ??_GCAudioPlayWav@@UAEPAXI@Z 1002b4b0 f i audioplaywav.obj
 0002:000294b0       ??_ECAudioPlayWav@@UAEPAXI@Z 1002b4b0 f i audioplaywav.obj
 0002:00029510       ??1CAudioPlayWav@@UAE@XZ   1002b510 f   audioplaywav.obj
 0002:00029700       ?PreparePlayBuffer@CAudioPlayWav@@IAEHXZ 1002b700 f   audioplaywav.obj
 0002:000298d0       ?WriteToDriver@CAudioPlayWav@@IAEHPAEI@Z 1002b8d0 f   audioplaywav.obj
 0002:00029a20       ?GetPlayoutBufferDelay@CAudioPlayWav@@UAEHAAI0@Z 1002ba20 f   audioplaywav.obj
 0002:0002a120       ?PlayProc@CAudioPlayWav@@QAEXAA_J@Z 1002c120 f   audioplaywav.obj
 0002:0002a700       ?CreateWavOutDevice@@YAPAVCAudioPlayCom@@XZ 1002c700 f   audioplaywav.obj
 0002:0002a7c0       ??_ECAudioPlayWav@@WCE@AEPAXI@Z 1002c7c0 f i audioplaywav.obj
 0002:0002a7d0       ?PrintKdvProcErr@@YAXHPADPAX@Z 1002c7d0 f   audioprocess.obj
 0002:0002aae0       _UnInitKdvFunc             1002cae0 f   audioprocess.obj
 0002:0002ab40       ??0CPcmFileSaver@@QAE@XZ   1002cb40 f   audioprocess.obj
 0002:0002abe0       ??_GCPcmFileSaver@@UAEPAXI@Z 1002cbe0 f i audioprocess.obj
 0002:0002abe0       ??_ECPcmFileSaver@@UAEPAXI@Z 1002cbe0 f i audioprocess.obj
 0002:0002ac40       ?SaveInPcm@CPcmFileSaver@@QAEXHIPAD@Z 1002cc40 f   audioprocess.obj
 0002:0002ad00       ?WritePcm@CPcmFileSaver@@QAEXHPBEI@Z 1002cd00 f   audioprocess.obj
 0002:0002ad70       ??1CPcmFileSaver@@UAE@XZ   1002cd70 f   audioprocess.obj
 0002:0002ae00       ?SetParam@CKdvPcmResampler@@UAEGABUtagAudioPcmResampParam@@@Z 1002ce00 f   audioprocess.obj
 0002:0002b140       ?ProcessAudioPcm@CKdvPcmResampler@@UAEGPBEIPAEAAI@Z 1002d140 f   audioprocess.obj
 0002:0002b360       ??0CKdvPcmResampler@@QAE@XZ 1002d360 f   audioprocess.obj
 0002:0002b450       ??0CAudioPcmResampler@@QAE@XZ 1002d450 f i audioprocess.obj
 0002:0002b4b0       ??1CAudioPcmResampler@@UAE@XZ 1002d4b0 f i audioprocess.obj
 0002:0002b4f0       ?GetParam@CAudioPcmResampler@@UAEGAAUtagAudioPcmResampParam@@@Z 1002d4f0 f i audioprocess.obj
 0002:0002b530       ??_ECAudioPcmResampler@@UAEPAXI@Z 1002d530 f i audioprocess.obj
 0002:0002b530       ??_GCAudioPcmResampler@@UAEPAXI@Z 1002d530 f i audioprocess.obj
 0002:0002b6e0       ??_GCKdvPcmResampler@@UAEPAXI@Z 1002d6e0 f i audioprocess.obj
 0002:0002b6e0       ??_ECKdvPcmResampler@@UAEPAXI@Z 1002d6e0 f i audioprocess.obj
 0002:0002b740       ??1CKdvPcmResampler@@UAE@XZ 1002d740 f   audioprocess.obj
 0002:0002b800       ?Destroy@CKdvPcmResampler@@UAEGXZ 1002d800 f   audioprocess.obj
 0002:0002b880       ?SavePcm@CKdvPcmResampler@@UAEGII@Z 1002d880 f   audioprocess.obj
 0002:0002ba00       ?CalAudioPower@CKdvPcmResampler@@UAEGPAEEEI@Z 1002da00 f   audioprocess.obj
 0002:0002bbe0       ?SetVolume@CKdvPcmResampler@@UAEGE@Z 1002dbe0 f   audioprocess.obj
 0002:0002bca0       ?Create@CAudioPcmResampler@@SAPAV1@XZ 1002dca0 f   audioprocess.obj
 0002:0002bd60       ??0CAudioAecCom@@QAE@XZ    1002dd60 f i audioprocess.obj
 0002:0002bda0       ??1CAudioAecCom@@UAE@XZ    1002dda0 f i audioprocess.obj
 0002:0002be20       ?GetParam@CAudioAecCom@@UAEGAAUtagAecComParam@@@Z 1002de20 f i audioprocess.obj
 0002:0002be70       ?GetControl@CAudioAecCom@@UAEGAAUtagAecComCtrl@@@Z 1002de70 f i audioprocess.obj
 0002:0002bec0       ?GetAecStatus@CAudioAecCom@@UAEGAAUtagAecComStatus@@@Z 1002dec0 f i audioprocess.obj
 0002:0002bf00       ??_ECAudioAecCom@@UAEPAXI@Z 1002df00 f i audioprocess.obj
 0002:0002bf00       ??_GCAudioAecCom@@UAEPAXI@Z 1002df00 f i audioprocess.obj
 0002:0002bf60       ??0CWebRtcAecCom@@QAE@XZ   1002df60 f   audioprocess.obj
 0002:0002c050       ??_ECWebRtcAecCom@@UAEPAXI@Z 1002e050 f i audioprocess.obj
 0002:0002c050       ??_GCWebRtcAecCom@@UAEPAXI@Z 1002e050 f i audioprocess.obj
 0002:0002c0b0       ??1CWebRtcAecCom@@UAE@XZ   1002e0b0 f   audioprocess.obj
 0002:0002c160       ?SetParam@CWebRtcAecCom@@UAEGABUtagAecComParam@@@Z 1002e160 f   audioprocess.obj
 0002:0002c730       ?SetControl@CWebRtcAecCom@@UAEGW4enAecCtrlID@@ABUtagAecComCtrl@@@Z 1002e730 f   audioprocess.obj
 0002:0002ca40       ?ProcessAudioPcm@CWebRtcAecCom@@UAEGPAEI0I@Z 1002ea40 f   audioprocess.obj
 0002:0002cda0       ?SetRefSig@CWebRtcAecCom@@UAEGPAEI@Z 1002eda0 f   audioprocess.obj
 0002:0002cef0       ?SavePcm@CWebRtcAecCom@@UAEGII@Z 1002eef0 f   audioprocess.obj
 0002:0002d060       ?Destroy@CWebRtcAecCom@@UAEGXZ 1002f060 f   audioprocess.obj
 0002:0002d170       ??_GCAudioProcWrapper@@QAEPAXI@Z 1002f170 f i audioprocess.obj
 0002:0002d1e0       ?Create@CAudioAecCom@@SAPAV1@XZ 1002f1e0 f   audioprocess.obj
 0002:0002d2a0       ?Create@CMixer@@SAPAV1@XZ  1002f2a0 f   audioprocess.obj
 0002:0002d360       ??0CAudioMixer@@QAE@XZ     1002f360 f   audioprocess.obj
 0002:0002d3c0       ??0CMixer@@QAE@XZ          1002f3c0 f i audioprocess.obj
 0002:0002d400       ??_ECMixer@@UAEPAXI@Z      1002f400 f i audioprocess.obj
 0002:0002d400       ??_GCMixer@@UAEPAXI@Z      1002f400 f i audioprocess.obj
 0002:0002d460       ??1CMixer@@UAE@XZ          1002f460 f i audioprocess.obj
 0002:0002d4a0       ??_GCAudioMixer@@UAEPAXI@Z 1002f4a0 f i audioprocess.obj
 0002:0002d4a0       ??_ECAudioMixer@@UAEPAXI@Z 1002f4a0 f i audioprocess.obj
 0002:0002d500       ??1CAudioMixer@@UAE@XZ     1002f500 f   audioprocess.obj
 0002:0002d550       ?SetVolume@CAudioMixer@@UAEHPA_WW4emMixerDeice@CMixer@@I@Z 1002f550 f   audioprocess.obj
 0002:0002dac0       ?GetVolume@CAudioMixer@@UAEHPA_WW4emMixerDeice@CMixer@@AAI@Z 1002fac0 f   audioprocess.obj
 0002:0002e000       ?GetVolumeControl@CAudioMixer@@AAEHPAUHMIXER__@@IIPAUtagMIXERCONTROLW@@@Z 10030000 f   audioprocess.obj
 0002:0002e0c0       ?SetVolumeValue@CAudioMixer@@AAEHPAUHMIXER__@@PAUtagMIXERCONTROLW@@I@Z 100300c0 f   audioprocess.obj
 0002:0002e1a0       ?GetVolumeValue@CAudioMixer@@AAEHPAUHMIXER__@@PAUtagMIXERCONTROLW@@AAI@Z 100301a0 f   audioprocess.obj
 0002:0002e280       ??_ECWebRtcAecCom@@WEI@AEPAXI@Z 10030280 f i audioprocess.obj
 0002:0002e290       ??_ECKdvPcmResampler@@WCI@AEPAXI@Z 10030290 f i audioprocess.obj
 0002:0002e2a0       ??0CWaveLoopBuf@@QAE@XZ    100302a0 f   drawpcm.obj
 0002:0002e320       ??1CWaveLoopBuf@@QAE@XZ    10030320 f   drawpcm.obj
 0002:0002e370       ?LoopBuf_init@CWaveLoopBuf@@QAEHPAEI@Z 10030370 f   drawpcm.obj
 0002:0002e3e0       ?LoopBuf_put@CWaveLoopBuf@@QAEIPAEI@Z 100303e0 f   drawpcm.obj
 0002:0002e530       ?LoopBuf_MoveReadPrt@CWaveLoopBuf@@QAEII@Z 10030530 f   drawpcm.obj
 0002:0002e5f0       ?LoopBuf_GetCurReadPrt@CWaveLoopBuf@@QAEPAEAAI@Z 100305f0 f   drawpcm.obj
 0002:0002e6a0       ?LineSamples@@YAIPAFIIIIPAUHDC__@@II@Z 100306a0 f   drawpcm.obj
 0002:0002e830       ?DrawPcm@@YAXEPAFI0I@Z     10030830 f   drawpcm.obj
 0002:0002ea90       _drawpcmhwnd               10030a90 f   drawpcm.obj
 0002:0002ec00       _deletallpcmwnd            10030c00 f   drawpcm.obj
 0002:0002edc0       ??_GCWaveLoopBuf@@QAEPAXI@Z 10030dc0 f i drawpcm.obj
 0002:0002ee20       _pcmwave                   10030e20 f   drawpcm.obj
 0002:0002ef70       ?LoopBuf_len@CWaveLoopBuf@@QAEIXZ 10030f70 f i drawpcm.obj
 0002:0002efe0       ??0CKdvAsfRecordMan@@QAE@XZ 10030fe0 f   kdvasfrecordman.obj
 0002:0002f0f0       ?StartRecorder@CKdvAsfRecordMan@@QAEGPA_W0HH@Z 100310f0 f   kdvasfrecordman.obj
 0002:0002f840       ?AddOneStream@CKdvAsfRecordMan@@QAEGIIIE@Z 10031840 f   kdvasfrecordman.obj
 0002:00030090       ?StopRecorder@CKdvAsfRecordMan@@QAEGH@Z 10032090 f   kdvasfrecordman.obj
 0002:00030270       ?PauseRecorder@CKdvAsfRecordMan@@QAEGXZ 10032270 f   kdvasfrecordman.obj
 0002:00030340       ?ResumeRecorder@CKdvAsfRecordMan@@QAEGXZ 10032340 f   kdvasfrecordman.obj
 0002:00030460       ?WriteData@CKdvAsfRecordMan@@QAEGEPAEIHI@Z 10032460 f   kdvasfrecordman.obj
 0002:000305a0       ?GetRecorderFile@CKdvAsfRecordMan@@QAEHPA_WH@Z 100325a0 f   kdvasfrecordman.obj
 0002:00030700       ?MyGetDiskFreeSpaceEx@?A0x3a4b894d@@YAHPB_WAA_J@Z 10032700 f   mcdiskcheck.obj
 0002:00030890       ?DiskCheck_PollEvent@?A0x3a4b894d@@YAXXZ 10032890 f   mcdiskcheck.obj
 0002:00030af0       ?DiskCheck_PollEventTimerProc@?A0x3a4b894d@@YGXIIKKK@Z 10032af0 f   mcdiskcheck.obj
 0002:00030b30       ?DiskCheck_StartPollEvent@?A0x3a4b894d@@YAXXZ 10032b30 f   mcdiskcheck.obj
 0002:00030c00       ?DiskCheck_StopPollEvent@?A0x3a4b894d@@YAXXZ 10032c00 f   mcdiskcheck.obj
 0002:00030cc0       ?GetDrive@@YAHPB_WAAY0BAA@_W@Z 10032cc0 f   mcdiskcheck.obj
 0002:00030d70       ?DiskCheck_RegisterCallback@@YAXPB_WP6AX0_J@Z@Z 10032d70 f   mcdiskcheck.obj
 0002:00031020       ??1?$set@P6AXPB_W_J@ZU?$less@P6AXPB_W_J@Z@std@@V?$allocator@P6AXPB_W_J@Z@2@@std@@QAE@XZ 10033020 f i mcdiskcheck.obj
 0002:00031060       ??1?$pair@V?$basic_string@_WU?$char_traits@_W@std@@V?$allocator@_W@2@@std@@V?$set@P6AXPB_W_J@ZU?$less@P6AXPB_W_J@Z@std@@V?$allocator@P6AXPB_W_J@Z@2@@2@@std@@QAE@XZ 10033060 f i mcdiskcheck.obj
 0002:000310a0       ??1?$_Pair_base@V?$basic_string@_WU?$char_traits@_W@std@@V?$allocator@_W@2@@std@@V?$set@P6AXPB_W_J@ZU?$less@P6AXPB_W_J@Z@std@@V?$allocator@P6AXPB_W_J@Z@2@@2@@std@@QAE@XZ 100330a0 f i mcdiskcheck.obj
 0002:00031130       ?DiskCheck_UnregisterCallback@@YAXP6AXPB_W_J@Z@Z 10033130 f   mcdiskcheck.obj
 0002:00031320       ??0?$basic_string@_WU?$char_traits@_W@std@@V?$allocator@_W@2@@std@@QAE@PB_W@Z 10033320 f i mcdiskcheck.obj
 0002:000313d0       ?begin@?$_Tree@V?$_Tmap_traits@V?$basic_string@_WU?$char_traits@_W@std@@V?$allocator@_W@2@@std@@V?$set@P6AXPB_W_J@ZU?$less@P6AXPB_W_J@Z@std@@V?$allocator@P6AXPB_W_J@Z@2@@2@U?$less@V?$basic_string@_WU?$char_traits@_W@std@@V?$allocator@_W@2@@std@@@2@V?$allocator@U?$pair@$$CBV?$basic_string@_WU?$char_traits@_W@std@@V?$allocator@_W@2@@std@@V?$set@P6AXPB_W_J@ZU?$less@P6AXPB_W_J@Z@std@@V?$allocator@P6AXPB_W_J@Z@2@@2@@std@@@2@$0A@@std@@@std@@QAE?AV?$_Tree_iterator@V?$_Tree_val@V?$_Tmap_traits@V?$basic_string@_WU?$char_traits@_W@std@@V?$allocator@_W@2@@std@@V?$set@P6AXPB_W_J@ZU?$less@P6AXPB_W_J@Z@std@@V?$allocator@P6AXPB_W_J@Z@2@@2@U?$less@V?$basic_string@_WU?$char_traits@_W@std@@V?$allocator@_W@2@@std@@@2@V?$allocator@U?$pair@$$CBV?$basic_string@_WU?$char_traits@_W@std@@V?$allocator@_W@2@@std@@V?$set@P6AXPB_W_J@ZU?$less@P6AXPB_W_J@Z@std@@V?$allocator@P6AXPB_W_J@Z@2@@2@@std@@@2@$0A@@std@@@std@@@2@XZ 100333d0 f i mcdiskcheck.obj
 0002:00031430       ?end@?$_Tree@V?$_Tmap_traits@V?$basic_string@_WU?$char_traits@_W@std@@V?$allocator@_W@2@@std@@V?$set@P6AXPB_W_J@ZU?$less@P6AXPB_W_J@Z@std@@V?$allocator@P6AXPB_W_J@Z@2@@2@U?$less@V?$basic_string@_WU?$char_traits@_W@std@@V?$allocator@_W@2@@std@@@2@V?$allocator@U?$pair@$$CBV?$basic_string@_WU?$char_traits@_W@std@@V?$allocator@_W@2@@std@@V?$set@P6AXPB_W_J@ZU?$less@P6AXPB_W_J@Z@std@@V?$allocator@P6AXPB_W_J@Z@2@@2@@std@@@2@$0A@@std@@@std@@QAE?AV?$_Tree_iterator@V?$_Tree_val@V?$_Tmap_traits@V?$basic_string@_WU?$char_traits@_W@std@@V?$allocator@_W@2@@std@@V?$set@P6AXPB_W_J@ZU?$less@P6AXPB_W_J@Z@std@@V?$allocator@P6AXPB_W_J@Z@2@@2@U?$less@V?$basic_string@_WU?$char_traits@_W@std@@V?$allocator@_W@2@@std@@@2@V?$allocator@U?$pair@$$CBV?$basic_string@_WU?$char_traits@_W@std@@V?$allocator@_W@2@@std@@V?$set@P6AXPB_W_J@ZU?$less@P6AXPB_W_J@Z@std@@V?$allocator@P6AXPB_W_J@Z@2@@2@@std@@@2@$0A@@std@@@std@@@2@XZ 10033430 f i mcdiskcheck.obj
 0002:00031480       ?empty@?$_Tree@V?$_Tmap_traits@V?$basic_string@_WU?$char_traits@_W@std@@V?$allocator@_W@2@@std@@V?$set@P6AXPB_W_J@ZU?$less@P6AXPB_W_J@Z@std@@V?$allocator@P6AXPB_W_J@Z@2@@2@U?$less@V?$basic_string@_WU?$char_traits@_W@std@@V?$allocator@_W@2@@std@@@2@V?$allocator@U?$pair@$$CBV?$basic_string@_WU?$char_traits@_W@std@@V?$allocator@_W@2@@std@@V?$set@P6AXPB_W_J@ZU?$less@P6AXPB_W_J@Z@std@@V?$allocator@P6AXPB_W_J@Z@2@@2@@std@@@2@$0A@@std@@@std@@QBE_NXZ 10033480 f i mcdiskcheck.obj
 0002:000314d0       ?erase@?$_Tree@V?$_Tmap_traits@V?$basic_string@_WU?$char_traits@_W@std@@V?$allocator@_W@2@@std@@V?$set@P6AXPB_W_J@ZU?$less@P6AXPB_W_J@Z@std@@V?$allocator@P6AXPB_W_J@Z@2@@2@U?$less@V?$basic_string@_WU?$char_traits@_W@std@@V?$allocator@_W@2@@std@@@2@V?$allocator@U?$pair@$$CBV?$basic_string@_WU?$char_traits@_W@std@@V?$allocator@_W@2@@std@@V?$set@P6AXPB_W_J@ZU?$less@P6AXPB_W_J@Z@std@@V?$allocator@P6AXPB_W_J@Z@2@@2@@std@@@2@$0A@@std@@@std@@QAE?AV?$_Tree_iterator@V?$_Tree_val@V?$_Tmap_traits@V?$basic_string@_WU?$char_traits@_W@std@@V?$allocator@_W@2@@std@@V?$set@P6AXPB_W_J@ZU?$less@P6AXPB_W_J@Z@std@@V?$allocator@P6AXPB_W_J@Z@2@@2@U?$less@V?$basic_string@_WU?$char_traits@_W@std@@V?$allocator@_W@2@@std@@@2@V?$allocator@U?$pair@$$CBV?$basic_string@_WU?$char_traits@_W@std@@V?$allocator@_W@2@@std@@V?$set@P6AXPB_W_J@ZU?$less@P6AXPB_W_J@Z@std@@V?$allocator@P6AXPB_W_J@Z@2@@2@@std@@@2@$0A@@std@@@std@@@2@V?$_Tree_const_iterator@V?$_Tree_val@V?$_Tmap_traits@V?$basic_string@_WU?$char_traits@_W@std@@V?$allocator@_W@2@@std@@V?$set@P6AXPB_W_J@ZU?$less@P6AXPB_W_J@Z@std@@V?$allocator@P6AXPB_W_J@Z@2@@2@U?$less@V?$basic_string@_WU?$char_traits@_W@std@@V?$allocator@_W@2@@std@@@2@V?$allocator@U?$pair@$$CBV?$basic_string@_WU?$char_traits@_W@std@@V?$allocator@_W@2@@std@@V?$set@P6AXPB_W_J@ZU?$less@P6AXPB_W_J@Z@std@@V?$allocator@P6AXPB_W_J@Z@2@@2@@std@@@2@$0A@@std@@@std@@@2@@Z 100334d0 f i mcdiskcheck.obj
 0002:00031ca0       ?find@?$_Tree@V?$_Tmap_traits@V?$basic_string@_WU?$char_traits@_W@std@@V?$allocator@_W@2@@std@@V?$set@P6AXPB_W_J@ZU?$less@P6AXPB_W_J@Z@std@@V?$allocator@P6AXPB_W_J@Z@2@@2@U?$less@V?$basic_string@_WU?$char_traits@_W@std@@V?$allocator@_W@2@@std@@@2@V?$allocator@U?$pair@$$CBV?$basic_string@_WU?$char_traits@_W@std@@V?$allocator@_W@2@@std@@V?$set@P6AXPB_W_J@ZU?$less@P6AXPB_W_J@Z@std@@V?$allocator@P6AXPB_W_J@Z@2@@2@@std@@@2@$0A@@std@@@std@@QAE?AV?$_Tree_iterator@V?$_Tree_val@V?$_Tmap_traits@V?$basic_string@_WU?$char_traits@_W@std@@V?$allocator@_W@2@@std@@V?$set@P6AXPB_W_J@ZU?$less@P6AXPB_W_J@Z@std@@V?$allocator@P6AXPB_W_J@Z@2@@2@U?$less@V?$basic_string@_WU?$char_traits@_W@std@@V?$allocator@_W@2@@std@@@2@V?$allocator@U?$pair@$$CBV?$basic_string@_WU?$char_traits@_W@std@@V?$allocator@_W@2@@std@@V?$set@P6AXPB_W_J@ZU?$less@P6AXPB_W_J@Z@std@@V?$allocator@P6AXPB_W_J@Z@2@@2@@std@@@2@$0A@@std@@@std@@@2@ABV?$basic_string@_WU?$char_traits@_W@std@@V?$allocator@_W@2@@2@@Z 10033ca0 f i mcdiskcheck.obj
 0002:00031da0       ??0?$CAutoReleaseLockAcquisition@VCThreadSafeLock@@@@QAE@AAVCThreadSafeLock@@PBD1H@Z 10033da0 f i mcdiskcheck.obj
 0002:00031e00       ??1?$CAutoReleaseLockAcquisition@VCThreadSafeLock@@@@QAE@XZ 10033e00 f i mcdiskcheck.obj
 0002:00031e50       ??C?$_Tree_iterator@V?$_Tree_val@V?$_Tmap_traits@V?$basic_string@_WU?$char_traits@_W@std@@V?$allocator@_W@2@@std@@V?$set@P6AXPB_W_J@ZU?$less@P6AXPB_W_J@Z@std@@V?$allocator@P6AXPB_W_J@Z@2@@2@U?$less@V?$basic_string@_WU?$char_traits@_W@std@@V?$allocator@_W@2@@std@@@2@V?$allocator@U?$pair@$$CBV?$basic_string@_WU?$char_traits@_W@std@@V?$allocator@_W@2@@std@@V?$set@P6AXPB_W_J@ZU?$less@P6AXPB_W_J@Z@std@@V?$allocator@P6AXPB_W_J@Z@2@@2@@std@@@2@$0A@@std@@@std@@@std@@QBEPAU?$pair@$$CBV?$basic_string@_WU?$char_traits@_W@std@@V?$allocator@_W@2@@std@@V?$set@P6AXPB_W_J@ZU?$less@P6AXPB_W_J@Z@std@@V?$allocator@P6AXPB_W_J@Z@2@@2@@1@XZ 10033e50 f i mcdiskcheck.obj
 0002:00031e90       ??E?$_Tree_iterator@V?$_Tree_val@V?$_Tmap_traits@V?$basic_string@_WU?$char_traits@_W@std@@V?$allocator@_W@2@@std@@V?$set@P6AXPB_W_J@ZU?$less@P6AXPB_W_J@Z@std@@V?$allocator@P6AXPB_W_J@Z@2@@2@U?$less@V?$basic_string@_WU?$char_traits@_W@std@@V?$allocator@_W@2@@std@@@2@V?$allocator@U?$pair@$$CBV?$basic_string@_WU?$char_traits@_W@std@@V?$allocator@_W@2@@std@@V?$set@P6AXPB_W_J@ZU?$less@P6AXPB_W_J@Z@std@@V?$allocator@P6AXPB_W_J@Z@2@@2@@std@@@2@$0A@@std@@@std@@@std@@QAEAAV01@XZ 10033e90 f i mcdiskcheck.obj
 0002:00031ee0       ??8?$_Tree_const_iterator@V?$_Tree_val@V?$_Tmap_traits@V?$basic_string@_WU?$char_traits@_W@std@@V?$allocator@_W@2@@std@@V?$set@P6AXPB_W_J@ZU?$less@P6AXPB_W_J@Z@std@@V?$allocator@P6AXPB_W_J@Z@2@@2@U?$less@V?$basic_string@_WU?$char_traits@_W@std@@V?$allocator@_W@2@@std@@@2@V?$allocator@U?$pair@$$CBV?$basic_string@_WU?$char_traits@_W@std@@V?$allocator@_W@2@@std@@V?$set@P6AXPB_W_J@ZU?$less@P6AXPB_W_J@Z@std@@V?$allocator@P6AXPB_W_J@Z@2@@2@@std@@@2@$0A@@std@@@std@@@std@@QBE_NABV01@@Z 10033ee0 f i mcdiskcheck.obj
 0002:00031f20       ??9?$_Tree_const_iterator@V?$_Tree_val@V?$_Tmap_traits@V?$basic_string@_WU?$char_traits@_W@std@@V?$allocator@_W@2@@std@@V?$set@P6AXPB_W_J@ZU?$less@P6AXPB_W_J@Z@std@@V?$allocator@P6AXPB_W_J@Z@2@@2@U?$less@V?$basic_string@_WU?$char_traits@_W@std@@V?$allocator@_W@2@@std@@@2@V?$allocator@U?$pair@$$CBV?$basic_string@_WU?$char_traits@_W@std@@V?$allocator@_W@2@@std@@V?$set@P6AXPB_W_J@ZU?$less@P6AXPB_W_J@Z@std@@V?$allocator@P6AXPB_W_J@Z@2@@2@@std@@@2@$0A@@std@@@std@@@std@@QBE_NABV01@@Z 10033f20 f i mcdiskcheck.obj
 0002:00031f70       ??0?$set@P6AXPB_W_J@ZU?$less@P6AXPB_W_J@Z@std@@V?$allocator@P6AXPB_W_J@Z@2@@std@@QAE@XZ 10033f70 f i mcdiskcheck.obj
 0002:00031fe0       ??1?$_Tree@V?$_Tset_traits@P6AXPB_W_J@ZU?$less@P6AXPB_W_J@Z@std@@V?$allocator@P6AXPB_W_J@Z@2@$0A@@std@@@std@@QAE@XZ 10033fe0 f i mcdiskcheck.obj
 0002:00032060       ?begin@?$_Tree@V?$_Tset_traits@P6AXPB_W_J@ZU?$less@P6AXPB_W_J@Z@std@@V?$allocator@P6AXPB_W_J@Z@2@$0A@@std@@@std@@QAE?AV?$_Tree_const_iterator@V?$_Tree_val@V?$_Tset_traits@P6AXPB_W_J@ZU?$less@P6AXPB_W_J@Z@std@@V?$allocator@P6AXPB_W_J@Z@2@$0A@@std@@@std@@@2@XZ 10034060 f i mcdiskcheck.obj
 0002:000320c0       ?end@?$_Tree@V?$_Tset_traits@P6AXPB_W_J@ZU?$less@P6AXPB_W_J@Z@std@@V?$allocator@P6AXPB_W_J@Z@2@$0A@@std@@@std@@QAE?AV?$_Tree_const_iterator@V?$_Tree_val@V?$_Tset_traits@P6AXPB_W_J@ZU?$less@P6AXPB_W_J@Z@std@@V?$allocator@P6AXPB_W_J@Z@2@$0A@@std@@@std@@@2@XZ 100340c0 f i mcdiskcheck.obj
 0002:00032110       ?empty@?$_Tree@V?$_Tset_traits@P6AXPB_W_J@ZU?$less@P6AXPB_W_J@Z@std@@V?$allocator@P6AXPB_W_J@Z@2@$0A@@std@@@std@@QBE_NXZ 10034110 f i mcdiskcheck.obj
 0002:00032160       ?erase@?$_Tree@V?$_Tset_traits@P6AXPB_W_J@ZU?$less@P6AXPB_W_J@Z@std@@V?$allocator@P6AXPB_W_J@Z@2@$0A@@std@@@std@@QAE?AV?$_Tree_const_iterator@V?$_Tree_val@V?$_Tset_traits@P6AXPB_W_J@ZU?$less@P6AXPB_W_J@Z@std@@V?$allocator@P6AXPB_W_J@Z@2@$0A@@std@@@std@@@2@V32@@Z 10034160 f i mcdiskcheck.obj
 0002:00032930       ?find@?$_Tree@V?$_Tset_traits@P6AXPB_W_J@ZU?$less@P6AXPB_W_J@Z@std@@V?$allocator@P6AXPB_W_J@Z@2@$0A@@std@@@std@@QAE?AV?$_Tree_const_iterator@V?$_Tree_val@V?$_Tset_traits@P6AXPB_W_J@ZU?$less@P6AXPB_W_J@Z@std@@V?$allocator@P6AXPB_W_J@Z@2@$0A@@std@@@std@@@2@ABQ6AXPB_W_J@Z@Z 10034930 f i mcdiskcheck.obj
 0002:00032a30       ??D?$_Tree_const_iterator@V?$_Tree_val@V?$_Tset_traits@P6AXPB_W_J@ZU?$less@P6AXPB_W_J@Z@std@@V?$allocator@P6AXPB_W_J@Z@2@$0A@@std@@@std@@@std@@QBEABQ6AXPB_W_J@ZXZ 10034a30 f i mcdiskcheck.obj
 0002:00032a80       ??E?$_Tree_const_iterator@V?$_Tree_val@V?$_Tset_traits@P6AXPB_W_J@ZU?$less@P6AXPB_W_J@Z@std@@V?$allocator@P6AXPB_W_J@Z@2@$0A@@std@@@std@@@std@@QAEAAV01@XZ 10034a80 f i mcdiskcheck.obj
 0002:00032ad0       ??9?$_Tree_const_iterator@V?$_Tree_val@V?$_Tset_traits@P6AXPB_W_J@ZU?$less@P6AXPB_W_J@Z@std@@V?$allocator@P6AXPB_W_J@Z@2@$0A@@std@@@std@@@std@@QBE_NABV01@@Z 10034ad0 f i mcdiskcheck.obj
 0002:00032b20       ??0?$CAutoAcquireLockEscape@VCThreadSafeLock@@@@QAE@AAVCThreadSafeLock@@PBD1H@Z 10034b20 f i mcdiskcheck.obj
 0002:00032bf0       ??1?$CAutoAcquireLockEscape@VCThreadSafeLock@@@@QAE@XZ 10034bf0 f i mcdiskcheck.obj
 0002:00032cb0       ?size@?$_Tree@V?$_Tmap_traits@V?$basic_string@_WU?$char_traits@_W@std@@V?$allocator@_W@2@@std@@V?$set@P6AXPB_W_J@ZU?$less@P6AXPB_W_J@Z@std@@V?$allocator@P6AXPB_W_J@Z@2@@2@U?$less@V?$basic_string@_WU?$char_traits@_W@std@@V?$allocator@_W@2@@std@@@2@V?$allocator@U?$pair@$$CBV?$basic_string@_WU?$char_traits@_W@std@@V?$allocator@_W@2@@std@@V?$set@P6AXPB_W_J@ZU?$less@P6AXPB_W_J@Z@std@@V?$allocator@P6AXPB_W_J@Z@2@@2@@std@@@2@$0A@@std@@@std@@QBEIXZ 10034cb0 f i mcdiskcheck.obj
 0002:00032ce0       ?lower_bound@?$_Tree@V?$_Tmap_traits@V?$basic_string@_WU?$char_traits@_W@std@@V?$allocator@_W@2@@std@@V?$set@P6AXPB_W_J@ZU?$less@P6AXPB_W_J@Z@std@@V?$allocator@P6AXPB_W_J@Z@2@@2@U?$less@V?$basic_string@_WU?$char_traits@_W@std@@V?$allocator@_W@2@@std@@@2@V?$allocator@U?$pair@$$CBV?$basic_string@_WU?$char_traits@_W@std@@V?$allocator@_W@2@@std@@V?$set@P6AXPB_W_J@ZU?$less@P6AXPB_W_J@Z@std@@V?$allocator@P6AXPB_W_J@Z@2@@2@@std@@@2@$0A@@std@@@std@@QAE?AV?$_Tree_iterator@V?$_Tree_val@V?$_Tmap_traits@V?$basic_string@_WU?$char_traits@_W@std@@V?$allocator@_W@2@@std@@V?$set@P6AXPB_W_J@ZU?$less@P6AXPB_W_J@Z@std@@V?$allocator@P6AXPB_W_J@Z@2@@2@U?$less@V?$basic_string@_WU?$char_traits@_W@std@@V?$allocator@_W@2@@std@@@2@V?$allocator@U?$pair@$$CBV?$basic_string@_WU?$char_traits@_W@std@@V?$allocator@_W@2@@std@@V?$set@P6AXPB_W_J@ZU?$less@P6AXPB_W_J@Z@std@@V?$allocator@P6AXPB_W_J@Z@2@@2@@std@@@2@$0A@@std@@@std@@@2@ABV?$basic_string@_WU?$char_traits@_W@std@@V?$allocator@_W@2@@2@@Z 10034ce0 f i mcdiskcheck.obj
 0002:00032d40       ?_Lmost@?$_Tree@V?$_Tmap_traits@V?$basic_string@_WU?$char_traits@_W@std@@V?$allocator@_W@2@@std@@V?$set@P6AXPB_W_J@ZU?$less@P6AXPB_W_J@Z@std@@V?$allocator@P6AXPB_W_J@Z@2@@2@U?$less@V?$basic_string@_WU?$char_traits@_W@std@@V?$allocator@_W@2@@std@@@2@V?$allocator@U?$pair@$$CBV?$basic_string@_WU?$char_traits@_W@std@@V?$allocator@_W@2@@std@@V?$set@P6AXPB_W_J@ZU?$less@P6AXPB_W_J@Z@std@@V?$allocator@P6AXPB_W_J@Z@2@@2@@std@@@2@$0A@@std@@@std@@IBEAAPAU_Node@?$_Tree_nod@V?$_Tmap_traits@V?$basic_string@_WU?$char_traits@_W@std@@V?$allocator@_W@2@@std@@V?$set@P6AXPB_W_J@ZU?$less@P6AXPB_W_J@Z@std@@V?$allocator@P6AXPB_W_J@Z@2@@2@U?$less@V?$basic_string@_WU?$char_traits@_W@std@@V?$allocator@_W@2@@std@@@2@V?$allocator@U?$pair@$$CBV?$basic_string@_WU?$char_traits@_W@std@@V?$allocator@_W@2@@std@@V?$set@P6AXPB_W_J@ZU?$less@P6AXPB_W_J@Z@std@@V?$allocator@P6AXPB_W_J@Z@2@@2@@std@@@2@$0A@@std@@@2@XZ 10034d40 f i mcdiskcheck.obj
 0002:00032d90       ?_Lrotate@?$_Tree@V?$_Tmap_traits@V?$basic_string@_WU?$char_traits@_W@std@@V?$allocator@_W@2@@std@@V?$set@P6AXPB_W_J@ZU?$less@P6AXPB_W_J@Z@std@@V?$allocator@P6AXPB_W_J@Z@2@@2@U?$less@V?$basic_string@_WU?$char_traits@_W@std@@V?$allocator@_W@2@@std@@@2@V?$allocator@U?$pair@$$CBV?$basic_string@_WU?$char_traits@_W@std@@V?$allocator@_W@2@@std@@V?$set@P6AXPB_W_J@ZU?$less@P6AXPB_W_J@Z@std@@V?$allocator@P6AXPB_W_J@Z@2@@2@@std@@@2@$0A@@std@@@std@@IAEXPAU_Node@?$_Tree_nod@V?$_Tmap_traits@V?$basic_string@_WU?$char_traits@_W@std@@V?$allocator@_W@2@@std@@V?$set@P6AXPB_W_J@ZU?$less@P6AXPB_W_J@Z@std@@V?$allocator@P6AXPB_W_J@Z@2@@2@U?$less@V?$basic_string@_WU?$char_traits@_W@std@@V?$allocator@_W@2@@std@@@2@V?$allocator@U?$pair@$$CBV?$basic_string@_WU?$char_traits@_W@std@@V?$allocator@_W@2@@std@@V?$set@P6AXPB_W_J@ZU?$less@P6AXPB_W_J@Z@std@@V?$allocator@P6AXPB_W_J@Z@2@@2@@std@@@2@$0A@@std@@@2@@Z 10034d90 f i mcdiskcheck.obj
 0002:00032ef0       ?_Rmost@?$_Tree@V?$_Tmap_traits@V?$basic_string@_WU?$char_traits@_W@std@@V?$allocator@_W@2@@std@@V?$set@P6AXPB_W_J@ZU?$less@P6AXPB_W_J@Z@std@@V?$allocator@P6AXPB_W_J@Z@2@@2@U?$less@V?$basic_string@_WU?$char_traits@_W@std@@V?$allocator@_W@2@@std@@@2@V?$allocator@U?$pair@$$CBV?$basic_string@_WU?$char_traits@_W@std@@V?$allocator@_W@2@@std@@V?$set@P6AXPB_W_J@ZU?$less@P6AXPB_W_J@Z@std@@V?$allocator@P6AXPB_W_J@Z@2@@2@@std@@@2@$0A@@std@@@std@@IBEAAPAU_Node@?$_Tree_nod@V?$_Tmap_traits@V?$basic_string@_WU?$char_traits@_W@std@@V?$allocator@_W@2@@std@@V?$set@P6AXPB_W_J@ZU?$less@P6AXPB_W_J@Z@std@@V?$allocator@P6AXPB_W_J@Z@2@@2@U?$less@V?$basic_string@_WU?$char_traits@_W@std@@V?$allocator@_W@2@@std@@@2@V?$allocator@U?$pair@$$CBV?$basic_string@_WU?$char_traits@_W@std@@V?$allocator@_W@2@@std@@V?$set@P6AXPB_W_J@ZU?$less@P6AXPB_W_J@Z@std@@V?$allocator@P6AXPB_W_J@Z@2@@2@@std@@@2@$0A@@std@@@2@XZ 10034ef0 f i mcdiskcheck.obj
 0002:00032f40       ?_Root@?$_Tree@V?$_Tmap_traits@V?$basic_string@_WU?$char_traits@_W@std@@V?$allocator@_W@2@@std@@V?$set@P6AXPB_W_J@ZU?$less@P6AXPB_W_J@Z@std@@V?$allocator@P6AXPB_W_J@Z@2@@2@U?$less@V?$basic_string@_WU?$char_traits@_W@std@@V?$allocator@_W@2@@std@@@2@V?$allocator@U?$pair@$$CBV?$basic_string@_WU?$char_traits@_W@std@@V?$allocator@_W@2@@std@@V?$set@P6AXPB_W_J@ZU?$less@P6AXPB_W_J@Z@std@@V?$allocator@P6AXPB_W_J@Z@2@@2@@std@@@2@$0A@@std@@@std@@IBEAAPAU_Node@?$_Tree_nod@V?$_Tmap_traits@V?$basic_string@_WU?$char_traits@_W@std@@V?$allocator@_W@2@@std@@V?$set@P6AXPB_W_J@ZU?$less@P6AXPB_W_J@Z@std@@V?$allocator@P6AXPB_W_J@Z@2@@2@U?$less@V?$basic_string@_WU?$char_traits@_W@std@@V?$allocator@_W@2@@std@@@2@V?$allocator@U?$pair@$$CBV?$basic_string@_WU?$char_traits@_W@std@@V?$allocator@_W@2@@std@@V?$set@P6AXPB_W_J@ZU?$less@P6AXPB_W_J@Z@std@@V?$allocator@P6AXPB_W_J@Z@2@@2@@std@@@2@$0A@@std@@@2@XZ 10034f40 f i mcdiskcheck.obj
 0002:00032f90       ?_Rrotate@?$_Tree@V?$_Tmap_traits@V?$basic_string@_WU?$char_traits@_W@std@@V?$allocator@_W@2@@std@@V?$set@P6AXPB_W_J@ZU?$less@P6AXPB_W_J@Z@std@@V?$allocator@P6AXPB_W_J@Z@2@@2@U?$less@V?$basic_string@_WU?$char_traits@_W@std@@V?$allocator@_W@2@@std@@@2@V?$allocator@U?$pair@$$CBV?$basic_string@_WU?$char_traits@_W@std@@V?$allocator@_W@2@@std@@V?$set@P6AXPB_W_J@ZU?$less@P6AXPB_W_J@Z@std@@V?$allocator@P6AXPB_W_J@Z@2@@2@@std@@@2@$0A@@std@@@std@@IAEXPAU_Node@?$_Tree_nod@V?$_Tmap_traits@V?$basic_string@_WU?$char_traits@_W@std@@V?$allocator@_W@2@@std@@V?$set@P6AXPB_W_J@ZU?$less@P6AXPB_W_J@Z@std@@V?$allocator@P6AXPB_W_J@Z@2@@2@U?$less@V?$basic_string@_WU?$char_traits@_W@std@@V?$allocator@_W@2@@std@@@2@V?$allocator@U?$pair@$$CBV?$basic_string@_WU?$char_traits@_W@std@@V?$allocator@_W@2@@std@@V?$set@P6AXPB_W_J@ZU?$less@P6AXPB_W_J@Z@std@@V?$allocator@P6AXPB_W_J@Z@2@@2@@std@@@2@$0A@@std@@@2@@Z 10034f90 f i mcdiskcheck.obj
 0002:000330f0       ?_Color@?$_Tree_val@V?$_Tmap_traits@V?$basic_string@_WU?$char_traits@_W@std@@V?$allocator@_W@2@@std@@V?$set@P6AXPB_W_J@ZU?$less@P6AXPB_W_J@Z@std@@V?$allocator@P6AXPB_W_J@Z@2@@2@U?$less@V?$basic_string@_WU?$char_traits@_W@std@@V?$allocator@_W@2@@std@@@2@V?$allocator@U?$pair@$$CBV?$basic_string@_WU?$char_traits@_W@std@@V?$allocator@_W@2@@std@@V?$set@P6AXPB_W_J@ZU?$less@P6AXPB_W_J@Z@std@@V?$allocator@P6AXPB_W_J@Z@2@@2@@std@@@2@$0A@@std@@@std@@SAAADPAU_Node@?$_Tree_nod@V?$_Tmap_traits@V?$basic_string@_WU?$char_traits@_W@std@@V?$allocator@_W@2@@std@@V?$set@P6AXPB_W_J@ZU?$less@P6AXPB_W_J@Z@std@@V?$allocator@P6AXPB_W_J@Z@2@@2@U?$less@V?$basic_string@_WU?$char_traits@_W@std@@V?$allocator@_W@2@@std@@@2@V?$allocator@U?$pair@$$CBV?$basic_string@_WU?$char_traits@_W@std@@V?$allocator@_W@2@@std@@V?$set@P6AXPB_W_J@ZU?$less@P6AXPB_W_J@Z@std@@V?$allocator@P6AXPB_W_J@Z@2@@2@@std@@@2@$0A@@std@@@2@@Z 100350f0 f i mcdiskcheck.obj
 0002:00033120       ?_Isnil@?$_Tree_val@V?$_Tmap_traits@V?$basic_string@_WU?$char_traits@_W@std@@V?$allocator@_W@2@@std@@V?$set@P6AXPB_W_J@ZU?$less@P6AXPB_W_J@Z@std@@V?$allocator@P6AXPB_W_J@Z@2@@2@U?$less@V?$basic_string@_WU?$char_traits@_W@std@@V?$allocator@_W@2@@std@@@2@V?$allocator@U?$pair@$$CBV?$basic_string@_WU?$char_traits@_W@std@@V?$allocator@_W@2@@std@@V?$set@P6AXPB_W_J@ZU?$less@P6AXPB_W_J@Z@std@@V?$allocator@P6AXPB_W_J@Z@2@@2@@std@@@2@$0A@@std@@@std@@SAAADPAU_Node@?$_Tree_nod@V?$_Tmap_traits@V?$basic_string@_WU?$char_traits@_W@std@@V?$allocator@_W@2@@std@@V?$set@P6AXPB_W_J@ZU?$less@P6AXPB_W_J@Z@std@@V?$allocator@P6AXPB_W_J@Z@2@@2@U?$less@V?$basic_string@_WU?$char_traits@_W@std@@V?$allocator@_W@2@@std@@@2@V?$allocator@U?$pair@$$CBV?$basic_string@_WU?$char_traits@_W@std@@V?$allocator@_W@2@@std@@V?$set@P6AXPB_W_J@ZU?$less@P6AXPB_W_J@Z@std@@V?$allocator@P6AXPB_W_J@Z@2@@2@@std@@@2@$0A@@std@@@2@@Z 10035120 f i mcdiskcheck.obj
 0002:00033150       ?_Key@?$_Tree_val@V?$_Tmap_traits@V?$basic_string@_WU?$char_traits@_W@std@@V?$allocator@_W@2@@std@@V?$set@P6AXPB_W_J@ZU?$less@P6AXPB_W_J@Z@std@@V?$allocator@P6AXPB_W_J@Z@2@@2@U?$less@V?$basic_string@_WU?$char_traits@_W@std@@V?$allocator@_W@2@@std@@@2@V?$allocator@U?$pair@$$CBV?$basic_string@_WU?$char_traits@_W@std@@V?$allocator@_W@2@@std@@V?$set@P6AXPB_W_J@ZU?$less@P6AXPB_W_J@Z@std@@V?$allocator@P6AXPB_W_J@Z@2@@2@@std@@@2@$0A@@std@@@std@@SAAAV?$basic_string@_WU?$char_traits@_W@std@@V?$allocator@_W@2@@2@PAU_Node@?$_Tree_nod@V?$_Tmap_traits@V?$basic_string@_WU?$char_traits@_W@std@@V?$allocator@_W@2@@std@@V?$set@P6AXPB_W_J@ZU?$less@P6AXPB_W_J@Z@std@@V?$allocator@P6AXPB_W_J@Z@2@@2@U?$less@V?$basic_string@_WU?$char_traits@_W@std@@V?$allocator@_W@2@@std@@@2@V?$allocator@U?$pair@$$CBV?$basic_string@_WU?$char_traits@_W@std@@V?$allocator@_W@2@@std@@V?$set@P6AXPB_W_J@ZU?$less@P6AXPB_W_J@Z@std@@V?$allocator@P6AXPB_W_J@Z@2@@2@@std@@@2@$0A@@std@@@2@@Z 10035150 f i mcdiskcheck.obj
 0002:000331a0       ?_Left@?$_Tree_val@V?$_Tmap_traits@V?$basic_string@_WU?$char_traits@_W@std@@V?$allocator@_W@2@@std@@V?$set@P6AXPB_W_J@ZU?$less@P6AXPB_W_J@Z@std@@V?$allocator@P6AXPB_W_J@Z@2@@2@U?$less@V?$basic_string@_WU?$char_traits@_W@std@@V?$allocator@_W@2@@std@@@2@V?$allocator@U?$pair@$$CBV?$basic_string@_WU?$char_traits@_W@std@@V?$allocator@_W@2@@std@@V?$set@P6AXPB_W_J@ZU?$less@P6AXPB_W_J@Z@std@@V?$allocator@P6AXPB_W_J@Z@2@@2@@std@@@2@$0A@@std@@@std@@SAAAPAU_Node@?$_Tree_nod@V?$_Tmap_traits@V?$basic_string@_WU?$char_traits@_W@std@@V?$allocator@_W@2@@std@@V?$set@P6AXPB_W_J@ZU?$less@P6AXPB_W_J@Z@std@@V?$allocator@P6AXPB_W_J@Z@2@@2@U?$less@V?$basic_string@_WU?$char_traits@_W@std@@V?$allocator@_W@2@@std@@@2@V?$allocator@U?$pair@$$CBV?$basic_string@_WU?$char_traits@_W@std@@V?$allocator@_W@2@@std@@V?$set@P6AXPB_W_J@ZU?$less@P6AXPB_W_J@Z@std@@V?$allocator@P6AXPB_W_J@Z@2@@2@@std@@@2@$0A@@std@@@2@PAU342@@Z 100351a0 f i mcdiskcheck.obj
 0002:000331d0       ?_Parent@?$_Tree_val@V?$_Tmap_traits@V?$basic_string@_WU?$char_traits@_W@std@@V?$allocator@_W@2@@std@@V?$set@P6AXPB_W_J@ZU?$less@P6AXPB_W_J@Z@std@@V?$allocator@P6AXPB_W_J@Z@2@@2@U?$less@V?$basic_string@_WU?$char_traits@_W@std@@V?$allocator@_W@2@@std@@@2@V?$allocator@U?$pair@$$CBV?$basic_string@_WU?$char_traits@_W@std@@V?$allocator@_W@2@@std@@V?$set@P6AXPB_W_J@ZU?$less@P6AXPB_W_J@Z@std@@V?$allocator@P6AXPB_W_J@Z@2@@2@@std@@@2@$0A@@std@@@std@@SAAAPAU_Node@?$_Tree_nod@V?$_Tmap_traits@V?$basic_string@_WU?$char_traits@_W@std@@V?$allocator@_W@2@@std@@V?$set@P6AXPB_W_J@ZU?$less@P6AXPB_W_J@Z@std@@V?$allocator@P6AXPB_W_J@Z@2@@2@U?$less@V?$basic_string@_WU?$char_traits@_W@std@@V?$allocator@_W@2@@std@@@2@V?$allocator@U?$pair@$$CBV?$basic_string@_WU?$char_traits@_W@std@@V?$allocator@_W@2@@std@@V?$set@P6AXPB_W_J@ZU?$less@P6AXPB_W_J@Z@std@@V?$allocator@P6AXPB_W_J@Z@2@@2@@std@@@2@$0A@@std@@@2@PAU342@@Z 100351d0 f i mcdiskcheck.obj
 0002:00033200       ?_Right@?$_Tree_val@V?$_Tmap_traits@V?$basic_string@_WU?$char_traits@_W@std@@V?$allocator@_W@2@@std@@V?$set@P6AXPB_W_J@ZU?$less@P6AXPB_W_J@Z@std@@V?$allocator@P6AXPB_W_J@Z@2@@2@U?$less@V?$basic_string@_WU?$char_traits@_W@std@@V?$allocator@_W@2@@std@@@2@V?$allocator@U?$pair@$$CBV?$basic_string@_WU?$char_traits@_W@std@@V?$allocator@_W@2@@std@@V?$set@P6AXPB_W_J@ZU?$less@P6AXPB_W_J@Z@std@@V?$allocator@P6AXPB_W_J@Z@2@@2@@std@@@2@$0A@@std@@@std@@SAAAPAU_Node@?$_Tree_nod@V?$_Tmap_traits@V?$basic_string@_WU?$char_traits@_W@std@@V?$allocator@_W@2@@std@@V?$set@P6AXPB_W_J@ZU?$less@P6AXPB_W_J@Z@std@@V?$allocator@P6AXPB_W_J@Z@2@@2@U?$less@V?$basic_string@_WU?$char_traits@_W@std@@V?$allocator@_W@2@@std@@@2@V?$allocator@U?$pair@$$CBV?$basic_string@_WU?$char_traits@_W@std@@V?$allocator@_W@2@@std@@V?$set@P6AXPB_W_J@ZU?$less@P6AXPB_W_J@Z@std@@V?$allocator@P6AXPB_W_J@Z@2@@2@@std@@@2@$0A@@std@@@2@PAU342@@Z 10035200 f i mcdiskcheck.obj
 0002:00033230       ?_Myval@?$_Tree_val@V?$_Tmap_traits@V?$basic_string@_WU?$char_traits@_W@std@@V?$allocator@_W@2@@std@@V?$set@P6AXPB_W_J@ZU?$less@P6AXPB_W_J@Z@std@@V?$allocator@P6AXPB_W_J@Z@2@@2@U?$less@V?$basic_string@_WU?$char_traits@_W@std@@V?$allocator@_W@2@@std@@@2@V?$allocator@U?$pair@$$CBV?$basic_string@_WU?$char_traits@_W@std@@V?$allocator@_W@2@@std@@V?$set@P6AXPB_W_J@ZU?$less@P6AXPB_W_J@Z@std@@V?$allocator@P6AXPB_W_J@Z@2@@2@@std@@@2@$0A@@std@@@std@@SAAAU?$pair@$$CBV?$basic_string@_WU?$char_traits@_W@std@@V?$allocator@_W@2@@std@@V?$set@P6AXPB_W_J@ZU?$less@P6AXPB_W_J@Z@std@@V?$allocator@P6AXPB_W_J@Z@2@@2@@2@PAU_Node@?$_Tree_nod@V?$_Tmap_traits@V?$basic_string@_WU?$char_traits@_W@std@@V?$allocator@_W@2@@std@@V?$set@P6AXPB_W_J@ZU?$less@P6AXPB_W_J@Z@std@@V?$allocator@P6AXPB_W_J@Z@2@@2@U?$less@V?$basic_string@_WU?$char_traits@_W@std@@V?$allocator@_W@2@@std@@@2@V?$allocator@U?$pair@$$CBV?$basic_string@_WU?$char_traits@_W@std@@V?$allocator@_W@2@@std@@V?$set@P6AXPB_W_J@ZU?$less@P6AXPB_W_J@Z@std@@V?$allocator@P6AXPB_W_J@Z@2@@2@@std@@@2@$0A@@std@@@2@@Z 10035230 f i mcdiskcheck.obj
 0002:00033260       ?_Max@?$_Tree_val@V?$_Tmap_traits@V?$basic_string@_WU?$char_traits@_W@std@@V?$allocator@_W@2@@std@@V?$set@P6AXPB_W_J@ZU?$less@P6AXPB_W_J@Z@std@@V?$allocator@P6AXPB_W_J@Z@2@@2@U?$less@V?$basic_string@_WU?$char_traits@_W@std@@V?$allocator@_W@2@@std@@@2@V?$allocator@U?$pair@$$CBV?$basic_string@_WU?$char_traits@_W@std@@V?$allocator@_W@2@@std@@V?$set@P6AXPB_W_J@ZU?$less@P6AXPB_W_J@Z@std@@V?$allocator@P6AXPB_W_J@Z@2@@2@@std@@@2@$0A@@std@@@std@@SAPAU_Node@?$_Tree_nod@V?$_Tmap_traits@V?$basic_string@_WU?$char_traits@_W@std@@V?$allocator@_W@2@@std@@V?$set@P6AXPB_W_J@ZU?$less@P6AXPB_W_J@Z@std@@V?$allocator@P6AXPB_W_J@Z@2@@2@U?$less@V?$basic_string@_WU?$char_traits@_W@std@@V?$allocator@_W@2@@std@@@2@V?$allocator@U?$pair@$$CBV?$basic_string@_WU?$char_traits@_W@std@@V?$allocator@_W@2@@std@@V?$set@P6AXPB_W_J@ZU?$less@P6AXPB_W_J@Z@std@@V?$allocator@P6AXPB_W_J@Z@2@@2@@std@@@2@$0A@@std@@@2@PAU342@@Z 10035260 f i mcdiskcheck.obj
 0002:000332d0       ?_Min@?$_Tree_val@V?$_Tmap_traits@V?$basic_string@_WU?$char_traits@_W@std@@V?$allocator@_W@2@@std@@V?$set@P6AXPB_W_J@ZU?$less@P6AXPB_W_J@Z@std@@V?$allocator@P6AXPB_W_J@Z@2@@2@U?$less@V?$basic_string@_WU?$char_traits@_W@std@@V?$allocator@_W@2@@std@@@2@V?$allocator@U?$pair@$$CBV?$basic_string@_WU?$char_traits@_W@std@@V?$allocator@_W@2@@std@@V?$set@P6AXPB_W_J@ZU?$less@P6AXPB_W_J@Z@std@@V?$allocator@P6AXPB_W_J@Z@2@@2@@std@@@2@$0A@@std@@@std@@SAPAU_Node@?$_Tree_nod@V?$_Tmap_traits@V?$basic_string@_WU?$char_traits@_W@std@@V?$allocator@_W@2@@std@@V?$set@P6AXPB_W_J@ZU?$less@P6AXPB_W_J@Z@std@@V?$allocator@P6AXPB_W_J@Z@2@@2@U?$less@V?$basic_string@_WU?$char_traits@_W@std@@V?$allocator@_W@2@@std@@@2@V?$allocator@U?$pair@$$CBV?$basic_string@_WU?$char_traits@_W@std@@V?$allocator@_W@2@@std@@V?$set@P6AXPB_W_J@ZU?$less@P6AXPB_W_J@Z@std@@V?$allocator@P6AXPB_W_J@Z@2@@2@@std@@@2@$0A@@std@@@2@PAU342@@Z 100352d0 f i mcdiskcheck.obj
 0002:00033340       ??R?$less@V?$basic_string@_WU?$char_traits@_W@std@@V?$allocator@_W@2@@std@@@std@@QBE_NABV?$basic_string@_WU?$char_traits@_W@std@@V?$allocator@_W@2@@1@0@Z 10035340 f i mcdiskcheck.obj
 0002:00033390       ?deallocate@?$allocator@U_Node@?$_Tree_nod@V?$_Tmap_traits@V?$basic_string@_WU?$char_traits@_W@std@@V?$allocator@_W@2@@std@@V?$set@P6AXPB_W_J@ZU?$less@P6AXPB_W_J@Z@std@@V?$allocator@P6AXPB_W_J@Z@2@@2@U?$less@V?$basic_string@_WU?$char_traits@_W@std@@V?$allocator@_W@2@@std@@@2@V?$allocator@U?$pair@$$CBV?$basic_string@_WU?$char_traits@_W@std@@V?$allocator@_W@2@@std@@V?$set@P6AXPB_W_J@ZU?$less@P6AXPB_W_J@Z@std@@V?$allocator@P6AXPB_W_J@Z@2@@2@@std@@@2@$0A@@std@@@std@@@std@@QAEXPAU_Node@?$_Tree_nod@V?$_Tmap_traits@V?$basic_string@_WU?$char_traits@_W@std@@V?$allocator@_W@2@@std@@V?$set@P6AXPB_W_J@ZU?$less@P6AXPB_W_J@Z@std@@V?$allocator@P6AXPB_W_J@Z@2@@2@U?$less@V?$basic_string@_WU?$char_traits@_W@std@@V?$allocator@_W@2@@std@@@2@V?$allocator@U?$pair@$$CBV?$basic_string@_WU?$char_traits@_W@std@@V?$allocator@_W@2@@std@@V?$set@P6AXPB_W_J@ZU?$less@P6AXPB_W_J@Z@std@@V?$allocator@P6AXPB_W_J@Z@2@@2@@std@@@2@$0A@@std@@@2@I@Z 10035390 f i mcdiskcheck.obj
 0002:000333e0       ??0?$_Tree_iterator@V?$_Tree_val@V?$_Tmap_traits@V?$basic_string@_WU?$char_traits@_W@std@@V?$allocator@_W@2@@std@@V?$set@P6AXPB_W_J@ZU?$less@P6AXPB_W_J@Z@std@@V?$allocator@P6AXPB_W_J@Z@2@@2@U?$less@V?$basic_string@_WU?$char_traits@_W@std@@V?$allocator@_W@2@@std@@@2@V?$allocator@U?$pair@$$CBV?$basic_string@_WU?$char_traits@_W@std@@V?$allocator@_W@2@@std@@V?$set@P6AXPB_W_J@ZU?$less@P6AXPB_W_J@Z@std@@V?$allocator@P6AXPB_W_J@Z@2@@2@@std@@@2@$0A@@std@@@std@@@std@@QAE@PAU_Node@?$_Tree_nod@V?$_Tmap_traits@V?$basic_string@_WU?$char_traits@_W@std@@V?$allocator@_W@2@@std@@V?$set@P6AXPB_W_J@ZU?$less@P6AXPB_W_J@Z@std@@V?$allocator@P6AXPB_W_J@Z@2@@2@U?$less@V?$basic_string@_WU?$char_traits@_W@std@@V?$allocator@_W@2@@std@@@2@V?$allocator@U?$pair@$$CBV?$basic_string@_WU?$char_traits@_W@std@@V?$allocator@_W@2@@std@@V?$set@P6AXPB_W_J@ZU?$less@P6AXPB_W_J@Z@std@@V?$allocator@P6AXPB_W_J@Z@2@@2@@std@@@2@$0A@@std@@@1@PBV?$_Tree_val@V?$_Tmap_traits@V?$basic_string@_WU?$char_traits@_W@std@@V?$allocator@_W@2@@std@@V?$set@P6AXPB_W_J@ZU?$less@P6AXPB_W_J@Z@std@@V?$allocator@P6AXPB_W_J@Z@2@@2@U?$less@V?$basic_string@_WU?$char_traits@_W@std@@V?$allocator@_W@2@@std@@@2@V?$allocator@U?$pair@$$CBV?$basic_string@_WU?$char_traits@_W@std@@V?$allocator@_W@2@@std@@V?$set@P6AXPB_W_J@ZU?$less@P6AXPB_W_J@Z@std@@V?$allocator@P6AXPB_W_J@Z@2@@2@@std@@@2@$0A@@std@@@1@@Z 100353e0 f i mcdiskcheck.obj
 0002:00033430       ??D?$_Tree_iterator@V?$_Tree_val@V?$_Tmap_traits@V?$basic_string@_WU?$char_traits@_W@std@@V?$allocator@_W@2@@std@@V?$set@P6AXPB_W_J@ZU?$less@P6AXPB_W_J@Z@std@@V?$allocator@P6AXPB_W_J@Z@2@@2@U?$less@V?$basic_string@_WU?$char_traits@_W@std@@V?$allocator@_W@2@@std@@@2@V?$allocator@U?$pair@$$CBV?$basic_string@_WU?$char_traits@_W@std@@V?$allocator@_W@2@@std@@V?$set@P6AXPB_W_J@ZU?$less@P6AXPB_W_J@Z@std@@V?$allocator@P6AXPB_W_J@Z@2@@2@@std@@@2@$0A@@std@@@std@@@std@@QBEAAU?$pair@$$CBV?$basic_string@_WU?$char_traits@_W@std@@V?$allocator@_W@2@@std@@V?$set@P6AXPB_W_J@ZU?$less@P6AXPB_W_J@Z@std@@V?$allocator@P6AXPB_W_J@Z@2@@2@@1@XZ 10035430 f i mcdiskcheck.obj
 0002:00033470       ??E?$_Tree_const_iterator@V?$_Tree_val@V?$_Tmap_traits@V?$basic_string@_WU?$char_traits@_W@std@@V?$allocator@_W@2@@std@@V?$set@P6AXPB_W_J@ZU?$less@P6AXPB_W_J@Z@std@@V?$allocator@P6AXPB_W_J@Z@2@@2@U?$less@V?$basic_string@_WU?$char_traits@_W@std@@V?$allocator@_W@2@@std@@@2@V?$allocator@U?$pair@$$CBV?$basic_string@_WU?$char_traits@_W@std@@V?$allocator@_W@2@@std@@V?$set@P6AXPB_W_J@ZU?$less@P6AXPB_W_J@Z@std@@V?$allocator@P6AXPB_W_J@Z@2@@2@@std@@@2@$0A@@std@@@std@@@std@@QAEAAV01@XZ 10035470 f i mcdiskcheck.obj
 0002:000334c0       ?_Mynode@?$_Tree_unchecked_const_iterator@V?$_Tree_val@V?$_Tmap_traits@V?$basic_string@_WU?$char_traits@_W@std@@V?$allocator@_W@2@@std@@V?$set@P6AXPB_W_J@ZU?$less@P6AXPB_W_J@Z@std@@V?$allocator@P6AXPB_W_J@Z@2@@2@U?$less@V?$basic_string@_WU?$char_traits@_W@std@@V?$allocator@_W@2@@std@@@2@V?$allocator@U?$pair@$$CBV?$basic_string@_WU?$char_traits@_W@std@@V?$allocator@_W@2@@std@@V?$set@P6AXPB_W_J@ZU?$less@P6AXPB_W_J@Z@std@@V?$allocator@P6AXPB_W_J@Z@2@@2@@std@@@2@$0A@@std@@@std@@U_Iterator_base0@2@@std@@QBEPAU_Node@?$_Tree_nod@V?$_Tmap_traits@V?$basic_string@_WU?$char_traits@_W@std@@V?$allocator@_W@2@@std@@V?$set@P6AXPB_W_J@ZU?$less@P6AXPB_W_J@Z@std@@V?$allocator@P6AXPB_W_J@Z@2@@2@U?$less@V?$basic_string@_WU?$char_traits@_W@std@@V?$allocator@_W@2@@std@@@2@V?$allocator@U?$pair@$$CBV?$basic_string@_WU?$char_traits@_W@std@@V?$allocator@_W@2@@std@@V?$set@P6AXPB_W_J@ZU?$less@P6AXPB_W_J@Z@std@@V?$allocator@P6AXPB_W_J@Z@2@@2@@std@@@2@$0A@@std@@@2@XZ 100354c0 f i mcdiskcheck.obj
 0002:000334f0       ??0?$_Tree@V?$_Tset_traits@P6AXPB_W_J@ZU?$less@P6AXPB_W_J@Z@std@@V?$allocator@P6AXPB_W_J@Z@2@$0A@@std@@@std@@QAE@ABU?$less@P6AXPB_W_J@Z@1@ABV?$allocator@P6AXPB_W_J@Z@1@@Z 100354f0 f i mcdiskcheck.obj
 0002:00033550       ?size@?$_Tree@V?$_Tset_traits@P6AXPB_W_J@ZU?$less@P6AXPB_W_J@Z@std@@V?$allocator@P6AXPB_W_J@Z@2@$0A@@std@@@std@@QBEIXZ 10035550 f i mcdiskcheck.obj
 0002:00033580       ?lower_bound@?$_Tree@V?$_Tset_traits@P6AXPB_W_J@ZU?$less@P6AXPB_W_J@Z@std@@V?$allocator@P6AXPB_W_J@Z@2@$0A@@std@@@std@@QAE?AV?$_Tree_const_iterator@V?$_Tree_val@V?$_Tset_traits@P6AXPB_W_J@ZU?$less@P6AXPB_W_J@Z@std@@V?$allocator@P6AXPB_W_J@Z@2@$0A@@std@@@std@@@2@ABQ6AXPB_W_J@Z@Z 10035580 f i mcdiskcheck.obj
 0002:000335e0       ?_Lmost@?$_Tree@V?$_Tset_traits@P6AXPB_W_J@ZU?$less@P6AXPB_W_J@Z@std@@V?$allocator@P6AXPB_W_J@Z@2@$0A@@std@@@std@@IBEAAPAU_Node@?$_Tree_nod@V?$_Tset_traits@P6AXPB_W_J@ZU?$less@P6AXPB_W_J@Z@std@@V?$allocator@P6AXPB_W_J@Z@2@$0A@@std@@@2@XZ 100355e0 f i mcdiskcheck.obj
 0002:00033630       ?_Lrotate@?$_Tree@V?$_Tset_traits@P6AXPB_W_J@ZU?$less@P6AXPB_W_J@Z@std@@V?$allocator@P6AXPB_W_J@Z@2@$0A@@std@@@std@@IAEXPAU_Node@?$_Tree_nod@V?$_Tset_traits@P6AXPB_W_J@ZU?$less@P6AXPB_W_J@Z@std@@V?$allocator@P6AXPB_W_J@Z@2@$0A@@std@@@2@@Z 10035630 f i mcdiskcheck.obj
 0002:00033790       ?_Rmost@?$_Tree@V?$_Tset_traits@P6AXPB_W_J@ZU?$less@P6AXPB_W_J@Z@std@@V?$allocator@P6AXPB_W_J@Z@2@$0A@@std@@@std@@IBEAAPAU_Node@?$_Tree_nod@V?$_Tset_traits@P6AXPB_W_J@ZU?$less@P6AXPB_W_J@Z@std@@V?$allocator@P6AXPB_W_J@Z@2@$0A@@std@@@2@XZ 10035790 f i mcdiskcheck.obj
 0002:000337e0       ?_Root@?$_Tree@V?$_Tset_traits@P6AXPB_W_J@ZU?$less@P6AXPB_W_J@Z@std@@V?$allocator@P6AXPB_W_J@Z@2@$0A@@std@@@std@@IBEAAPAU_Node@?$_Tree_nod@V?$_Tset_traits@P6AXPB_W_J@ZU?$less@P6AXPB_W_J@Z@std@@V?$allocator@P6AXPB_W_J@Z@2@$0A@@std@@@2@XZ 100357e0 f i mcdiskcheck.obj
 0002:00033830       ?_Rrotate@?$_Tree@V?$_Tset_traits@P6AXPB_W_J@ZU?$less@P6AXPB_W_J@Z@std@@V?$allocator@P6AXPB_W_J@Z@2@$0A@@std@@@std@@IAEXPAU_Node@?$_Tree_nod@V?$_Tset_traits@P6AXPB_W_J@ZU?$less@P6AXPB_W_J@Z@std@@V?$allocator@P6AXPB_W_J@Z@2@$0A@@std@@@2@@Z 10035830 f i mcdiskcheck.obj
 0002:00033990       ?_Tidy@?$_Tree@V?$_Tset_traits@P6AXPB_W_J@ZU?$less@P6AXPB_W_J@Z@std@@V?$allocator@P6AXPB_W_J@Z@2@$0A@@std@@@std@@IAEXXZ 10035990 f i mcdiskcheck.obj
 0002:00033a00       ??1?$_Tree_val@V?$_Tset_traits@P6AXPB_W_J@ZU?$less@P6AXPB_W_J@Z@std@@V?$allocator@P6AXPB_W_J@Z@2@$0A@@std@@@std@@QAE@XZ 10035a00 f i mcdiskcheck.obj
 0002:00033a50       ?_Color@?$_Tree_val@V?$_Tset_traits@P6AXPB_W_J@ZU?$less@P6AXPB_W_J@Z@std@@V?$allocator@P6AXPB_W_J@Z@2@$0A@@std@@@std@@SAAADPAU_Node@?$_Tree_nod@V?$_Tset_traits@P6AXPB_W_J@ZU?$less@P6AXPB_W_J@Z@std@@V?$allocator@P6AXPB_W_J@Z@2@$0A@@std@@@2@@Z 10035a50 f i mcdiskcheck.obj
 0002:00033a80       ?_Isnil@?$_Tree_val@V?$_Tset_traits@P6AXPB_W_J@ZU?$less@P6AXPB_W_J@Z@std@@V?$allocator@P6AXPB_W_J@Z@2@$0A@@std@@@std@@SAAADPAU_Node@?$_Tree_nod@V?$_Tset_traits@P6AXPB_W_J@ZU?$less@P6AXPB_W_J@Z@std@@V?$allocator@P6AXPB_W_J@Z@2@$0A@@std@@@2@@Z 10035a80 f i mcdiskcheck.obj
 0002:00033ab0       ?_Key@?$_Tree_val@V?$_Tset_traits@P6AXPB_W_J@ZU?$less@P6AXPB_W_J@Z@std@@V?$allocator@P6AXPB_W_J@Z@2@$0A@@std@@@std@@SAAAP6AXPB_W_J@ZPAU_Node@?$_Tree_nod@V?$_Tset_traits@P6AXPB_W_J@ZU?$less@P6AXPB_W_J@Z@std@@V?$allocator@P6AXPB_W_J@Z@2@$0A@@std@@@2@@Z 10035ab0 f i mcdiskcheck.obj
 0002:00033b00       ?_Left@?$_Tree_val@V?$_Tset_traits@P6AXPB_W_J@ZU?$less@P6AXPB_W_J@Z@std@@V?$allocator@P6AXPB_W_J@Z@2@$0A@@std@@@std@@SAAAPAU_Node@?$_Tree_nod@V?$_Tset_traits@P6AXPB_W_J@ZU?$less@P6AXPB_W_J@Z@std@@V?$allocator@P6AXPB_W_J@Z@2@$0A@@std@@@2@PAU342@@Z 10035b00 f i mcdiskcheck.obj
 0002:00033b30       ?_Parent@?$_Tree_val@V?$_Tset_traits@P6AXPB_W_J@ZU?$less@P6AXPB_W_J@Z@std@@V?$allocator@P6AXPB_W_J@Z@2@$0A@@std@@@std@@SAAAPAU_Node@?$_Tree_nod@V?$_Tset_traits@P6AXPB_W_J@ZU?$less@P6AXPB_W_J@Z@std@@V?$allocator@P6AXPB_W_J@Z@2@$0A@@std@@@2@PAU342@@Z 10035b30 f i mcdiskcheck.obj
 0002:00033b60       ?_Right@?$_Tree_val@V?$_Tset_traits@P6AXPB_W_J@ZU?$less@P6AXPB_W_J@Z@std@@V?$allocator@P6AXPB_W_J@Z@2@$0A@@std@@@std@@SAAAPAU_Node@?$_Tree_nod@V?$_Tset_traits@P6AXPB_W_J@ZU?$less@P6AXPB_W_J@Z@std@@V?$allocator@P6AXPB_W_J@Z@2@$0A@@std@@@2@PAU342@@Z 10035b60 f i mcdiskcheck.obj
 0002:00033b90       ?_Myval@?$_Tree_val@V?$_Tset_traits@P6AXPB_W_J@ZU?$less@P6AXPB_W_J@Z@std@@V?$allocator@P6AXPB_W_J@Z@2@$0A@@std@@@std@@SAAAP6AXPB_W_J@ZPAU_Node@?$_Tree_nod@V?$_Tset_traits@P6AXPB_W_J@ZU?$less@P6AXPB_W_J@Z@std@@V?$allocator@P6AXPB_W_J@Z@2@$0A@@std@@@2@@Z 10035b90 f i mcdiskcheck.obj
 0002:00033bc0       ?_Max@?$_Tree_val@V?$_Tset_traits@P6AXPB_W_J@ZU?$less@P6AXPB_W_J@Z@std@@V?$allocator@P6AXPB_W_J@Z@2@$0A@@std@@@std@@SAPAU_Node@?$_Tree_nod@V?$_Tset_traits@P6AXPB_W_J@ZU?$less@P6AXPB_W_J@Z@std@@V?$allocator@P6AXPB_W_J@Z@2@$0A@@std@@@2@PAU342@@Z 10035bc0 f i mcdiskcheck.obj
 0002:00033c30       ?_Min@?$_Tree_val@V?$_Tset_traits@P6AXPB_W_J@ZU?$less@P6AXPB_W_J@Z@std@@V?$allocator@P6AXPB_W_J@Z@2@$0A@@std@@@std@@SAPAU_Node@?$_Tree_nod@V?$_Tset_traits@P6AXPB_W_J@ZU?$less@P6AXPB_W_J@Z@std@@V?$allocator@P6AXPB_W_J@Z@2@$0A@@std@@@2@PAU342@@Z 10035c30 f i mcdiskcheck.obj
 0002:00033ca0       ??0?$allocator@P6AXPB_W_J@Z@std@@QAE@XZ 10035ca0 f i mcdiskcheck.obj
 0002:00033cd0       ??R?$less@P6AXPB_W_J@Z@std@@QBE_NABQ6AXPB_W_J@Z2@Z 10035cd0 f i mcdiskcheck.obj
 0002:00033d10       ?deallocate@?$allocator@U_Node@?$_Tree_nod@V?$_Tset_traits@P6AXPB_W_J@ZU?$less@P6AXPB_W_J@Z@std@@V?$allocator@P6AXPB_W_J@Z@2@$0A@@std@@@std@@@std@@QAEXPAU_Node@?$_Tree_nod@V?$_Tset_traits@P6AXPB_W_J@ZU?$less@P6AXPB_W_J@Z@std@@V?$allocator@P6AXPB_W_J@Z@2@$0A@@std@@@2@I@Z 10035d10 f i mcdiskcheck.obj
 0002:00033d60       ??0?$_Tree_const_iterator@V?$_Tree_val@V?$_Tset_traits@P6AXPB_W_J@ZU?$less@P6AXPB_W_J@Z@std@@V?$allocator@P6AXPB_W_J@Z@2@$0A@@std@@@std@@@std@@QAE@PAU_Node@?$_Tree_nod@V?$_Tset_traits@P6AXPB_W_J@ZU?$less@P6AXPB_W_J@Z@std@@V?$allocator@P6AXPB_W_J@Z@2@$0A@@std@@@1@PBV?$_Tree_val@V?$_Tset_traits@P6AXPB_W_J@ZU?$less@P6AXPB_W_J@Z@std@@V?$allocator@P6AXPB_W_J@Z@2@$0A@@std@@@1@@Z 10035d60 f i mcdiskcheck.obj
 0002:00033db0       ??8?$_Tree_const_iterator@V?$_Tree_val@V?$_Tset_traits@P6AXPB_W_J@ZU?$less@P6AXPB_W_J@Z@std@@V?$allocator@P6AXPB_W_J@Z@2@$0A@@std@@@std@@@std@@QBE_NABV01@@Z 10035db0 f i mcdiskcheck.obj
 0002:00033df0       ??E?$_Tree_unchecked_const_iterator@V?$_Tree_val@V?$_Tset_traits@P6AXPB_W_J@ZU?$less@P6AXPB_W_J@Z@std@@V?$allocator@P6AXPB_W_J@Z@2@$0A@@std@@@std@@U_Iterator_base0@2@@std@@QAEAAV01@XZ 10035df0 f i mcdiskcheck.obj
 0002:00033ee0       ?_Mynode@?$_Tree_unchecked_const_iterator@V?$_Tree_val@V?$_Tset_traits@P6AXPB_W_J@ZU?$less@P6AXPB_W_J@Z@std@@V?$allocator@P6AXPB_W_J@Z@2@$0A@@std@@@std@@U_Iterator_base0@2@@std@@QBEPAU_Node@?$_Tree_nod@V?$_Tset_traits@P6AXPB_W_J@ZU?$less@P6AXPB_W_J@Z@std@@V?$allocator@P6AXPB_W_J@Z@2@$0A@@std@@@2@XZ 10035ee0 f i mcdiskcheck.obj
 0002:00033f10       ?_Lbound@?$_Tree@V?$_Tmap_traits@V?$basic_string@_WU?$char_traits@_W@std@@V?$allocator@_W@2@@std@@V?$set@P6AXPB_W_J@ZU?$less@P6AXPB_W_J@Z@std@@V?$allocator@P6AXPB_W_J@Z@2@@2@U?$less@V?$basic_string@_WU?$char_traits@_W@std@@V?$allocator@_W@2@@std@@@2@V?$allocator@U?$pair@$$CBV?$basic_string@_WU?$char_traits@_W@std@@V?$allocator@_W@2@@std@@V?$set@P6AXPB_W_J@ZU?$less@P6AXPB_W_J@Z@std@@V?$allocator@P6AXPB_W_J@Z@2@@2@@std@@@2@$0A@@std@@@std@@IAEPAU_Node@?$_Tree_nod@V?$_Tmap_traits@V?$basic_string@_WU?$char_traits@_W@std@@V?$allocator@_W@2@@std@@V?$set@P6AXPB_W_J@ZU?$less@P6AXPB_W_J@Z@std@@V?$allocator@P6AXPB_W_J@Z@2@@2@U?$less@V?$basic_string@_WU?$char_traits@_W@std@@V?$allocator@_W@2@@std@@@2@V?$allocator@U?$pair@$$CBV?$basic_string@_WU?$char_traits@_W@std@@V?$allocator@_W@2@@std@@V?$set@P6AXPB_W_J@ZU?$less@P6AXPB_W_J@Z@std@@V?$allocator@P6AXPB_W_J@Z@2@@2@@std@@@2@$0A@@std@@@2@ABV?$basic_string@_WU?$char_traits@_W@std@@V?$allocator@_W@2@@2@@Z 10035f10 f i mcdiskcheck.obj
 0002:00033fd0       ??0?$_Tree_const_iterator@V?$_Tree_val@V?$_Tmap_traits@V?$basic_string@_WU?$char_traits@_W@std@@V?$allocator@_W@2@@std@@V?$set@P6AXPB_W_J@ZU?$less@P6AXPB_W_J@Z@std@@V?$allocator@P6AXPB_W_J@Z@2@@2@U?$less@V?$basic_string@_WU?$char_traits@_W@std@@V?$allocator@_W@2@@std@@@2@V?$allocator@U?$pair@$$CBV?$basic_string@_WU?$char_traits@_W@std@@V?$allocator@_W@2@@std@@V?$set@P6AXPB_W_J@ZU?$less@P6AXPB_W_J@Z@std@@V?$allocator@P6AXPB_W_J@Z@2@@2@@std@@@2@$0A@@std@@@std@@@std@@QAE@PAU_Node@?$_Tree_nod@V?$_Tmap_traits@V?$basic_string@_WU?$char_traits@_W@std@@V?$allocator@_W@2@@std@@V?$set@P6AXPB_W_J@ZU?$less@P6AXPB_W_J@Z@std@@V?$allocator@P6AXPB_W_J@Z@2@@2@U?$less@V?$basic_string@_WU?$char_traits@_W@std@@V?$allocator@_W@2@@std@@@2@V?$allocator@U?$pair@$$CBV?$basic_string@_WU?$char_traits@_W@std@@V?$allocator@_W@2@@std@@V?$set@P6AXPB_W_J@ZU?$less@P6AXPB_W_J@Z@std@@V?$allocator@P6AXPB_W_J@Z@2@@2@@std@@@2@$0A@@std@@@1@PBV?$_Tree_val@V?$_Tmap_traits@V?$basic_string@_WU?$char_traits@_W@std@@V?$allocator@_W@2@@std@@V?$set@P6AXPB_W_J@ZU?$less@P6AXPB_W_J@Z@std@@V?$allocator@P6AXPB_W_J@Z@2@@2@U?$less@V?$basic_string@_WU?$char_traits@_W@std@@V?$allocator@_W@2@@std@@@2@V?$allocator@U?$pair@$$CBV?$basic_string@_WU?$char_traits@_W@std@@V?$allocator@_W@2@@std@@V?$set@P6AXPB_W_J@ZU?$less@P6AXPB_W_J@Z@std@@V?$allocator@P6AXPB_W_J@Z@2@@2@@std@@@2@$0A@@std@@@1@@Z 10035fd0 f i mcdiskcheck.obj
 0002:00034020       ??D?$_Tree_const_iterator@V?$_Tree_val@V?$_Tmap_traits@V?$basic_string@_WU?$char_traits@_W@std@@V?$allocator@_W@2@@std@@V?$set@P6AXPB_W_J@ZU?$less@P6AXPB_W_J@Z@std@@V?$allocator@P6AXPB_W_J@Z@2@@2@U?$less@V?$basic_string@_WU?$char_traits@_W@std@@V?$allocator@_W@2@@std@@@2@V?$allocator@U?$pair@$$CBV?$basic_string@_WU?$char_traits@_W@std@@V?$allocator@_W@2@@std@@V?$set@P6AXPB_W_J@ZU?$less@P6AXPB_W_J@Z@std@@V?$allocator@P6AXPB_W_J@Z@2@@2@@std@@@2@$0A@@std@@@std@@@std@@QBEABU?$pair@$$CBV?$basic_string@_WU?$char_traits@_W@std@@V?$allocator@_W@2@@std@@V?$set@P6AXPB_W_J@ZU?$less@P6AXPB_W_J@Z@std@@V?$allocator@P6AXPB_W_J@Z@2@@2@@1@XZ 10036020 f i mcdiskcheck.obj
 0002:00034070       ??E?$_Tree_unchecked_const_iterator@V?$_Tree_val@V?$_Tmap_traits@V?$basic_string@_WU?$char_traits@_W@std@@V?$allocator@_W@2@@std@@V?$set@P6AXPB_W_J@ZU?$less@P6AXPB_W_J@Z@std@@V?$allocator@P6AXPB_W_J@Z@2@@2@U?$less@V?$basic_string@_WU?$char_traits@_W@std@@V?$allocator@_W@2@@std@@@2@V?$allocator@U?$pair@$$CBV?$basic_string@_WU?$char_traits@_W@std@@V?$allocator@_W@2@@std@@V?$set@P6AXPB_W_J@ZU?$less@P6AXPB_W_J@Z@std@@V?$allocator@P6AXPB_W_J@Z@2@@2@@std@@@2@$0A@@std@@@std@@U_Iterator_base0@2@@std@@QAEAAV01@XZ 10036070 f i mcdiskcheck.obj
 0002:00034160       ?erase@?$_Tree@V?$_Tset_traits@P6AXPB_W_J@ZU?$less@P6AXPB_W_J@Z@std@@V?$allocator@P6AXPB_W_J@Z@2@$0A@@std@@@std@@QAE?AV?$_Tree_const_iterator@V?$_Tree_val@V?$_Tset_traits@P6AXPB_W_J@ZU?$less@P6AXPB_W_J@Z@std@@V?$allocator@P6AXPB_W_J@Z@2@$0A@@std@@@std@@@2@V32@0@Z 10036160 f i mcdiskcheck.obj
 0002:00034240       ?_Lbound@?$_Tree@V?$_Tset_traits@P6AXPB_W_J@ZU?$less@P6AXPB_W_J@Z@std@@V?$allocator@P6AXPB_W_J@Z@2@$0A@@std@@@std@@IAEPAU_Node@?$_Tree_nod@V?$_Tset_traits@P6AXPB_W_J@ZU?$less@P6AXPB_W_J@Z@std@@V?$allocator@P6AXPB_W_J@Z@2@$0A@@std@@@2@ABQ6AXPB_W_J@Z@Z 10036240 f i mcdiskcheck.obj
 0002:00034300       ??0?$_Tree_val@V?$_Tset_traits@P6AXPB_W_J@ZU?$less@P6AXPB_W_J@Z@std@@V?$allocator@P6AXPB_W_J@Z@2@$0A@@std@@@std@@QAE@ABU?$less@P6AXPB_W_J@Z@1@V?$allocator@P6AXPB_W_J@Z@1@@Z 10036300 f i mcdiskcheck.obj
 0002:000343e0       ?_Kfn@?$_Tset_traits@P6AXPB_W_J@ZU?$less@P6AXPB_W_J@Z@std@@V?$allocator@P6AXPB_W_J@Z@2@$0A@@std@@SAABQ6AXPB_W_J@ZABQ6AX01@Z@Z 100363e0 f i mcdiskcheck.obj
 0002:00034410       ??0?$allocator@P6AXPB_W_J@Z@std@@QAE@ABV01@@Z 10036410 f i mcdiskcheck.obj
 0002:00034440       ??0?$_Tree_unchecked_const_iterator@V?$_Tree_val@V?$_Tset_traits@P6AXPB_W_J@ZU?$less@P6AXPB_W_J@Z@std@@V?$allocator@P6AXPB_W_J@Z@2@$0A@@std@@@std@@U_Iterator_base0@2@@std@@QAE@PAU_Node@?$_Tree_nod@V?$_Tset_traits@P6AXPB_W_J@ZU?$less@P6AXPB_W_J@Z@std@@V?$allocator@P6AXPB_W_J@Z@2@$0A@@std@@@1@PBV?$_Tree_val@V?$_Tset_traits@P6AXPB_W_J@ZU?$less@P6AXPB_W_J@Z@std@@V?$allocator@P6AXPB_W_J@Z@2@$0A@@std@@@1@@Z 10036440 f i mcdiskcheck.obj
 0002:00034490       ??0?$_Tree_unchecked_const_iterator@V?$_Tree_val@V?$_Tmap_traits@V?$basic_string@_WU?$char_traits@_W@std@@V?$allocator@_W@2@@std@@V?$set@P6AXPB_W_J@ZU?$less@P6AXPB_W_J@Z@std@@V?$allocator@P6AXPB_W_J@Z@2@@2@U?$less@V?$basic_string@_WU?$char_traits@_W@std@@V?$allocator@_W@2@@std@@@2@V?$allocator@U?$pair@$$CBV?$basic_string@_WU?$char_traits@_W@std@@V?$allocator@_W@2@@std@@V?$set@P6AXPB_W_J@ZU?$less@P6AXPB_W_J@Z@std@@V?$allocator@P6AXPB_W_J@Z@2@@2@@std@@@2@$0A@@std@@@std@@U_Iterator_base0@2@@std@@QAE@PAU_Node@?$_Tree_nod@V?$_Tmap_traits@V?$basic_string@_WU?$char_traits@_W@std@@V?$allocator@_W@2@@std@@V?$set@P6AXPB_W_J@ZU?$less@P6AXPB_W_J@Z@std@@V?$allocator@P6AXPB_W_J@Z@2@@2@U?$less@V?$basic_string@_WU?$char_traits@_W@std@@V?$allocator@_W@2@@std@@@2@V?$allocator@U?$pair@$$CBV?$basic_string@_WU?$char_traits@_W@std@@V?$allocator@_W@2@@std@@V?$set@P6AXPB_W_J@ZU?$less@P6AXPB_W_J@Z@std@@V?$allocator@P6AXPB_W_J@Z@2@@2@@std@@@2@$0A@@std@@@1@PBV?$_Tree_val@V?$_Tmap_traits@V?$basic_string@_WU?$char_traits@_W@std@@V?$allocator@_W@2@@std@@V?$set@P6AXPB_W_J@ZU?$less@P6AXPB_W_J@Z@std@@V?$allocator@P6AXPB_W_J@Z@2@@2@U?$less@V?$basic_string@_WU?$char_traits@_W@std@@V?$allocator@_W@2@@std@@@2@V?$allocator@U?$pair@$$CBV?$basic_string@_WU?$char_traits@_W@std@@V?$allocator@_W@2@@std@@V?$set@P6AXPB_W_J@ZU?$less@P6AXPB_W_J@Z@std@@V?$allocator@P6AXPB_W_J@Z@2@@2@@std@@@2@$0A@@std@@@1@@Z 10036490 f i mcdiskcheck.obj
 0002:000344e0       ?clear@?$_Tree@V?$_Tset_traits@P6AXPB_W_J@ZU?$less@P6AXPB_W_J@Z@std@@V?$allocator@P6AXPB_W_J@Z@2@$0A@@std@@@std@@QAEXXZ 100364e0 f i mcdiskcheck.obj
 0002:00034570       ??0?$_Tree_nod@V?$_Tset_traits@P6AXPB_W_J@ZU?$less@P6AXPB_W_J@Z@std@@V?$allocator@P6AXPB_W_J@Z@2@$0A@@std@@@std@@QAE@ABU?$less@P6AXPB_W_J@Z@1@V?$allocator@P6AXPB_W_J@Z@1@@Z 10036570 f i mcdiskcheck.obj
 0002:000345e0       ?allocate@?$allocator@U_Node@?$_Tree_nod@V?$_Tset_traits@P6AXPB_W_J@ZU?$less@P6AXPB_W_J@Z@std@@V?$allocator@P6AXPB_W_J@Z@2@$0A@@std@@@std@@@std@@QAEPAU_Node@?$_Tree_nod@V?$_Tset_traits@P6AXPB_W_J@ZU?$less@P6AXPB_W_J@Z@std@@V?$allocator@P6AXPB_W_J@Z@2@$0A@@std@@@2@I@Z 100365e0 f i mcdiskcheck.obj
 0002:00034630       ??E?$_Tree_const_iterator@V?$_Tree_val@V?$_Tset_traits@P6AXPB_W_J@ZU?$less@P6AXPB_W_J@Z@std@@V?$allocator@P6AXPB_W_J@Z@2@$0A@@std@@@std@@@std@@QAE?AV01@H@Z 10036630 f i mcdiskcheck.obj
 0002:000346c0       ?_Erase@?$_Tree@V?$_Tset_traits@P6AXPB_W_J@ZU?$less@P6AXPB_W_J@Z@std@@V?$allocator@P6AXPB_W_J@Z@2@$0A@@std@@@std@@IAEXPAU_Node@?$_Tree_nod@V?$_Tset_traits@P6AXPB_W_J@ZU?$less@P6AXPB_W_J@Z@std@@V?$allocator@P6AXPB_W_J@Z@2@$0A@@std@@@2@@Z 100366c0 f i mcdiskcheck.obj
 0002:00034780       ??0?$_Tset_traits@P6AXPB_W_J@ZU?$less@P6AXPB_W_J@Z@std@@V?$allocator@P6AXPB_W_J@Z@2@$0A@@std@@QAE@U?$less@P6AXPB_W_J@Z@1@@Z 10036780 f i mcdiskcheck.obj
 0002:000347b0       ??$insert@AAP6AXPB_W_J@Z@?$_Tree@V?$_Tset_traits@P6AXPB_W_J@ZU?$less@P6AXPB_W_J@Z@std@@V?$allocator@P6AXPB_W_J@Z@2@$0A@@std@@@std@@QAE?AU?$pair@V?$_Tree_const_iterator@V?$_Tree_val@V?$_Tset_traits@P6AXPB_W_J@ZU?$less@P6AXPB_W_J@Z@std@@V?$allocator@P6AXPB_W_J@Z@2@$0A@@std@@@std@@@std@@_N@1@AAP6AXPB_W_J@Z@Z 100367b0 f i mcdiskcheck.obj
 0002:00034810       ??$make_pair@V?$basic_string@_WU?$char_traits@_W@std@@V?$allocator@_W@2@@std@@AAV?$set@P6AXPB_W_J@ZU?$less@P6AXPB_W_J@Z@std@@V?$allocator@P6AXPB_W_J@Z@2@@2@@std@@YA?AU?$pair@V?$basic_string@_WU?$char_traits@_W@std@@V?$allocator@_W@2@@std@@V?$set@P6AXPB_W_J@ZU?$less@P6AXPB_W_J@Z@std@@V?$allocator@P6AXPB_W_J@Z@2@@2@@0@$$QAV?$basic_string@_WU?$char_traits@_W@std@@V?$allocator@_W@2@@0@AAV?$set@P6AXPB_W_J@ZU?$less@P6AXPB_W_J@Z@std@@V?$allocator@P6AXPB_W_J@Z@2@@0@@Z 10036810 f i mcdiskcheck.obj
 0002:00034880       ??$insert@U?$pair@V?$basic_string@_WU?$char_traits@_W@std@@V?$allocator@_W@2@@std@@V?$set@P6AXPB_W_J@ZU?$less@P6AXPB_W_J@Z@std@@V?$allocator@P6AXPB_W_J@Z@2@@2@@std@@@?$_Tree@V?$_Tmap_traits@V?$basic_string@_WU?$char_traits@_W@std@@V?$allocator@_W@2@@std@@V?$set@P6AXPB_W_J@ZU?$less@P6AXPB_W_J@Z@std@@V?$allocator@P6AXPB_W_J@Z@2@@2@U?$less@V?$basic_string@_WU?$char_traits@_W@std@@V?$allocator@_W@2@@std@@@2@V?$allocator@U?$pair@$$CBV?$basic_string@_WU?$char_traits@_W@std@@V?$allocator@_W@2@@std@@V?$set@P6AXPB_W_J@ZU?$less@P6AXPB_W_J@Z@std@@V?$allocator@P6AXPB_W_J@Z@2@@2@@std@@@2@$0A@@std@@@std@@QAE?AU?$pair@V?$_Tree_iterator@V?$_Tree_val@V?$_Tmap_traits@V?$basic_string@_WU?$char_traits@_W@std@@V?$allocator@_W@2@@std@@V?$set@P6AXPB_W_J@ZU?$less@P6AXPB_W_J@Z@std@@V?$allocator@P6AXPB_W_J@Z@2@@2@U?$less@V?$basic_string@_WU?$char_traits@_W@std@@V?$allocator@_W@2@@std@@@2@V?$allocator@U?$pair@$$CBV?$basic_string@_WU?$char_traits@_W@std@@V?$allocator@_W@2@@std@@V?$set@P6AXPB_W_J@ZU?$less@P6AXPB_W_J@Z@std@@V?$allocator@P6AXPB_W_J@Z@2@@2@@std@@@2@$0A@@std@@@std@@@std@@_N@1@$$QAU?$pair@V?$basic_string@_WU?$char_traits@_W@std@@V?$allocator@_W@2@@std@@V?$set@P6AXPB_W_J@ZU?$less@P6AXPB_W_J@Z@std@@V?$allocator@P6AXPB_W_J@Z@2@@2@@1@@Z 10036880 f i mcdiskcheck.obj
 0002:000348e0       ??$swap@D@std@@YAXAAD0@Z   100368e0 f i mcdiskcheck.obj
 0002:00034980       ??$addressof@U?$pair@$$CBV?$basic_string@_WU?$char_traits@_W@std@@V?$allocator@_W@2@@std@@V?$set@P6AXPB_W_J@ZU?$less@P6AXPB_W_J@Z@std@@V?$allocator@P6AXPB_W_J@Z@2@@2@@std@@@std@@YAPAU?$pair@$$CBV?$basic_string@_WU?$char_traits@_W@std@@V?$allocator@_W@2@@std@@V?$set@P6AXPB_W_J@ZU?$less@P6AXPB_W_J@Z@std@@V?$allocator@P6AXPB_W_J@Z@2@@2@@0@AAU10@@Z 10036980 f i mcdiskcheck.obj
 0002:000349b0       ??$_Dest_val@V?$allocator@U?$pair@$$CBV?$basic_string@_WU?$char_traits@_W@std@@V?$allocator@_W@2@@std@@V?$set@P6AXPB_W_J@ZU?$less@P6AXPB_W_J@Z@std@@V?$allocator@P6AXPB_W_J@Z@2@@2@@std@@@std@@U?$pair@$$CBV?$basic_string@_WU?$char_traits@_W@std@@V?$allocator@_W@2@@std@@V?$set@P6AXPB_W_J@ZU?$less@P6AXPB_W_J@Z@std@@V?$allocator@P6AXPB_W_J@Z@2@@2@@2@@std@@YAXAAV?$allocator@U?$pair@$$CBV?$basic_string@_WU?$char_traits@_W@std@@V?$allocator@_W@2@@std@@V?$set@P6AXPB_W_J@ZU?$less@P6AXPB_W_J@Z@std@@V?$allocator@P6AXPB_W_J@Z@2@@2@@std@@@0@PAU?$pair@$$CBV?$basic_string@_WU?$char_traits@_W@std@@V?$allocator@_W@2@@std@@V?$set@P6AXPB_W_J@ZU?$less@P6AXPB_W_J@Z@std@@V?$allocator@P6AXPB_W_J@Z@2@@2@@0@@Z 100369b0 f i mcdiskcheck.obj
 0002:000349f0       ??$addressof@P6AXPB_W_J@Z@std@@YAPAP6AXPB_W_J@ZAAP6AX01@Z@Z 100369f0 f i mcdiskcheck.obj
 0002:00034a20       ??$_Dest_val@V?$allocator@P6AXPB_W_J@Z@std@@P6AXPB_W_J@Z@std@@YAXAAV?$allocator@P6AXPB_W_J@Z@0@PAP6AXPB_W_J@Z@Z 10036a20 f i mcdiskcheck.obj
 0002:00034a60       ??$_Kfn@$$CBV?$basic_string@_WU?$char_traits@_W@std@@V?$allocator@_W@2@@std@@V?$set@P6AXPB_W_J@ZU?$less@P6AXPB_W_J@Z@std@@V?$allocator@P6AXPB_W_J@Z@2@@2@@?$_Tmap_traits@V?$basic_string@_WU?$char_traits@_W@std@@V?$allocator@_W@2@@std@@V?$set@P6AXPB_W_J@ZU?$less@P6AXPB_W_J@Z@std@@V?$allocator@P6AXPB_W_J@Z@2@@2@U?$less@V?$basic_string@_WU?$char_traits@_W@std@@V?$allocator@_W@2@@std@@@2@V?$allocator@U?$pair@$$CBV?$basic_string@_WU?$char_traits@_W@std@@V?$allocator@_W@2@@std@@V?$set@P6AXPB_W_J@ZU?$less@P6AXPB_W_J@Z@std@@V?$allocator@P6AXPB_W_J@Z@2@@2@@std@@@2@$0A@@std@@SAABV?$basic_string@_WU?$char_traits@_W@std@@V?$allocator@_W@2@@1@ABU?$pair@$$CBV?$basic_string@_WU?$char_traits@_W@std@@V?$allocator@_W@2@@std@@V?$set@P6AXPB_W_J@ZU?$less@P6AXPB_W_J@Z@std@@V?$allocator@P6AXPB_W_J@Z@2@@2@@1@@Z 10036a60 f i mcdiskcheck.obj
 0002:00034a90       ??$?M_WU?$char_traits@_W@std@@V?$allocator@_W@1@@std@@YA_NABV?$basic_string@_WU?$char_traits@_W@std@@V?$allocator@_W@2@@0@0@Z 10036a90 f i mcdiskcheck.obj
 0002:00034ae0       ??$?0P6AXPB_W_J@Z@?$allocator@U_Node@?$_Tree_nod@V?$_Tset_traits@P6AXPB_W_J@ZU?$less@P6AXPB_W_J@Z@std@@V?$allocator@P6AXPB_W_J@Z@2@$0A@@std@@@std@@@std@@QAE@ABV?$allocator@P6AXPB_W_J@Z@1@@Z 10036ae0 f i mcdiskcheck.obj
 0002:00034b10       ??$_Allocate@U_Node@?$_Tree_nod@V?$_Tset_traits@P6AXPB_W_J@ZU?$less@P6AXPB_W_J@Z@std@@V?$allocator@P6AXPB_W_J@Z@2@$0A@@std@@@std@@@std@@YAPAU_Node@?$_Tree_nod@V?$_Tset_traits@P6AXPB_W_J@ZU?$less@P6AXPB_W_J@Z@std@@V?$allocator@P6AXPB_W_J@Z@2@$0A@@std@@@0@IPAU120@@Z 10036b10 f i mcdiskcheck.obj
 0002:00034ba0       ?_Linsert@?$_Tree@V?$_Tmap_traits@V?$basic_string@_WU?$char_traits@_W@std@@V?$allocator@_W@2@@std@@V?$set@P6AXPB_W_J@ZU?$less@P6AXPB_W_J@Z@std@@V?$allocator@P6AXPB_W_J@Z@2@@2@U?$less@V?$basic_string@_WU?$char_traits@_W@std@@V?$allocator@_W@2@@std@@@2@V?$allocator@U?$pair@$$CBV?$basic_string@_WU?$char_traits@_W@std@@V?$allocator@_W@2@@std@@V?$set@P6AXPB_W_J@ZU?$less@P6AXPB_W_J@Z@std@@V?$allocator@P6AXPB_W_J@Z@2@@2@@std@@@2@$0A@@std@@@std@@QAE?AU?$pair@V?$_Tree_iterator@V?$_Tree_val@V?$_Tmap_traits@V?$basic_string@_WU?$char_traits@_W@std@@V?$allocator@_W@2@@std@@V?$set@P6AXPB_W_J@ZU?$less@P6AXPB_W_J@Z@std@@V?$allocator@P6AXPB_W_J@Z@2@@2@U?$less@V?$basic_string@_WU?$char_traits@_W@std@@V?$allocator@_W@2@@std@@@2@V?$allocator@U?$pair@$$CBV?$basic_string@_WU?$char_traits@_W@std@@V?$allocator@_W@2@@std@@V?$set@P6AXPB_W_J@ZU?$less@P6AXPB_W_J@Z@std@@V?$allocator@P6AXPB_W_J@Z@2@@2@@std@@@2@$0A@@std@@@std@@@std@@_N@2@PAU_Node@?$_Tree_nod@V?$_Tmap_traits@V?$basic_string@_WU?$char_traits@_W@std@@V?$allocator@_W@2@@std@@V?$set@P6AXPB_W_J@ZU?$less@P6AXPB_W_J@Z@std@@V?$allocator@P6AXPB_W_J@Z@2@@2@U?$less@V?$basic_string@_WU?$char_traits@_W@std@@V?$allocator@_W@2@@std@@@2@V?$allocator@U?$pair@$$CBV?$basic_string@_WU?$char_traits@_W@std@@V?$allocator@_W@2@@std@@V?$set@P6AXPB_W_J@ZU?$less@P6AXPB_W_J@Z@std@@V?$allocator@P6AXPB_W_J@Z@2@@2@@std@@@2@$0A@@std@@@2@_N@Z 10036ba0 f i mcdiskcheck.obj
 0002:00034e70       ?destroy@?$allocator@U?$pair@$$CBV?$basic_string@_WU?$char_traits@_W@std@@V?$allocator@_W@2@@std@@V?$set@P6AXPB_W_J@ZU?$less@P6AXPB_W_J@Z@std@@V?$allocator@P6AXPB_W_J@Z@2@@2@@std@@@std@@QAEXPAU?$pair@$$CBV?$basic_string@_WU?$char_traits@_W@std@@V?$allocator@_W@2@@std@@V?$set@P6AXPB_W_J@ZU?$less@P6AXPB_W_J@Z@std@@V?$allocator@P6AXPB_W_J@Z@2@@2@@2@@Z 10036e70 f i mcdiskcheck.obj
 0002:00034ec0       ?_Linsert@?$_Tree@V?$_Tset_traits@P6AXPB_W_J@ZU?$less@P6AXPB_W_J@Z@std@@V?$allocator@P6AXPB_W_J@Z@2@$0A@@std@@@std@@QAE?AU?$pair@V?$_Tree_const_iterator@V?$_Tree_val@V?$_Tset_traits@P6AXPB_W_J@ZU?$less@P6AXPB_W_J@Z@std@@V?$allocator@P6AXPB_W_J@Z@2@$0A@@std@@@std@@@std@@_N@2@PAU_Node@?$_Tree_nod@V?$_Tset_traits@P6AXPB_W_J@ZU?$less@P6AXPB_W_J@Z@std@@V?$allocator@P6AXPB_W_J@Z@2@$0A@@std@@@2@_N@Z 10036ec0 f i mcdiskcheck.obj
 0002:00035190       ?destroy@?$allocator@P6AXPB_W_J@Z@std@@QAEXPAP6AXPB_W_J@Z@Z 10037190 f i mcdiskcheck.obj
 0002:000351e0       ?_Insert@?$_Tree@V?$_Tmap_traits@V?$basic_string@_WU?$char_traits@_W@std@@V?$allocator@_W@2@@std@@V?$set@P6AXPB_W_J@ZU?$less@P6AXPB_W_J@Z@std@@V?$allocator@P6AXPB_W_J@Z@2@@2@U?$less@V?$basic_string@_WU?$char_traits@_W@std@@V?$allocator@_W@2@@std@@@2@V?$allocator@U?$pair@$$CBV?$basic_string@_WU?$char_traits@_W@std@@V?$allocator@_W@2@@std@@V?$set@P6AXPB_W_J@ZU?$less@P6AXPB_W_J@Z@std@@V?$allocator@P6AXPB_W_J@Z@2@@2@@std@@@2@$0A@@std@@@std@@IAE?AV?$_Tree_iterator@V?$_Tree_val@V?$_Tmap_traits@V?$basic_string@_WU?$char_traits@_W@std@@V?$allocator@_W@2@@std@@V?$set@P6AXPB_W_J@ZU?$less@P6AXPB_W_J@Z@std@@V?$allocator@P6AXPB_W_J@Z@2@@2@U?$less@V?$basic_string@_WU?$char_traits@_W@std@@V?$allocator@_W@2@@std@@@2@V?$allocator@U?$pair@$$CBV?$basic_string@_WU?$char_traits@_W@std@@V?$allocator@_W@2@@std@@V?$set@P6AXPB_W_J@ZU?$less@P6AXPB_W_J@Z@std@@V?$allocator@P6AXPB_W_J@Z@2@@2@@std@@@2@$0A@@std@@@std@@@2@_NPAU_Node@?$_Tree_nod@V?$_Tmap_traits@V?$basic_string@_WU?$char_traits@_W@std@@V?$allocator@_W@2@@std@@V?$set@P6AXPB_W_J@ZU?$less@P6AXPB_W_J@Z@std@@V?$allocator@P6AXPB_W_J@Z@2@@2@U?$less@V?$basic_string@_WU?$char_traits@_W@std@@V?$allocator@_W@2@@std@@@2@V?$allocator@U?$pair@$$CBV?$basic_string@_WU?$char_traits@_W@std@@V?$allocator@_W@2@@std@@V?$set@P6AXPB_W_J@ZU?$less@P6AXPB_W_J@Z@std@@V?$allocator@P6AXPB_W_J@Z@2@@2@@std@@@2@$0A@@std@@@2@1@Z 100371e0 f i mcdiskcheck.obj
 0002:00035650       ??F?$_Tree_iterator@V?$_Tree_val@V?$_Tmap_traits@V?$basic_string@_WU?$char_traits@_W@std@@V?$allocator@_W@2@@std@@V?$set@P6AXPB_W_J@ZU?$less@P6AXPB_W_J@Z@std@@V?$allocator@P6AXPB_W_J@Z@2@@2@U?$less@V?$basic_string@_WU?$char_traits@_W@std@@V?$allocator@_W@2@@std@@@2@V?$allocator@U?$pair@$$CBV?$basic_string@_WU?$char_traits@_W@std@@V?$allocator@_W@2@@std@@V?$set@P6AXPB_W_J@ZU?$less@P6AXPB_W_J@Z@std@@V?$allocator@P6AXPB_W_J@Z@2@@2@@std@@@2@$0A@@std@@@std@@@std@@QAEAAV01@XZ 10037650 f i mcdiskcheck.obj
 0002:000356a0       ?_Insert@?$_Tree@V?$_Tset_traits@P6AXPB_W_J@ZU?$less@P6AXPB_W_J@Z@std@@V?$allocator@P6AXPB_W_J@Z@2@$0A@@std@@@std@@IAE?AV?$_Tree_const_iterator@V?$_Tree_val@V?$_Tset_traits@P6AXPB_W_J@ZU?$less@P6AXPB_W_J@Z@std@@V?$allocator@P6AXPB_W_J@Z@2@$0A@@std@@@std@@@2@_NPAU_Node@?$_Tree_nod@V?$_Tset_traits@P6AXPB_W_J@ZU?$less@P6AXPB_W_J@Z@std@@V?$allocator@P6AXPB_W_J@Z@2@$0A@@std@@@2@1@Z 100376a0 f i mcdiskcheck.obj
 0002:00035b10       ??F?$_Tree_const_iterator@V?$_Tree_val@V?$_Tset_traits@P6AXPB_W_J@ZU?$less@P6AXPB_W_J@Z@std@@V?$allocator@P6AXPB_W_J@Z@2@$0A@@std@@@std@@@std@@QAEAAV01@XZ 10037b10 f i mcdiskcheck.obj
 0002:00035b60       ??0?$pair@V?$_Tree_const_iterator@V?$_Tree_val@V?$_Tset_traits@P6AXPB_W_J@ZU?$less@P6AXPB_W_J@Z@std@@V?$allocator@P6AXPB_W_J@Z@2@$0A@@std@@@std@@@std@@_N@std@@QAE@$$QAV?$_Tree_const_iterator@V?$_Tree_val@V?$_Tset_traits@P6AXPB_W_J@ZU?$less@P6AXPB_W_J@Z@std@@V?$allocator@P6AXPB_W_J@Z@2@$0A@@std@@@std@@@1@$$QA_N@Z 10037b60 f i mcdiskcheck.obj
 0002:00035bc0       ??0?$pair@V?$_Tree_iterator@V?$_Tree_val@V?$_Tmap_traits@V?$basic_string@_WU?$char_traits@_W@std@@V?$allocator@_W@2@@std@@V?$set@P6AXPB_W_J@ZU?$less@P6AXPB_W_J@Z@std@@V?$allocator@P6AXPB_W_J@Z@2@@2@U?$less@V?$basic_string@_WU?$char_traits@_W@std@@V?$allocator@_W@2@@std@@@2@V?$allocator@U?$pair@$$CBV?$basic_string@_WU?$char_traits@_W@std@@V?$allocator@_W@2@@std@@V?$set@P6AXPB_W_J@ZU?$less@P6AXPB_W_J@Z@std@@V?$allocator@P6AXPB_W_J@Z@2@@2@@std@@@2@$0A@@std@@@std@@@std@@_N@std@@QAE@$$QAV?$_Tree_iterator@V?$_Tree_val@V?$_Tmap_traits@V?$basic_string@_WU?$char_traits@_W@std@@V?$allocator@_W@2@@std@@V?$set@P6AXPB_W_J@ZU?$less@P6AXPB_W_J@Z@std@@V?$allocator@P6AXPB_W_J@Z@2@@2@U?$less@V?$basic_string@_WU?$char_traits@_W@std@@V?$allocator@_W@2@@std@@@2@V?$allocator@U?$pair@$$CBV?$basic_string@_WU?$char_traits@_W@std@@V?$allocator@_W@2@@std@@V?$set@P6AXPB_W_J@ZU?$less@P6AXPB_W_J@Z@std@@V?$allocator@P6AXPB_W_J@Z@2@@2@@std@@@2@$0A@@std@@@std@@@1@$$QA_N@Z 10037bc0 f i mcdiskcheck.obj
 0002:00035c20       ?max_size@?$_Tree@V?$_Tmap_traits@V?$basic_string@_WU?$char_traits@_W@std@@V?$allocator@_W@2@@std@@V?$set@P6AXPB_W_J@ZU?$less@P6AXPB_W_J@Z@std@@V?$allocator@P6AXPB_W_J@Z@2@@2@U?$less@V?$basic_string@_WU?$char_traits@_W@std@@V?$allocator@_W@2@@std@@@2@V?$allocator@U?$pair@$$CBV?$basic_string@_WU?$char_traits@_W@std@@V?$allocator@_W@2@@std@@V?$set@P6AXPB_W_J@ZU?$less@P6AXPB_W_J@Z@std@@V?$allocator@P6AXPB_W_J@Z@2@@2@@std@@@2@$0A@@std@@@std@@QBEIXZ 10037c20 f i mcdiskcheck.obj
 0002:00035c70       ??F?$_Tree_const_iterator@V?$_Tree_val@V?$_Tmap_traits@V?$basic_string@_WU?$char_traits@_W@std@@V?$allocator@_W@2@@std@@V?$set@P6AXPB_W_J@ZU?$less@P6AXPB_W_J@Z@std@@V?$allocator@P6AXPB_W_J@Z@2@@2@U?$less@V?$basic_string@_WU?$char_traits@_W@std@@V?$allocator@_W@2@@std@@@2@V?$allocator@U?$pair@$$CBV?$basic_string@_WU?$char_traits@_W@std@@V?$allocator@_W@2@@std@@V?$set@P6AXPB_W_J@ZU?$less@P6AXPB_W_J@Z@std@@V?$allocator@P6AXPB_W_J@Z@2@@2@@std@@@2@$0A@@std@@@std@@@std@@QAEAAV01@XZ 10037c70 f i mcdiskcheck.obj
 0002:00035cc0       ?max_size@?$_Tree@V?$_Tset_traits@P6AXPB_W_J@ZU?$less@P6AXPB_W_J@Z@std@@V?$allocator@P6AXPB_W_J@Z@2@$0A@@std@@@std@@QBEIXZ 10037cc0 f i mcdiskcheck.obj
 0002:00035d10       ??F?$_Tree_unchecked_const_iterator@V?$_Tree_val@V?$_Tset_traits@P6AXPB_W_J@ZU?$less@P6AXPB_W_J@Z@std@@V?$allocator@P6AXPB_W_J@Z@2@$0A@@std@@@std@@U_Iterator_base0@2@@std@@QAEAAV01@XZ 10037d10 f i mcdiskcheck.obj
 0002:00035e20       ??0?$_Pair_base@V?$_Tree_const_iterator@V?$_Tree_val@V?$_Tset_traits@P6AXPB_W_J@ZU?$less@P6AXPB_W_J@Z@std@@V?$allocator@P6AXPB_W_J@Z@2@$0A@@std@@@std@@@std@@_N@std@@QAE@$$QAV?$_Tree_const_iterator@V?$_Tree_val@V?$_Tset_traits@P6AXPB_W_J@ZU?$less@P6AXPB_W_J@Z@std@@V?$allocator@P6AXPB_W_J@Z@2@$0A@@std@@@std@@@1@$$QA_N@Z 10037e20 f i mcdiskcheck.obj
 0002:00035e90       ??0?$_Pair_base@V?$_Tree_iterator@V?$_Tree_val@V?$_Tmap_traits@V?$basic_string@_WU?$char_traits@_W@std@@V?$allocator@_W@2@@std@@V?$set@P6AXPB_W_J@ZU?$less@P6AXPB_W_J@Z@std@@V?$allocator@P6AXPB_W_J@Z@2@@2@U?$less@V?$basic_string@_WU?$char_traits@_W@std@@V?$allocator@_W@2@@std@@@2@V?$allocator@U?$pair@$$CBV?$basic_string@_WU?$char_traits@_W@std@@V?$allocator@_W@2@@std@@V?$set@P6AXPB_W_J@ZU?$less@P6AXPB_W_J@Z@std@@V?$allocator@P6AXPB_W_J@Z@2@@2@@std@@@2@$0A@@std@@@std@@@std@@_N@std@@QAE@$$QAV?$_Tree_iterator@V?$_Tree_val@V?$_Tmap_traits@V?$basic_string@_WU?$char_traits@_W@std@@V?$allocator@_W@2@@std@@V?$set@P6AXPB_W_J@ZU?$less@P6AXPB_W_J@Z@std@@V?$allocator@P6AXPB_W_J@Z@2@@2@U?$less@V?$basic_string@_WU?$char_traits@_W@std@@V?$allocator@_W@2@@std@@@2@V?$allocator@U?$pair@$$CBV?$basic_string@_WU?$char_traits@_W@std@@V?$allocator@_W@2@@std@@V?$set@P6AXPB_W_J@ZU?$less@P6AXPB_W_J@Z@std@@V?$allocator@P6AXPB_W_J@Z@2@@2@@std@@@2@$0A@@std@@@std@@@1@$$QA_N@Z 10037e90 f i mcdiskcheck.obj
 0002:00035f00       ?max_size@?$allocator@U?$pair@$$CBV?$basic_string@_WU?$char_traits@_W@std@@V?$allocator@_W@2@@std@@V?$set@P6AXPB_W_J@ZU?$less@P6AXPB_W_J@Z@std@@V?$allocator@P6AXPB_W_J@Z@2@@2@@std@@@std@@QBEIXZ 10037f00 f i mcdiskcheck.obj
 0002:00035f60       ??F?$_Tree_unchecked_const_iterator@V?$_Tree_val@V?$_Tmap_traits@V?$basic_string@_WU?$char_traits@_W@std@@V?$allocator@_W@2@@std@@V?$set@P6AXPB_W_J@ZU?$less@P6AXPB_W_J@Z@std@@V?$allocator@P6AXPB_W_J@Z@2@@2@U?$less@V?$basic_string@_WU?$char_traits@_W@std@@V?$allocator@_W@2@@std@@@2@V?$allocator@U?$pair@$$CBV?$basic_string@_WU?$char_traits@_W@std@@V?$allocator@_W@2@@std@@V?$set@P6AXPB_W_J@ZU?$less@P6AXPB_W_J@Z@std@@V?$allocator@P6AXPB_W_J@Z@2@@2@@std@@@2@$0A@@std@@@std@@U_Iterator_base0@2@@std@@QAEAAV01@XZ 10037f60 f i mcdiskcheck.obj
 0002:00036070       ?max_size@?$allocator@P6AXPB_W_J@Z@std@@QBEIXZ 10038070 f i mcdiskcheck.obj
 0002:000360d0       ??$forward@AAP6AXPB_W_J@Z@std@@YAAAP6AXPB_W_J@ZAAP6AX01@Z@Z 100380d0 f i mcdiskcheck.obj
 0002:00036100       ??$_Buynode@AAP6AXPB_W_J@Z@?$_Tree_val@V?$_Tset_traits@P6AXPB_W_J@ZU?$less@P6AXPB_W_J@Z@std@@V?$allocator@P6AXPB_W_J@Z@2@$0A@@std@@@std@@QAEPAU_Node@?$_Tree_nod@V?$_Tset_traits@P6AXPB_W_J@ZU?$less@P6AXPB_W_J@Z@std@@V?$allocator@P6AXPB_W_J@Z@2@$0A@@std@@@1@AAP6AXPB_W_J@Z@Z 10038100 f i mcdiskcheck.obj
 0002:00036210       ??$forward@V?$basic_string@_WU?$char_traits@_W@std@@V?$allocator@_W@2@@std@@@std@@YA$$QAV?$basic_string@_WU?$char_traits@_W@std@@V?$allocator@_W@2@@0@AAV10@@Z 10038210 f i mcdiskcheck.obj
 0002:00036240       ??$forward@AAV?$set@P6AXPB_W_J@ZU?$less@P6AXPB_W_J@Z@std@@V?$allocator@P6AXPB_W_J@Z@2@@std@@@std@@YAAAV?$set@P6AXPB_W_J@ZU?$less@P6AXPB_W_J@Z@std@@V?$allocator@P6AXPB_W_J@Z@2@@0@AAV10@@Z 10038240 f i mcdiskcheck.obj
 0002:00036270       ??$?0V?$basic_string@_WU?$char_traits@_W@std@@V?$allocator@_W@2@@std@@AAV?$set@P6AXPB_W_J@ZU?$less@P6AXPB_W_J@Z@std@@V?$allocator@P6AXPB_W_J@Z@2@@1@@?$pair@V?$basic_string@_WU?$char_traits@_W@std@@V?$allocator@_W@2@@std@@V?$set@P6AXPB_W_J@ZU?$less@P6AXPB_W_J@Z@std@@V?$allocator@P6AXPB_W_J@Z@2@@2@@std@@QAE@$$QAV?$basic_string@_WU?$char_traits@_W@std@@V?$allocator@_W@2@@1@AAV?$set@P6AXPB_W_J@ZU?$less@P6AXPB_W_J@Z@std@@V?$allocator@P6AXPB_W_J@Z@2@@1@@Z 10038270 f i mcdiskcheck.obj
 0002:000362d0       ??$forward@U?$pair@V?$basic_string@_WU?$char_traits@_W@std@@V?$allocator@_W@2@@std@@V?$set@P6AXPB_W_J@ZU?$less@P6AXPB_W_J@Z@std@@V?$allocator@P6AXPB_W_J@Z@2@@2@@std@@@std@@YA$$QAU?$pair@V?$basic_string@_WU?$char_traits@_W@std@@V?$allocator@_W@2@@std@@V?$set@P6AXPB_W_J@ZU?$less@P6AXPB_W_J@Z@std@@V?$allocator@P6AXPB_W_J@Z@2@@2@@0@AAU10@@Z 100382d0 f i mcdiskcheck.obj
 0002:00036300       ??$_Buynode@U?$pair@V?$basic_string@_WU?$char_traits@_W@std@@V?$allocator@_W@2@@std@@V?$set@P6AXPB_W_J@ZU?$less@P6AXPB_W_J@Z@std@@V?$allocator@P6AXPB_W_J@Z@2@@2@@std@@@?$_Tree_val@V?$_Tmap_traits@V?$basic_string@_WU?$char_traits@_W@std@@V?$allocator@_W@2@@std@@V?$set@P6AXPB_W_J@ZU?$less@P6AXPB_W_J@Z@std@@V?$allocator@P6AXPB_W_J@Z@2@@2@U?$less@V?$basic_string@_WU?$char_traits@_W@std@@V?$allocator@_W@2@@std@@@2@V?$allocator@U?$pair@$$CBV?$basic_string@_WU?$char_traits@_W@std@@V?$allocator@_W@2@@std@@V?$set@P6AXPB_W_J@ZU?$less@P6AXPB_W_J@Z@std@@V?$allocator@P6AXPB_W_J@Z@2@@2@@std@@@2@$0A@@std@@@std@@QAEPAU_Node@?$_Tree_nod@V?$_Tmap_traits@V?$basic_string@_WU?$char_traits@_W@std@@V?$allocator@_W@2@@std@@V?$set@P6AXPB_W_J@ZU?$less@P6AXPB_W_J@Z@std@@V?$allocator@P6AXPB_W_J@Z@2@@2@U?$less@V?$basic_string@_WU?$char_traits@_W@std@@V?$allocator@_W@2@@std@@@2@V?$allocator@U?$pair@$$CBV?$basic_string@_WU?$char_traits@_W@std@@V?$allocator@_W@2@@std@@V?$set@P6AXPB_W_J@ZU?$less@P6AXPB_W_J@Z@std@@V?$allocator@P6AXPB_W_J@Z@2@@2@@std@@@2@$0A@@std@@@1@$$QAU?$pair@V?$basic_string@_WU?$char_traits@_W@std@@V?$allocator@_W@2@@std@@V?$set@P6AXPB_W_J@ZU?$less@P6AXPB_W_J@Z@std@@V?$allocator@P6AXPB_W_J@Z@2@@2@@1@@Z 10038300 f i mcdiskcheck.obj
 0002:00036410       ??$_Move@AAD@std@@YA$$QADAAD@Z 10038410 f i mcdiskcheck.obj
 0002:00036440       ??$?0AAV?$_Tree_iterator@V?$_Tree_val@V?$_Tmap_traits@V?$basic_string@_WU?$char_traits@_W@std@@V?$allocator@_W@2@@std@@V?$set@P6AXPB_W_J@ZU?$less@P6AXPB_W_J@Z@std@@V?$allocator@P6AXPB_W_J@Z@2@@2@U?$less@V?$basic_string@_WU?$char_traits@_W@std@@V?$allocator@_W@2@@std@@@2@V?$allocator@U?$pair@$$CBV?$basic_string@_WU?$char_traits@_W@std@@V?$allocator@_W@2@@std@@V?$set@P6AXPB_W_J@ZU?$less@P6AXPB_W_J@Z@std@@V?$allocator@P6AXPB_W_J@Z@2@@2@@std@@@2@$0A@@std@@@std@@@std@@_N@?$pair@V?$_Tree_iterator@V?$_Tree_val@V?$_Tmap_traits@V?$basic_string@_WU?$char_traits@_W@std@@V?$allocator@_W@2@@std@@V?$set@P6AXPB_W_J@ZU?$less@P6AXPB_W_J@Z@std@@V?$allocator@P6AXPB_W_J@Z@2@@2@U?$less@V?$basic_string@_WU?$char_traits@_W@std@@V?$allocator@_W@2@@std@@@2@V?$allocator@U?$pair@$$CBV?$basic_string@_WU?$char_traits@_W@std@@V?$allocator@_W@2@@std@@V?$set@P6AXPB_W_J@ZU?$less@P6AXPB_W_J@Z@std@@V?$allocator@P6AXPB_W_J@Z@2@@2@@std@@@2@$0A@@std@@@std@@@std@@_N@std@@QAE@AAV?$_Tree_iterator@V?$_Tree_val@V?$_Tmap_traits@V?$basic_string@_WU?$char_traits@_W@std@@V?$allocator@_W@2@@std@@V?$set@P6AXPB_W_J@ZU?$less@P6AXPB_W_J@Z@std@@V?$allocator@P6AXPB_W_J@Z@2@@2@U?$less@V?$basic_string@_WU?$char_traits@_W@std@@V?$allocator@_W@2@@std@@@2@V?$allocator@U?$pair@$$CBV?$basic_string@_WU?$char_traits@_W@std@@V?$allocator@_W@2@@std@@V?$set@P6AXPB_W_J@ZU?$less@P6AXPB_W_J@Z@std@@V?$allocator@P6AXPB_W_J@Z@2@@2@@std@@@2@$0A@@std@@@std@@@1@$$QA_N@Z 10038440 f i mcdiskcheck.obj
 0002:000364a0       ??$_Destroy@U?$pair@$$CBV?$basic_string@_WU?$char_traits@_W@std@@V?$allocator@_W@2@@std@@V?$set@P6AXPB_W_J@ZU?$less@P6AXPB_W_J@Z@std@@V?$allocator@P6AXPB_W_J@Z@2@@2@@std@@@std@@YAXPAU?$pair@$$CBV?$basic_string@_WU?$char_traits@_W@std@@V?$allocator@_W@2@@std@@V?$set@P6AXPB_W_J@ZU?$less@P6AXPB_W_J@Z@std@@V?$allocator@P6AXPB_W_J@Z@2@@2@@0@@Z 100384a0 f i mcdiskcheck.obj
 0002:000364e0       ??$?0AAV?$_Tree_const_iterator@V?$_Tree_val@V?$_Tset_traits@P6AXPB_W_J@ZU?$less@P6AXPB_W_J@Z@std@@V?$allocator@P6AXPB_W_J@Z@2@$0A@@std@@@std@@@std@@_N@?$pair@V?$_Tree_const_iterator@V?$_Tree_val@V?$_Tset_traits@P6AXPB_W_J@ZU?$less@P6AXPB_W_J@Z@std@@V?$allocator@P6AXPB_W_J@Z@2@$0A@@std@@@std@@@std@@_N@std@@QAE@AAV?$_Tree_const_iterator@V?$_Tree_val@V?$_Tset_traits@P6AXPB_W_J@ZU?$less@P6AXPB_W_J@Z@std@@V?$allocator@P6AXPB_W_J@Z@2@$0A@@std@@@std@@@1@$$QA_N@Z 100384e0 f i mcdiskcheck.obj
 0002:00036540       ??$_Destroy@P6AXPB_W_J@Z@std@@YAXPAP6AXPB_W_J@Z@Z 10038540 f i mcdiskcheck.obj
 0002:00036570       ??$move@AAV?$_Tree_const_iterator@V?$_Tree_val@V?$_Tset_traits@P6AXPB_W_J@ZU?$less@P6AXPB_W_J@Z@std@@V?$allocator@P6AXPB_W_J@Z@2@$0A@@std@@@std@@@std@@@std@@YA$$QAV?$_Tree_const_iterator@V?$_Tree_val@V?$_Tset_traits@P6AXPB_W_J@ZU?$less@P6AXPB_W_J@Z@std@@V?$allocator@P6AXPB_W_J@Z@2@$0A@@std@@@std@@@0@AAV10@@Z 10038570 f i mcdiskcheck.obj
 0002:000365a0       ??$move@AA_N@std@@YA$$QA_NAA_N@Z 100385a0 f i mcdiskcheck.obj
 0002:000365d0       ??$move@AAV?$_Tree_iterator@V?$_Tree_val@V?$_Tmap_traits@V?$basic_string@_WU?$char_traits@_W@std@@V?$allocator@_W@2@@std@@V?$set@P6AXPB_W_J@ZU?$less@P6AXPB_W_J@Z@std@@V?$allocator@P6AXPB_W_J@Z@2@@2@U?$less@V?$basic_string@_WU?$char_traits@_W@std@@V?$allocator@_W@2@@std@@@2@V?$allocator@U?$pair@$$CBV?$basic_string@_WU?$char_traits@_W@std@@V?$allocator@_W@2@@std@@V?$set@P6AXPB_W_J@ZU?$less@P6AXPB_W_J@Z@std@@V?$allocator@P6AXPB_W_J@Z@2@@2@@std@@@2@$0A@@std@@@std@@@std@@@std@@YA$$QAV?$_Tree_iterator@V?$_Tree_val@V?$_Tmap_traits@V?$basic_string@_WU?$char_traits@_W@std@@V?$allocator@_W@2@@std@@V?$set@P6AXPB_W_J@ZU?$less@P6AXPB_W_J@Z@std@@V?$allocator@P6AXPB_W_J@Z@2@@2@U?$less@V?$basic_string@_WU?$char_traits@_W@std@@V?$allocator@_W@2@@std@@@2@V?$allocator@U?$pair@$$CBV?$basic_string@_WU?$char_traits@_W@std@@V?$allocator@_W@2@@std@@V?$set@P6AXPB_W_J@ZU?$less@P6AXPB_W_J@Z@std@@V?$allocator@P6AXPB_W_J@Z@2@@2@@std@@@2@$0A@@std@@@std@@@0@AAV10@@Z 100385d0 f i mcdiskcheck.obj
 0002:00036600       ??_G?$pair@$$CBV?$basic_string@_WU?$char_traits@_W@std@@V?$allocator@_W@2@@std@@V?$set@P6AXPB_W_J@ZU?$less@P6AXPB_W_J@Z@std@@V?$allocator@P6AXPB_W_J@Z@2@@2@@std@@QAEPAXI@Z 10038600 f i mcdiskcheck.obj
 0002:00036660       ??1?$pair@$$CBV?$basic_string@_WU?$char_traits@_W@std@@V?$allocator@_W@2@@std@@V?$set@P6AXPB_W_J@ZU?$less@P6AXPB_W_J@Z@std@@V?$allocator@P6AXPB_W_J@Z@2@@2@@std@@QAE@XZ 10038660 f i mcdiskcheck.obj
 0002:000366a0       ??1?$_Pair_base@$$CBV?$basic_string@_WU?$char_traits@_W@std@@V?$allocator@_W@2@@std@@V?$set@P6AXPB_W_J@ZU?$less@P6AXPB_W_J@Z@std@@V?$allocator@P6AXPB_W_J@Z@2@@2@@std@@QAE@XZ 100386a0 f i mcdiskcheck.obj
 0002:00036730       ?_Buynode@?$_Tree_val@V?$_Tmap_traits@V?$basic_string@_WU?$char_traits@_W@std@@V?$allocator@_W@2@@std@@V?$set@P6AXPB_W_J@ZU?$less@P6AXPB_W_J@Z@std@@V?$allocator@P6AXPB_W_J@Z@2@@2@U?$less@V?$basic_string@_WU?$char_traits@_W@std@@V?$allocator@_W@2@@std@@@2@V?$allocator@U?$pair@$$CBV?$basic_string@_WU?$char_traits@_W@std@@V?$allocator@_W@2@@std@@V?$set@P6AXPB_W_J@ZU?$less@P6AXPB_W_J@Z@std@@V?$allocator@P6AXPB_W_J@Z@2@@2@@std@@@2@$0A@@std@@@std@@QAEPAU_Node@?$_Tree_nod@V?$_Tmap_traits@V?$basic_string@_WU?$char_traits@_W@std@@V?$allocator@_W@2@@std@@V?$set@P6AXPB_W_J@ZU?$less@P6AXPB_W_J@Z@std@@V?$allocator@P6AXPB_W_J@Z@2@@2@U?$less@V?$basic_string@_WU?$char_traits@_W@std@@V?$allocator@_W@2@@std@@@2@V?$allocator@U?$pair@$$CBV?$basic_string@_WU?$char_traits@_W@std@@V?$allocator@_W@2@@std@@V?$set@P6AXPB_W_J@ZU?$less@P6AXPB_W_J@Z@std@@V?$allocator@P6AXPB_W_J@Z@2@@2@@std@@@2@$0A@@std@@@2@XZ 10038730 f i mcdiskcheck.obj
 0002:000367e0       ?allocate@?$allocator@U_Node@?$_Tree_nod@V?$_Tmap_traits@V?$basic_string@_WU?$char_traits@_W@std@@V?$allocator@_W@2@@std@@V?$set@P6AXPB_W_J@ZU?$less@P6AXPB_W_J@Z@std@@V?$allocator@P6AXPB_W_J@Z@2@@2@U?$less@V?$basic_string@_WU?$char_traits@_W@std@@V?$allocator@_W@2@@std@@@2@V?$allocator@U?$pair@$$CBV?$basic_string@_WU?$char_traits@_W@std@@V?$allocator@_W@2@@std@@V?$set@P6AXPB_W_J@ZU?$less@P6AXPB_W_J@Z@std@@V?$allocator@P6AXPB_W_J@Z@2@@2@@std@@@2@$0A@@std@@@std@@@std@@QAEPAU_Node@?$_Tree_nod@V?$_Tmap_traits@V?$basic_string@_WU?$char_traits@_W@std@@V?$allocator@_W@2@@std@@V?$set@P6AXPB_W_J@ZU?$less@P6AXPB_W_J@Z@std@@V?$allocator@P6AXPB_W_J@Z@2@@2@U?$less@V?$basic_string@_WU?$char_traits@_W@std@@V?$allocator@_W@2@@std@@@2@V?$allocator@U?$pair@$$CBV?$basic_string@_WU?$char_traits@_W@std@@V?$allocator@_W@2@@std@@V?$set@P6AXPB_W_J@ZU?$less@P6AXPB_W_J@Z@std@@V?$allocator@P6AXPB_W_J@Z@2@@2@@std@@@2@$0A@@std@@@2@I@Z 100387e0 f i mcdiskcheck.obj
 0002:00036830       ??$_Allocate@U_Node@?$_Tree_nod@V?$_Tmap_traits@V?$basic_string@_WU?$char_traits@_W@std@@V?$allocator@_W@2@@std@@V?$set@P6AXPB_W_J@ZU?$less@P6AXPB_W_J@Z@std@@V?$allocator@P6AXPB_W_J@Z@2@@2@U?$less@V?$basic_string@_WU?$char_traits@_W@std@@V?$allocator@_W@2@@std@@@2@V?$allocator@U?$pair@$$CBV?$basic_string@_WU?$char_traits@_W@std@@V?$allocator@_W@2@@std@@V?$set@P6AXPB_W_J@ZU?$less@P6AXPB_W_J@Z@std@@V?$allocator@P6AXPB_W_J@Z@2@@2@@std@@@2@$0A@@std@@@std@@@std@@YAPAU_Node@?$_Tree_nod@V?$_Tmap_traits@V?$basic_string@_WU?$char_traits@_W@std@@V?$allocator@_W@2@@std@@V?$set@P6AXPB_W_J@ZU?$less@P6AXPB_W_J@Z@std@@V?$allocator@P6AXPB_W_J@Z@2@@2@U?$less@V?$basic_string@_WU?$char_traits@_W@std@@V?$allocator@_W@2@@std@@@2@V?$allocator@U?$pair@$$CBV?$basic_string@_WU?$char_traits@_W@std@@V?$allocator@_W@2@@std@@V?$set@P6AXPB_W_J@ZU?$less@P6AXPB_W_J@Z@std@@V?$allocator@P6AXPB_W_J@Z@2@@2@@std@@@2@$0A@@std@@@0@IPAU120@@Z 10038830 f i mcdiskcheck.obj
 0002:000368c0       ?_Buynode@?$_Tree_val@V?$_Tset_traits@P6AXPB_W_J@ZU?$less@P6AXPB_W_J@Z@std@@V?$allocator@P6AXPB_W_J@Z@2@$0A@@std@@@std@@QAEPAU_Node@?$_Tree_nod@V?$_Tset_traits@P6AXPB_W_J@ZU?$less@P6AXPB_W_J@Z@std@@V?$allocator@P6AXPB_W_J@Z@2@$0A@@std@@@2@XZ 100388c0 f i mcdiskcheck.obj
 0002:00036970       ??$_Cons_val@V?$allocator@P6AXPB_W_J@Z@std@@P6AXPB_W_J@ZAAP6AX01@Z@std@@YAXAAV?$allocator@P6AXPB_W_J@Z@0@PAP6AXPB_W_J@ZAAP6AX12@Z@Z 10038970 f i mcdiskcheck.obj
 0002:000369c0       ??$?0V?$basic_string@_WU?$char_traits@_W@std@@V?$allocator@_W@2@@std@@AAV?$set@P6AXPB_W_J@ZU?$less@P6AXPB_W_J@Z@std@@V?$allocator@P6AXPB_W_J@Z@2@@1@@?$_Pair_base@V?$basic_string@_WU?$char_traits@_W@std@@V?$allocator@_W@2@@std@@V?$set@P6AXPB_W_J@ZU?$less@P6AXPB_W_J@Z@std@@V?$allocator@P6AXPB_W_J@Z@2@@2@@std@@QAE@$$QAV?$basic_string@_WU?$char_traits@_W@std@@V?$allocator@_W@2@@1@AAV?$set@P6AXPB_W_J@ZU?$less@P6AXPB_W_J@Z@std@@V?$allocator@P6AXPB_W_J@Z@2@@1@@Z 100389c0 f i mcdiskcheck.obj
 0002:00036a70       ??$_Cons_val@V?$allocator@U?$pair@$$CBV?$basic_string@_WU?$char_traits@_W@std@@V?$allocator@_W@2@@std@@V?$set@P6AXPB_W_J@ZU?$less@P6AXPB_W_J@Z@std@@V?$allocator@P6AXPB_W_J@Z@2@@2@@std@@@std@@U?$pair@$$CBV?$basic_string@_WU?$char_traits@_W@std@@V?$allocator@_W@2@@std@@V?$set@P6AXPB_W_J@ZU?$less@P6AXPB_W_J@Z@std@@V?$allocator@P6AXPB_W_J@Z@2@@2@@2@U?$pair@V?$basic_string@_WU?$char_traits@_W@std@@V?$allocator@_W@2@@std@@V?$set@P6AXPB_W_J@ZU?$less@P6AXPB_W_J@Z@std@@V?$allocator@P6AXPB_W_J@Z@2@@2@@2@@std@@YAXAAV?$allocator@U?$pair@$$CBV?$basic_string@_WU?$char_traits@_W@std@@V?$allocator@_W@2@@std@@V?$set@P6AXPB_W_J@ZU?$less@P6AXPB_W_J@Z@std@@V?$allocator@P6AXPB_W_J@Z@2@@2@@std@@@0@PAU?$pair@$$CBV?$basic_string@_WU?$char_traits@_W@std@@V?$allocator@_W@2@@std@@V?$set@P6AXPB_W_J@ZU?$less@P6AXPB_W_J@Z@std@@V?$allocator@P6AXPB_W_J@Z@2@@2@@0@$$QAU?$pair@V?$basic_string@_WU?$char_traits@_W@std@@V?$allocator@_W@2@@std@@V?$set@P6AXPB_W_J@ZU?$less@P6AXPB_W_J@Z@std@@V?$allocator@P6AXPB_W_J@Z@2@@2@@0@@Z 10038a70 f i mcdiskcheck.obj
 0002:00036ac0       ??$forward@AAV?$_Tree_iterator@V?$_Tree_val@V?$_Tmap_traits@V?$basic_string@_WU?$char_traits@_W@std@@V?$allocator@_W@2@@std@@V?$set@P6AXPB_W_J@ZU?$less@P6AXPB_W_J@Z@std@@V?$allocator@P6AXPB_W_J@Z@2@@2@U?$less@V?$basic_string@_WU?$char_traits@_W@std@@V?$allocator@_W@2@@std@@@2@V?$allocator@U?$pair@$$CBV?$basic_string@_WU?$char_traits@_W@std@@V?$allocator@_W@2@@std@@V?$set@P6AXPB_W_J@ZU?$less@P6AXPB_W_J@Z@std@@V?$allocator@P6AXPB_W_J@Z@2@@2@@std@@@2@$0A@@std@@@std@@@std@@@std@@YAAAV?$_Tree_iterator@V?$_Tree_val@V?$_Tmap_traits@V?$basic_string@_WU?$char_traits@_W@std@@V?$allocator@_W@2@@std@@V?$set@P6AXPB_W_J@ZU?$less@P6AXPB_W_J@Z@std@@V?$allocator@P6AXPB_W_J@Z@2@@2@U?$less@V?$basic_string@_WU?$char_traits@_W@std@@V?$allocator@_W@2@@std@@@2@V?$allocator@U?$pair@$$CBV?$basic_string@_WU?$char_traits@_W@std@@V?$allocator@_W@2@@std@@V?$set@P6AXPB_W_J@ZU?$less@P6AXPB_W_J@Z@std@@V?$allocator@P6AXPB_W_J@Z@2@@2@@std@@@2@$0A@@std@@@std@@@0@AAV10@@Z 10038ac0 f i mcdiskcheck.obj
 0002:00036af0       ??$forward@_N@std@@YA$$QA_NAA_N@Z 10038af0 f i mcdiskcheck.obj
 0002:00036b20       ??$?0AAV?$_Tree_iterator@V?$_Tree_val@V?$_Tmap_traits@V?$basic_string@_WU?$char_traits@_W@std@@V?$allocator@_W@2@@std@@V?$set@P6AXPB_W_J@ZU?$less@P6AXPB_W_J@Z@std@@V?$allocator@P6AXPB_W_J@Z@2@@2@U?$less@V?$basic_string@_WU?$char_traits@_W@std@@V?$allocator@_W@2@@std@@@2@V?$allocator@U?$pair@$$CBV?$basic_string@_WU?$char_traits@_W@std@@V?$allocator@_W@2@@std@@V?$set@P6AXPB_W_J@ZU?$less@P6AXPB_W_J@Z@std@@V?$allocator@P6AXPB_W_J@Z@2@@2@@std@@@2@$0A@@std@@@std@@@std@@_N@?$_Pair_base@V?$_Tree_iterator@V?$_Tree_val@V?$_Tmap_traits@V?$basic_string@_WU?$char_traits@_W@std@@V?$allocator@_W@2@@std@@V?$set@P6AXPB_W_J@ZU?$less@P6AXPB_W_J@Z@std@@V?$allocator@P6AXPB_W_J@Z@2@@2@U?$less@V?$basic_string@_WU?$char_traits@_W@std@@V?$allocator@_W@2@@std@@@2@V?$allocator@U?$pair@$$CBV?$basic_string@_WU?$char_traits@_W@std@@V?$allocator@_W@2@@std@@V?$set@P6AXPB_W_J@ZU?$less@P6AXPB_W_J@Z@std@@V?$allocator@P6AXPB_W_J@Z@2@@2@@std@@@2@$0A@@std@@@std@@@std@@_N@std@@QAE@AAV?$_Tree_iterator@V?$_Tree_val@V?$_Tmap_traits@V?$basic_string@_WU?$char_traits@_W@std@@V?$allocator@_W@2@@std@@V?$set@P6AXPB_W_J@ZU?$less@P6AXPB_W_J@Z@std@@V?$allocator@P6AXPB_W_J@Z@2@@2@U?$less@V?$basic_string@_WU?$char_traits@_W@std@@V?$allocator@_W@2@@std@@@2@V?$allocator@U?$pair@$$CBV?$basic_string@_WU?$char_traits@_W@std@@V?$allocator@_W@2@@std@@V?$set@P6AXPB_W_J@ZU?$less@P6AXPB_W_J@Z@std@@V?$allocator@P6AXPB_W_J@Z@2@@2@@std@@@2@$0A@@std@@@std@@@1@$$QA_N@Z 10038b20 f i mcdiskcheck.obj
 0002:00036b90       ??$forward@AAV?$_Tree_const_iterator@V?$_Tree_val@V?$_Tset_traits@P6AXPB_W_J@ZU?$less@P6AXPB_W_J@Z@std@@V?$allocator@P6AXPB_W_J@Z@2@$0A@@std@@@std@@@std@@@std@@YAAAV?$_Tree_const_iterator@V?$_Tree_val@V?$_Tset_traits@P6AXPB_W_J@ZU?$less@P6AXPB_W_J@Z@std@@V?$allocator@P6AXPB_W_J@Z@2@$0A@@std@@@std@@@0@AAV10@@Z 10038b90 f i mcdiskcheck.obj
 0002:00036bc0       ??$?0AAV?$_Tree_const_iterator@V?$_Tree_val@V?$_Tset_traits@P6AXPB_W_J@ZU?$less@P6AXPB_W_J@Z@std@@V?$allocator@P6AXPB_W_J@Z@2@$0A@@std@@@std@@@std@@_N@?$_Pair_base@V?$_Tree_const_iterator@V?$_Tree_val@V?$_Tset_traits@P6AXPB_W_J@ZU?$less@P6AXPB_W_J@Z@std@@V?$allocator@P6AXPB_W_J@Z@2@$0A@@std@@@std@@@std@@_N@std@@QAE@AAV?$_Tree_const_iterator@V?$_Tree_val@V?$_Tset_traits@P6AXPB_W_J@ZU?$less@P6AXPB_W_J@Z@std@@V?$allocator@P6AXPB_W_J@Z@2@$0A@@std@@@std@@@1@$$QA_N@Z 10038bc0 f i mcdiskcheck.obj
 0002:00036c30       ??0?$basic_string@_WU?$char_traits@_W@std@@V?$allocator@_W@2@@std@@QAE@$$QAV01@@Z 10038c30 f i mcdiskcheck.obj
 0002:00036cf0       ?assign@?$basic_string@_WU?$char_traits@_W@std@@V?$allocator@_W@2@@std@@QAEAAV12@$$QAV12@@Z 10038cf0 f i mcdiskcheck.obj
 0002:00036df0       ?get_allocator@?$basic_string@_WU?$char_traits@_W@std@@V?$allocator@_W@2@@std@@QBE?AV?$allocator@_W@2@XZ 10038df0 f i mcdiskcheck.obj
 0002:00036e40       ??$?9_W_W@std@@YA_NABV?$allocator@_W@0@0@Z 10038e40 f i mcdiskcheck.obj
 0002:00036e90       ??$?8_W_W@std@@YA_NABV?$allocator@_W@0@0@Z 10038e90 f i mcdiskcheck.obj
 0002:00036ec0       ??0?$set@P6AXPB_W_J@ZU?$less@P6AXPB_W_J@Z@std@@V?$allocator@P6AXPB_W_J@Z@2@@std@@QAE@ABV01@@Z 10038ec0 f i mcdiskcheck.obj
 0002:00036f10       ??0?$_Tree@V?$_Tset_traits@P6AXPB_W_J@ZU?$less@P6AXPB_W_J@Z@std@@V?$allocator@P6AXPB_W_J@Z@2@$0A@@std@@@std@@QAE@ABV01@@Z 10038f10 f i mcdiskcheck.obj
 0002:00036ff0       ?key_comp@?$_Tree@V?$_Tset_traits@P6AXPB_W_J@ZU?$less@P6AXPB_W_J@Z@std@@V?$allocator@P6AXPB_W_J@Z@2@$0A@@std@@@std@@QBE?AU?$less@P6AXPB_W_J@Z@2@XZ 10038ff0 f i mcdiskcheck.obj
 0002:00037020       ?_Copy@?$_Tree@V?$_Tset_traits@P6AXPB_W_J@ZU?$less@P6AXPB_W_J@Z@std@@V?$allocator@P6AXPB_W_J@Z@2@$0A@@std@@@std@@IAEXABV12@@Z 10039020 f i mcdiskcheck.obj
 0002:00037110       ?_Copy@?$_Tree@V?$_Tset_traits@P6AXPB_W_J@ZU?$less@P6AXPB_W_J@Z@std@@V?$allocator@P6AXPB_W_J@Z@2@$0A@@std@@@std@@IAEPAU_Node@?$_Tree_nod@V?$_Tset_traits@P6AXPB_W_J@ZU?$less@P6AXPB_W_J@Z@std@@V?$allocator@P6AXPB_W_J@Z@2@$0A@@std@@@2@PAU342@0@Z 10039110 f i mcdiskcheck.obj
 0002:000372c0       ??$construct@AAP6AXPB_W_J@Z@?$allocator@P6AXPB_W_J@Z@std@@QAEXPAP6AXPB_W_J@ZAAP6AX01@Z@Z 100392c0 f i mcdiskcheck.obj
 0002:00037390       ??$construct@U?$pair@V?$basic_string@_WU?$char_traits@_W@std@@V?$allocator@_W@2@@std@@V?$set@P6AXPB_W_J@ZU?$less@P6AXPB_W_J@Z@std@@V?$allocator@P6AXPB_W_J@Z@2@@2@@std@@@?$allocator@U?$pair@$$CBV?$basic_string@_WU?$char_traits@_W@std@@V?$allocator@_W@2@@std@@V?$set@P6AXPB_W_J@ZU?$less@P6AXPB_W_J@Z@std@@V?$allocator@P6AXPB_W_J@Z@2@@2@@std@@@std@@QAEXPAU?$pair@$$CBV?$basic_string@_WU?$char_traits@_W@std@@V?$allocator@_W@2@@std@@V?$set@P6AXPB_W_J@ZU?$less@P6AXPB_W_J@Z@std@@V?$allocator@P6AXPB_W_J@Z@2@@2@@1@$$QAU?$pair@V?$basic_string@_WU?$char_traits@_W@std@@V?$allocator@_W@2@@std@@V?$set@P6AXPB_W_J@ZU?$less@P6AXPB_W_J@Z@std@@V?$allocator@P6AXPB_W_J@Z@2@@2@@1@@Z 10039390 f i mcdiskcheck.obj
 0002:00037460       ??$forward@V?$allocator@_W@std@@@std@@YA$$QAV?$allocator@_W@0@AAV10@@Z 10039460 f i mcdiskcheck.obj
 0002:00037490       ??$?0V?$basic_string@_WU?$char_traits@_W@std@@V?$allocator@_W@2@@std@@V?$set@P6AXPB_W_J@ZU?$less@P6AXPB_W_J@Z@std@@V?$allocator@P6AXPB_W_J@Z@2@@1@@?$pair@$$CBV?$basic_string@_WU?$char_traits@_W@std@@V?$allocator@_W@2@@std@@V?$set@P6AXPB_W_J@ZU?$less@P6AXPB_W_J@Z@std@@V?$allocator@P6AXPB_W_J@Z@2@@2@@std@@QAE@$$QAU?$pair@V?$basic_string@_WU?$char_traits@_W@std@@V?$allocator@_W@2@@std@@V?$set@P6AXPB_W_J@ZU?$less@P6AXPB_W_J@Z@std@@V?$allocator@P6AXPB_W_J@Z@2@@2@@1@@Z 10039490 f i mcdiskcheck.obj
 0002:00037500       ??$forward@V?$set@P6AXPB_W_J@ZU?$less@P6AXPB_W_J@Z@std@@V?$allocator@P6AXPB_W_J@Z@2@@std@@@std@@YA$$QAV?$set@P6AXPB_W_J@ZU?$less@P6AXPB_W_J@Z@std@@V?$allocator@P6AXPB_W_J@Z@2@@0@AAV10@@Z 10039500 f i mcdiskcheck.obj
 0002:00037530       ??$?0V?$basic_string@_WU?$char_traits@_W@std@@V?$allocator@_W@2@@std@@V?$set@P6AXPB_W_J@ZU?$less@P6AXPB_W_J@Z@std@@V?$allocator@P6AXPB_W_J@Z@2@@1@@?$_Pair_base@$$CBV?$basic_string@_WU?$char_traits@_W@std@@V?$allocator@_W@2@@std@@V?$set@P6AXPB_W_J@ZU?$less@P6AXPB_W_J@Z@std@@V?$allocator@P6AXPB_W_J@Z@2@@2@@std@@QAE@$$QAV?$basic_string@_WU?$char_traits@_W@std@@V?$allocator@_W@2@@1@$$QAV?$set@P6AXPB_W_J@ZU?$less@P6AXPB_W_J@Z@std@@V?$allocator@P6AXPB_W_J@Z@2@@1@@Z 10039530 f i mcdiskcheck.obj
 0002:000375e0       ??0?$set@P6AXPB_W_J@ZU?$less@P6AXPB_W_J@Z@std@@V?$allocator@P6AXPB_W_J@Z@2@@std@@QAE@$$QAV01@@Z 100395e0 f i mcdiskcheck.obj
 0002:00037640       ??0?$_Tree@V?$_Tset_traits@P6AXPB_W_J@ZU?$less@P6AXPB_W_J@Z@std@@V?$allocator@P6AXPB_W_J@Z@2@$0A@@std@@@std@@QAE@$$QAV01@@Z 10039640 f i mcdiskcheck.obj
 0002:00037700       ?_Assign_rv@?$_Tree@V?$_Tset_traits@P6AXPB_W_J@ZU?$less@P6AXPB_W_J@Z@std@@V?$allocator@P6AXPB_W_J@Z@2@$0A@@std@@@std@@QAEX$$QAV12@@Z 10039700 f i mcdiskcheck.obj
 0002:000377f0       ?get_allocator@?$_Tree@V?$_Tset_traits@P6AXPB_W_J@ZU?$less@P6AXPB_W_J@Z@std@@V?$allocator@P6AXPB_W_J@Z@2@$0A@@std@@@std@@QBE?AV?$allocator@P6AXPB_W_J@Z@2@XZ 100397f0 f i mcdiskcheck.obj
 0002:00037840       ??$move@AAV?$set@P6AXPB_W_J@ZU?$less@P6AXPB_W_J@Z@std@@V?$allocator@P6AXPB_W_J@Z@2@@std@@@std@@YA$$QAV?$set@P6AXPB_W_J@ZU?$less@P6AXPB_W_J@Z@std@@V?$allocator@P6AXPB_W_J@Z@2@@0@AAV10@@Z 10039840 f i mcdiskcheck.obj
 0002:00037870       ??$forward@V?$_Tree@V?$_Tset_traits@P6AXPB_W_J@ZU?$less@P6AXPB_W_J@Z@std@@V?$allocator@P6AXPB_W_J@Z@2@$0A@@std@@@std@@@std@@YA$$QAV?$_Tree@V?$_Tset_traits@P6AXPB_W_J@ZU?$less@P6AXPB_W_J@Z@std@@V?$allocator@P6AXPB_W_J@Z@2@$0A@@std@@@0@AAV10@@Z 10039870 f i mcdiskcheck.obj
 0002:000378a0       ??$?9P6AXPB_W_J@ZP6AX01@Z@std@@YA_NABV?$allocator@P6AXPB_W_J@Z@0@0@Z 100398a0 f i mcdiskcheck.obj
 0002:000378f0       ??$_Swap_adl@U?$less@P6AXPB_W_J@Z@std@@@std@@YAXAAU?$less@P6AXPB_W_J@Z@0@0@Z 100398f0 f i mcdiskcheck.obj
 0002:00037940       ??$swap@PAU_Node@?$_Tree_nod@V?$_Tset_traits@P6AXPB_W_J@ZU?$less@P6AXPB_W_J@Z@std@@V?$allocator@P6AXPB_W_J@Z@2@$0A@@std@@@std@@@std@@YAXAAPAU_Node@?$_Tree_nod@V?$_Tset_traits@P6AXPB_W_J@ZU?$less@P6AXPB_W_J@Z@std@@V?$allocator@P6AXPB_W_J@Z@2@$0A@@std@@@0@0@Z 10039940 f i mcdiskcheck.obj
 0002:000379e0       ??$swap@I@std@@YAXAAI0@Z   100399e0 f i mcdiskcheck.obj
 0002:00037a80       ??$?8P6AXPB_W_J@ZP6AX01@Z@std@@YA_NABV?$allocator@P6AXPB_W_J@Z@0@0@Z 10039a80 f i mcdiskcheck.obj
 0002:00037ab0       ??$swap@U?$less@P6AXPB_W_J@Z@std@@@std@@YAXAAU?$less@P6AXPB_W_J@Z@0@0@Z 10039ab0 f i mcdiskcheck.obj
 0002:00037b40       ??$_Move@AAPAU_Node@?$_Tree_nod@V?$_Tset_traits@P6AXPB_W_J@ZU?$less@P6AXPB_W_J@Z@std@@V?$allocator@P6AXPB_W_J@Z@2@$0A@@std@@@std@@@std@@YA$$QAPAU_Node@?$_Tree_nod@V?$_Tset_traits@P6AXPB_W_J@ZU?$less@P6AXPB_W_J@Z@std@@V?$allocator@P6AXPB_W_J@Z@2@$0A@@std@@@0@AAPAU120@@Z 10039b40 f i mcdiskcheck.obj
 0002:00037b70       ??$_Move@AAI@std@@YA$$QAIAAI@Z 10039b70 f i mcdiskcheck.obj
 0002:00037ba0       ??$_Move@AAU?$less@P6AXPB_W_J@Z@std@@@std@@YA$$QAU?$less@P6AXPB_W_J@Z@0@AAU10@@Z 10039ba0 f i mcdiskcheck.obj
 0002:00037bd0       ??0?$map@V?$basic_string@_WU?$char_traits@_W@std@@V?$allocator@_W@2@@std@@V?$set@P6AXPB_W_J@ZU?$less@P6AXPB_W_J@Z@std@@V?$allocator@P6AXPB_W_J@Z@2@@2@U?$less@V?$basic_string@_WU?$char_traits@_W@std@@V?$allocator@_W@2@@std@@@2@V?$allocator@U?$pair@$$CBV?$basic_string@_WU?$char_traits@_W@std@@V?$allocator@_W@2@@std@@V?$set@P6AXPB_W_J@ZU?$less@P6AXPB_W_J@Z@std@@V?$allocator@P6AXPB_W_J@Z@2@@2@@std@@@2@@std@@QAE@XZ 10039bd0 f i mcdiskcheck.obj
 0002:00037c30       ??0?$_Tree@V?$_Tmap_traits@V?$basic_string@_WU?$char_traits@_W@std@@V?$allocator@_W@2@@std@@V?$set@P6AXPB_W_J@ZU?$less@P6AXPB_W_J@Z@std@@V?$allocator@P6AXPB_W_J@Z@2@@2@U?$less@V?$basic_string@_WU?$char_traits@_W@std@@V?$allocator@_W@2@@std@@@2@V?$allocator@U?$pair@$$CBV?$basic_string@_WU?$char_traits@_W@std@@V?$allocator@_W@2@@std@@V?$set@P6AXPB_W_J@ZU?$less@P6AXPB_W_J@Z@std@@V?$allocator@P6AXPB_W_J@Z@2@@2@@std@@@2@$0A@@std@@@std@@QAE@ABU?$less@V?$basic_string@_WU?$char_traits@_W@std@@V?$allocator@_W@2@@std@@@1@ABV?$allocator@U?$pair@$$CBV?$basic_string@_WU?$char_traits@_W@std@@V?$allocator@_W@2@@std@@V?$set@P6AXPB_W_J@ZU?$less@P6AXPB_W_J@Z@std@@V?$allocator@P6AXPB_W_J@Z@2@@2@@std@@@1@@Z 10039c30 f i mcdiskcheck.obj
 0002:00037c90       ??0?$allocator@U?$pair@$$CBV?$basic_string@_WU?$char_traits@_W@std@@V?$allocator@_W@2@@std@@V?$set@P6AXPB_W_J@ZU?$less@P6AXPB_W_J@Z@std@@V?$allocator@P6AXPB_W_J@Z@2@@2@@std@@@std@@QAE@XZ 10039c90 f i mcdiskcheck.obj
 0002:00037cc0       ??0?$_Tree_val@V?$_Tmap_traits@V?$basic_string@_WU?$char_traits@_W@std@@V?$allocator@_W@2@@std@@V?$set@P6AXPB_W_J@ZU?$less@P6AXPB_W_J@Z@std@@V?$allocator@P6AXPB_W_J@Z@2@@2@U?$less@V?$basic_string@_WU?$char_traits@_W@std@@V?$allocator@_W@2@@std@@@2@V?$allocator@U?$pair@$$CBV?$basic_string@_WU?$char_traits@_W@std@@V?$allocator@_W@2@@std@@V?$set@P6AXPB_W_J@ZU?$less@P6AXPB_W_J@Z@std@@V?$allocator@P6AXPB_W_J@Z@2@@2@@std@@@2@$0A@@std@@@std@@QAE@ABU?$less@V?$basic_string@_WU?$char_traits@_W@std@@V?$allocator@_W@2@@std@@@1@V?$allocator@U?$pair@$$CBV?$basic_string@_WU?$char_traits@_W@std@@V?$allocator@_W@2@@std@@V?$set@P6AXPB_W_J@ZU?$less@P6AXPB_W_J@Z@std@@V?$allocator@P6AXPB_W_J@Z@2@@2@@std@@@1@@Z 10039cc0 f i mcdiskcheck.obj
 0002:00037da0       ??0?$allocator@U?$pair@$$CBV?$basic_string@_WU?$char_traits@_W@std@@V?$allocator@_W@2@@std@@V?$set@P6AXPB_W_J@ZU?$less@P6AXPB_W_J@Z@std@@V?$allocator@P6AXPB_W_J@Z@2@@2@@std@@@std@@QAE@ABV01@@Z 10039da0 f i mcdiskcheck.obj
 0002:00037dd0       ??0?$_Tree_nod@V?$_Tmap_traits@V?$basic_string@_WU?$char_traits@_W@std@@V?$allocator@_W@2@@std@@V?$set@P6AXPB_W_J@ZU?$less@P6AXPB_W_J@Z@std@@V?$allocator@P6AXPB_W_J@Z@2@@2@U?$less@V?$basic_string@_WU?$char_traits@_W@std@@V?$allocator@_W@2@@std@@@2@V?$allocator@U?$pair@$$CBV?$basic_string@_WU?$char_traits@_W@std@@V?$allocator@_W@2@@std@@V?$set@P6AXPB_W_J@ZU?$less@P6AXPB_W_J@Z@std@@V?$allocator@P6AXPB_W_J@Z@2@@2@@std@@@2@$0A@@std@@@std@@QAE@ABU?$less@V?$basic_string@_WU?$char_traits@_W@std@@V?$allocator@_W@2@@std@@@1@V?$allocator@U?$pair@$$CBV?$basic_string@_WU?$char_traits@_W@std@@V?$allocator@_W@2@@std@@V?$set@P6AXPB_W_J@ZU?$less@P6AXPB_W_J@Z@std@@V?$allocator@P6AXPB_W_J@Z@2@@2@@std@@@1@@Z 10039dd0 f i mcdiskcheck.obj
 0002:00037e40       ??0?$_Tmap_traits@V?$basic_string@_WU?$char_traits@_W@std@@V?$allocator@_W@2@@std@@V?$set@P6AXPB_W_J@ZU?$less@P6AXPB_W_J@Z@std@@V?$allocator@P6AXPB_W_J@Z@2@@2@U?$less@V?$basic_string@_WU?$char_traits@_W@std@@V?$allocator@_W@2@@std@@@2@V?$allocator@U?$pair@$$CBV?$basic_string@_WU?$char_traits@_W@std@@V?$allocator@_W@2@@std@@V?$set@P6AXPB_W_J@ZU?$less@P6AXPB_W_J@Z@std@@V?$allocator@P6AXPB_W_J@Z@2@@2@@std@@@2@$0A@@std@@QAE@U?$less@V?$basic_string@_WU?$char_traits@_W@std@@V?$allocator@_W@2@@std@@@1@@Z 10039e40 f i mcdiskcheck.obj
 0002:00037e70       ??$?0U?$pair@$$CBV?$basic_string@_WU?$char_traits@_W@std@@V?$allocator@_W@2@@std@@V?$set@P6AXPB_W_J@ZU?$less@P6AXPB_W_J@Z@std@@V?$allocator@P6AXPB_W_J@Z@2@@2@@std@@@?$allocator@U_Node@?$_Tree_nod@V?$_Tmap_traits@V?$basic_string@_WU?$char_traits@_W@std@@V?$allocator@_W@2@@std@@V?$set@P6AXPB_W_J@ZU?$less@P6AXPB_W_J@Z@std@@V?$allocator@P6AXPB_W_J@Z@2@@2@U?$less@V?$basic_string@_WU?$char_traits@_W@std@@V?$allocator@_W@2@@std@@@2@V?$allocator@U?$pair@$$CBV?$basic_string@_WU?$char_traits@_W@std@@V?$allocator@_W@2@@std@@V?$set@P6AXPB_W_J@ZU?$less@P6AXPB_W_J@Z@std@@V?$allocator@P6AXPB_W_J@Z@2@@2@@std@@@2@$0A@@std@@@std@@@std@@QAE@ABV?$allocator@U?$pair@$$CBV?$basic_string@_WU?$char_traits@_W@std@@V?$allocator@_W@2@@std@@V?$set@P6AXPB_W_J@ZU?$less@P6AXPB_W_J@Z@std@@V?$allocator@P6AXPB_W_J@Z@2@@2@@std@@@1@@Z 10039e70 f i mcdiskcheck.obj
 0002:00037ea0       ??1?$map@V?$basic_string@_WU?$char_traits@_W@std@@V?$allocator@_W@2@@std@@V?$set@P6AXPB_W_J@ZU?$less@P6AXPB_W_J@Z@std@@V?$allocator@P6AXPB_W_J@Z@2@@2@U?$less@V?$basic_string@_WU?$char_traits@_W@std@@V?$allocator@_W@2@@std@@@2@V?$allocator@U?$pair@$$CBV?$basic_string@_WU?$char_traits@_W@std@@V?$allocator@_W@2@@std@@V?$set@P6AXPB_W_J@ZU?$less@P6AXPB_W_J@Z@std@@V?$allocator@P6AXPB_W_J@Z@2@@2@@std@@@2@@std@@QAE@XZ 10039ea0 f i mcdiskcheck.obj
 0002:00037ee0       ??1?$_Tree@V?$_Tmap_traits@V?$basic_string@_WU?$char_traits@_W@std@@V?$allocator@_W@2@@std@@V?$set@P6AXPB_W_J@ZU?$less@P6AXPB_W_J@Z@std@@V?$allocator@P6AXPB_W_J@Z@2@@2@U?$less@V?$basic_string@_WU?$char_traits@_W@std@@V?$allocator@_W@2@@std@@@2@V?$allocator@U?$pair@$$CBV?$basic_string@_WU?$char_traits@_W@std@@V?$allocator@_W@2@@std@@V?$set@P6AXPB_W_J@ZU?$less@P6AXPB_W_J@Z@std@@V?$allocator@P6AXPB_W_J@Z@2@@2@@std@@@2@$0A@@std@@@std@@QAE@XZ 10039ee0 f i mcdiskcheck.obj
 0002:00037f60       ?_Tidy@?$_Tree@V?$_Tmap_traits@V?$basic_string@_WU?$char_traits@_W@std@@V?$allocator@_W@2@@std@@V?$set@P6AXPB_W_J@ZU?$less@P6AXPB_W_J@Z@std@@V?$allocator@P6AXPB_W_J@Z@2@@2@U?$less@V?$basic_string@_WU?$char_traits@_W@std@@V?$allocator@_W@2@@std@@@2@V?$allocator@U?$pair@$$CBV?$basic_string@_WU?$char_traits@_W@std@@V?$allocator@_W@2@@std@@V?$set@P6AXPB_W_J@ZU?$less@P6AXPB_W_J@Z@std@@V?$allocator@P6AXPB_W_J@Z@2@@2@@std@@@2@$0A@@std@@@std@@IAEXXZ 10039f60 f i mcdiskcheck.obj
 0002:00037ff0       ??1?$_Tree_val@V?$_Tmap_traits@V?$basic_string@_WU?$char_traits@_W@std@@V?$allocator@_W@2@@std@@V?$set@P6AXPB_W_J@ZU?$less@P6AXPB_W_J@Z@std@@V?$allocator@P6AXPB_W_J@Z@2@@2@U?$less@V?$basic_string@_WU?$char_traits@_W@std@@V?$allocator@_W@2@@std@@@2@V?$allocator@U?$pair@$$CBV?$basic_string@_WU?$char_traits@_W@std@@V?$allocator@_W@2@@std@@V?$set@P6AXPB_W_J@ZU?$less@P6AXPB_W_J@Z@std@@V?$allocator@P6AXPB_W_J@Z@2@@2@@std@@@2@$0A@@std@@@std@@QAE@XZ 10039ff0 f i mcdiskcheck.obj
 0002:00038040       ?erase@?$_Tree@V?$_Tmap_traits@V?$basic_string@_WU?$char_traits@_W@std@@V?$allocator@_W@2@@std@@V?$set@P6AXPB_W_J@ZU?$less@P6AXPB_W_J@Z@std@@V?$allocator@P6AXPB_W_J@Z@2@@2@U?$less@V?$basic_string@_WU?$char_traits@_W@std@@V?$allocator@_W@2@@std@@@2@V?$allocator@U?$pair@$$CBV?$basic_string@_WU?$char_traits@_W@std@@V?$allocator@_W@2@@std@@V?$set@P6AXPB_W_J@ZU?$less@P6AXPB_W_J@Z@std@@V?$allocator@P6AXPB_W_J@Z@2@@2@@std@@@2@$0A@@std@@@std@@QAE?AV?$_Tree_iterator@V?$_Tree_val@V?$_Tmap_traits@V?$basic_string@_WU?$char_traits@_W@std@@V?$allocator@_W@2@@std@@V?$set@P6AXPB_W_J@ZU?$less@P6AXPB_W_J@Z@std@@V?$allocator@P6AXPB_W_J@Z@2@@2@U?$less@V?$basic_string@_WU?$char_traits@_W@std@@V?$allocator@_W@2@@std@@@2@V?$allocator@U?$pair@$$CBV?$basic_string@_WU?$char_traits@_W@std@@V?$allocator@_W@2@@std@@V?$set@P6AXPB_W_J@ZU?$less@P6AXPB_W_J@Z@std@@V?$allocator@P6AXPB_W_J@Z@2@@2@@std@@@2@$0A@@std@@@std@@@2@V?$_Tree_const_iterator@V?$_Tree_val@V?$_Tmap_traits@V?$basic_string@_WU?$char_traits@_W@std@@V?$allocator@_W@2@@std@@V?$set@P6AXPB_W_J@ZU?$less@P6AXPB_W_J@Z@std@@V?$allocator@P6AXPB_W_J@Z@2@@2@U?$less@V?$basic_string@_WU?$char_traits@_W@std@@V?$allocator@_W@2@@std@@@2@V?$allocator@U?$pair@$$CBV?$basic_string@_WU?$char_traits@_W@std@@V?$allocator@_W@2@@std@@V?$set@P6AXPB_W_J@ZU?$less@P6AXPB_W_J@Z@std@@V?$allocator@P6AXPB_W_J@Z@2@@2@@std@@@2@$0A@@std@@@std@@@2@0@Z 1003a040 f i mcdiskcheck.obj
 0002:00038120       ?clear@?$_Tree@V?$_Tmap_traits@V?$basic_string@_WU?$char_traits@_W@std@@V?$allocator@_W@2@@std@@V?$set@P6AXPB_W_J@ZU?$less@P6AXPB_W_J@Z@std@@V?$allocator@P6AXPB_W_J@Z@2@@2@U?$less@V?$basic_string@_WU?$char_traits@_W@std@@V?$allocator@_W@2@@std@@@2@V?$allocator@U?$pair@$$CBV?$basic_string@_WU?$char_traits@_W@std@@V?$allocator@_W@2@@std@@V?$set@P6AXPB_W_J@ZU?$less@P6AXPB_W_J@Z@std@@V?$allocator@P6AXPB_W_J@Z@2@@2@@std@@@2@$0A@@std@@@std@@QAEXXZ 1003a120 f i mcdiskcheck.obj
 0002:000381b0       ??E?$_Tree_const_iterator@V?$_Tree_val@V?$_Tmap_traits@V?$basic_string@_WU?$char_traits@_W@std@@V?$allocator@_W@2@@std@@V?$set@P6AXPB_W_J@ZU?$less@P6AXPB_W_J@Z@std@@V?$allocator@P6AXPB_W_J@Z@2@@2@U?$less@V?$basic_string@_WU?$char_traits@_W@std@@V?$allocator@_W@2@@std@@@2@V?$allocator@U?$pair@$$CBV?$basic_string@_WU?$char_traits@_W@std@@V?$allocator@_W@2@@std@@V?$set@P6AXPB_W_J@ZU?$less@P6AXPB_W_J@Z@std@@V?$allocator@P6AXPB_W_J@Z@2@@2@@std@@@2@$0A@@std@@@std@@@std@@QAE?AV01@H@Z 1003a1b0 f i mcdiskcheck.obj
 0002:00038240       ?_Erase@?$_Tree@V?$_Tmap_traits@V?$basic_string@_WU?$char_traits@_W@std@@V?$allocator@_W@2@@std@@V?$set@P6AXPB_W_J@ZU?$less@P6AXPB_W_J@Z@std@@V?$allocator@P6AXPB_W_J@Z@2@@2@U?$less@V?$basic_string@_WU?$char_traits@_W@std@@V?$allocator@_W@2@@std@@@2@V?$allocator@U?$pair@$$CBV?$basic_string@_WU?$char_traits@_W@std@@V?$allocator@_W@2@@std@@V?$set@P6AXPB_W_J@ZU?$less@P6AXPB_W_J@Z@std@@V?$allocator@P6AXPB_W_J@Z@2@@2@@std@@@2@$0A@@std@@@std@@IAEXPAU_Node@?$_Tree_nod@V?$_Tmap_traits@V?$basic_string@_WU?$char_traits@_W@std@@V?$allocator@_W@2@@std@@V?$set@P6AXPB_W_J@ZU?$less@P6AXPB_W_J@Z@std@@V?$allocator@P6AXPB_W_J@Z@2@@2@U?$less@V?$basic_string@_WU?$char_traits@_W@std@@V?$allocator@_W@2@@std@@@2@V?$allocator@U?$pair@$$CBV?$basic_string@_WU?$char_traits@_W@std@@V?$allocator@_W@2@@std@@V?$set@P6AXPB_W_J@ZU?$less@P6AXPB_W_J@Z@std@@V?$allocator@P6AXPB_W_J@Z@2@@2@@std@@@2@$0A@@std@@@2@@Z 1003a240 f i mcdiskcheck.obj
 0002:00038300       ??0CThreadSafeLock@@QAE@XZ 1003a300 f   mcsafelock.obj
 0002:00038380       ??1CThreadSafeLock@@QAE@XZ 1003a380 f   mcsafelock.obj
 0002:000383d0       ?Acquire@CThreadSafeLock@@QAEXPBD0H@Z 1003a3d0 f   mcsafelock.obj
 0002:00038610       ?Release@CThreadSafeLock@@QAEXXZ 1003a610 f   mcsafelock.obj
 0002:000386b0       ?strrchr@@YAPADPADH@Z      1003a6b0 f i mcsafelock.obj
 0002:00038700       ??$sprintf_s@$0BAA@@@YAHAAY0BAA@DPBDZZ 1003a700 f i mcsafelock.obj
 0002:00038760       ??$strcat_s@$0EAA@@@YAHAAY0EAA@DPBD@Z 1003a760 f i mcsafelock.obj
 0002:000387c0       _createrecorder            1003a7c0 f   recordercommand.obj
 0002:00038930       _pause                     1003a930 f   recordercommand.obj
 0002:00038980       _resume                    1003a980 f   recordercommand.obj
 0002:000389d0       _closerecorder             1003a9d0 f   recordercommand.obj
 0002:00038a20       _getfilepath               1003aa20 f   recordercommand.obj
 0002:00038b80       _setalarmconfig            1003ab80 f   recordercommand.obj
 0002:00038bd0       _setdiskcheckcb            1003abd0 f   recordercommand.obj
 0002:00038c20       ?GetDriveSpaceAlarmConfig@?A0x436d6db7@@YAXPB_WAAI1@Z 1003ac20 f   recorderinterface.obj
 0002:00038d80       ?SetDriveSpaceAlarmConfig@?A0x436d6db7@@YAXPB_WII@Z 1003ad80 f   recorderinterface.obj
 0002:00038f70       ??1?$pair@V?$basic_string@_WU?$char_traits@_W@std@@V?$allocator@_W@2@@std@@U?$pair@II@2@@std@@QAE@XZ 1003af70 f i recorderinterface.obj
 0002:00038fb0       ??1?$_Pair_base@V?$basic_string@_WU?$char_traits@_W@std@@V?$allocator@_W@2@@std@@U?$pair@II@2@@std@@QAE@XZ 1003afb0 f i recorderinterface.obj
 0002:00038ff0       ?DiskSpaceAlarmCallback@?A0x436d6db7@@YAXPB_W_J@Z 1003aff0 f   recorderinterface.obj
 0002:00039200       ?CreateRecorder@@YAPAXABUtagRecoderParam@@@Z 1003b200 f   recorderinterface.obj
 0002:00039380       ?CloseRecorder@@YAGPAX@Z   1003b380 f   recorderinterface.obj
 0002:00039430       ?PauseRecoder@@YAGPAX@Z    1003b430 f   recorderinterface.obj
 0002:00039490       ?ResumRecoder@@YAGPAX@Z    1003b490 f   recorderinterface.obj
 0002:000394f0       ?GetRecorderFilePath@@YAGPAXPA_WH@Z 1003b4f0 f   recorderinterface.obj
 0002:00039550       ?SetRecoderDiskCheckCB@@YAGP6AXEI@ZI@Z 1003b550 f   recorderinterface.obj
 0002:00039590       ?SetRecoderDiskCheckPartitionAlarm@@YAGPB_WII@Z 1003b590 f   recorderinterface.obj
 0002:00039660       ??0CAsfRecoder@@QAE@H@Z    1003b660 f   recorderinterface.obj
 0002:00039700       ??_ECAsfRecoder@@UAEPAXI@Z 1003b700 f i recorderinterface.obj
 0002:00039700       ??_GCAsfRecoder@@UAEPAXI@Z 1003b700 f i recorderinterface.obj
 0002:00039760       ??1CAsfRecoder@@UAE@XZ     1003b760 f   recorderinterface.obj
 0002:000397b0       ?CreateRecFile@CAsfRecoder@@QAEGPA_W0HHI@Z 1003b7b0 f   recorderinterface.obj
 0002:00039900       ?PauseRec@CAsfRecoder@@QAEGH@Z 1003b900 f   recorderinterface.obj
 0002:00039980       ?ReStartRec@CAsfRecoder@@QAEGHH@Z 1003b980 f   recorderinterface.obj
 0002:00039a10       ?WriteVideo@CAsfRecoder@@QAEGPAUtagFrameHdr@@I@Z 1003ba10 f   recorderinterface.obj
 0002:00039d00       ?WriteAudio@CAsfRecoder@@QAEGPAUtagFrameHdr@@I@Z 1003bd00 f   recorderinterface.obj
 0002:00039e20       ?StopRecAndRemoveFile@CAsfRecoder@@QAEGH@Z 1003be20 f   recorderinterface.obj
 0002:00039ed0       ?GetRecorderFilePath@CAsfRecoder@@QAEGPA_WH@Z 1003bed0 f   recorderinterface.obj
 0002:00039f40       ?end@?$_Tree@V?$_Tmap_traits@V?$basic_string@_WU?$char_traits@_W@std@@V?$allocator@_W@2@@std@@U?$pair@II@2@U?$less@V?$basic_string@_WU?$char_traits@_W@std@@V?$allocator@_W@2@@std@@@2@V?$allocator@U?$pair@$$CBV?$basic_string@_WU?$char_traits@_W@std@@V?$allocator@_W@2@@std@@U?$pair@II@2@@std@@@2@$0A@@std@@@std@@QAE?AV?$_Tree_iterator@V?$_Tree_val@V?$_Tmap_traits@V?$basic_string@_WU?$char_traits@_W@std@@V?$allocator@_W@2@@std@@U?$pair@II@2@U?$less@V?$basic_string@_WU?$char_traits@_W@std@@V?$allocator@_W@2@@std@@@2@V?$allocator@U?$pair@$$CBV?$basic_string@_WU?$char_traits@_W@std@@V?$allocator@_W@2@@std@@U?$pair@II@2@@std@@@2@$0A@@std@@@std@@@2@XZ 1003bf40 f i recorderinterface.obj
 0002:00039f90       ?find@?$_Tree@V?$_Tmap_traits@V?$basic_string@_WU?$char_traits@_W@std@@V?$allocator@_W@2@@std@@U?$pair@II@2@U?$less@V?$basic_string@_WU?$char_traits@_W@std@@V?$allocator@_W@2@@std@@@2@V?$allocator@U?$pair@$$CBV?$basic_string@_WU?$char_traits@_W@std@@V?$allocator@_W@2@@std@@U?$pair@II@2@@std@@@2@$0A@@std@@@std@@QAE?AV?$_Tree_iterator@V?$_Tree_val@V?$_Tmap_traits@V?$basic_string@_WU?$char_traits@_W@std@@V?$allocator@_W@2@@std@@U?$pair@II@2@U?$less@V?$basic_string@_WU?$char_traits@_W@std@@V?$allocator@_W@2@@std@@@2@V?$allocator@U?$pair@$$CBV?$basic_string@_WU?$char_traits@_W@std@@V?$allocator@_W@2@@std@@U?$pair@II@2@@std@@@2@$0A@@std@@@std@@@2@ABV?$basic_string@_WU?$char_traits@_W@std@@V?$allocator@_W@2@@2@@Z 1003bf90 f i recorderinterface.obj
 0002:0003a090       ??C?$_Tree_iterator@V?$_Tree_val@V?$_Tmap_traits@V?$basic_string@_WU?$char_traits@_W@std@@V?$allocator@_W@2@@std@@U?$pair@II@2@U?$less@V?$basic_string@_WU?$char_traits@_W@std@@V?$allocator@_W@2@@std@@@2@V?$allocator@U?$pair@$$CBV?$basic_string@_WU?$char_traits@_W@std@@V?$allocator@_W@2@@std@@U?$pair@II@2@@std@@@2@$0A@@std@@@std@@@std@@QBEPAU?$pair@$$CBV?$basic_string@_WU?$char_traits@_W@std@@V?$allocator@_W@2@@std@@U?$pair@II@2@@1@XZ 1003c090 f i recorderinterface.obj
 0002:0003a0d0       ??9?$_Tree_const_iterator@V?$_Tree_val@V?$_Tmap_traits@V?$basic_string@_WU?$char_traits@_W@std@@V?$allocator@_W@2@@std@@U?$pair@II@2@U?$less@V?$basic_string@_WU?$char_traits@_W@std@@V?$allocator@_W@2@@std@@@2@V?$allocator@U?$pair@$$CBV?$basic_string@_WU?$char_traits@_W@std@@V?$allocator@_W@2@@std@@U?$pair@II@2@@std@@@2@$0A@@std@@@std@@@std@@QBE_NABV01@@Z 1003c0d0 f i recorderinterface.obj
 0002:0003a120       ?lower_bound@?$_Tree@V?$_Tmap_traits@V?$basic_string@_WU?$char_traits@_W@std@@V?$allocator@_W@2@@std@@U?$pair@II@2@U?$less@V?$basic_string@_WU?$char_traits@_W@std@@V?$allocator@_W@2@@std@@@2@V?$allocator@U?$pair@$$CBV?$basic_string@_WU?$char_traits@_W@std@@V?$allocator@_W@2@@std@@U?$pair@II@2@@std@@@2@$0A@@std@@@std@@QAE?AV?$_Tree_iterator@V?$_Tree_val@V?$_Tmap_traits@V?$basic_string@_WU?$char_traits@_W@std@@V?$allocator@_W@2@@std@@U?$pair@II@2@U?$less@V?$basic_string@_WU?$char_traits@_W@std@@V?$allocator@_W@2@@std@@@2@V?$allocator@U?$pair@$$CBV?$basic_string@_WU?$char_traits@_W@std@@V?$allocator@_W@2@@std@@U?$pair@II@2@@std@@@2@$0A@@std@@@std@@@2@ABV?$basic_string@_WU?$char_traits@_W@std@@V?$allocator@_W@2@@2@@Z 1003c120 f i recorderinterface.obj
 0002:0003a180       ?_Key@?$_Tree_val@V?$_Tmap_traits@V?$basic_string@_WU?$char_traits@_W@std@@V?$allocator@_W@2@@std@@U?$pair@II@2@U?$less@V?$basic_string@_WU?$char_traits@_W@std@@V?$allocator@_W@2@@std@@@2@V?$allocator@U?$pair@$$CBV?$basic_string@_WU?$char_traits@_W@std@@V?$allocator@_W@2@@std@@U?$pair@II@2@@std@@@2@$0A@@std@@@std@@SAAAV?$basic_string@_WU?$char_traits@_W@std@@V?$allocator@_W@2@@2@PAU_Node@?$_Tree_nod@V?$_Tmap_traits@V?$basic_string@_WU?$char_traits@_W@std@@V?$allocator@_W@2@@std@@U?$pair@II@2@U?$less@V?$basic_string@_WU?$char_traits@_W@std@@V?$allocator@_W@2@@std@@@2@V?$allocator@U?$pair@$$CBV?$basic_string@_WU?$char_traits@_W@std@@V?$allocator@_W@2@@std@@U?$pair@II@2@@std@@@2@$0A@@std@@@2@@Z 1003c180 f i recorderinterface.obj
 0002:0003a1d0       ??0?$_Tree_iterator@V?$_Tree_val@V?$_Tmap_traits@V?$basic_string@_WU?$char_traits@_W@std@@V?$allocator@_W@2@@std@@U?$pair@II@2@U?$less@V?$basic_string@_WU?$char_traits@_W@std@@V?$allocator@_W@2@@std@@@2@V?$allocator@U?$pair@$$CBV?$basic_string@_WU?$char_traits@_W@std@@V?$allocator@_W@2@@std@@U?$pair@II@2@@std@@@2@$0A@@std@@@std@@@std@@QAE@PAU_Node@?$_Tree_nod@V?$_Tmap_traits@V?$basic_string@_WU?$char_traits@_W@std@@V?$allocator@_W@2@@std@@U?$pair@II@2@U?$less@V?$basic_string@_WU?$char_traits@_W@std@@V?$allocator@_W@2@@std@@@2@V?$allocator@U?$pair@$$CBV?$basic_string@_WU?$char_traits@_W@std@@V?$allocator@_W@2@@std@@U?$pair@II@2@@std@@@2@$0A@@std@@@1@PBV?$_Tree_val@V?$_Tmap_traits@V?$basic_string@_WU?$char_traits@_W@std@@V?$allocator@_W@2@@std@@U?$pair@II@2@U?$less@V?$basic_string@_WU?$char_traits@_W@std@@V?$allocator@_W@2@@std@@@2@V?$allocator@U?$pair@$$CBV?$basic_string@_WU?$char_traits@_W@std@@V?$allocator@_W@2@@std@@U?$pair@II@2@@std@@@2@$0A@@std@@@1@@Z 1003c1d0 f i recorderinterface.obj
 0002:0003a220       ??D?$_Tree_iterator@V?$_Tree_val@V?$_Tmap_traits@V?$basic_string@_WU?$char_traits@_W@std@@V?$allocator@_W@2@@std@@U?$pair@II@2@U?$less@V?$basic_string@_WU?$char_traits@_W@std@@V?$allocator@_W@2@@std@@@2@V?$allocator@U?$pair@$$CBV?$basic_string@_WU?$char_traits@_W@std@@V?$allocator@_W@2@@std@@U?$pair@II@2@@std@@@2@$0A@@std@@@std@@@std@@QBEAAU?$pair@$$CBV?$basic_string@_WU?$char_traits@_W@std@@V?$allocator@_W@2@@std@@U?$pair@II@2@@1@XZ 1003c220 f i recorderinterface.obj
 0002:0003a260       ??8?$_Tree_const_iterator@V?$_Tree_val@V?$_Tmap_traits@V?$basic_string@_WU?$char_traits@_W@std@@V?$allocator@_W@2@@std@@U?$pair@II@2@U?$less@V?$basic_string@_WU?$char_traits@_W@std@@V?$allocator@_W@2@@std@@@2@V?$allocator@U?$pair@$$CBV?$basic_string@_WU?$char_traits@_W@std@@V?$allocator@_W@2@@std@@U?$pair@II@2@@std@@@2@$0A@@std@@@std@@@std@@QBE_NABV01@@Z 1003c260 f i recorderinterface.obj
 0002:0003a2a0       ?_Mynode@?$_Tree_unchecked_const_iterator@V?$_Tree_val@V?$_Tmap_traits@V?$basic_string@_WU?$char_traits@_W@std@@V?$allocator@_W@2@@std@@U?$pair@II@2@U?$less@V?$basic_string@_WU?$char_traits@_W@std@@V?$allocator@_W@2@@std@@@2@V?$allocator@U?$pair@$$CBV?$basic_string@_WU?$char_traits@_W@std@@V?$allocator@_W@2@@std@@U?$pair@II@2@@std@@@2@$0A@@std@@@std@@U_Iterator_base0@2@@std@@QBEPAU_Node@?$_Tree_nod@V?$_Tmap_traits@V?$basic_string@_WU?$char_traits@_W@std@@V?$allocator@_W@2@@std@@U?$pair@II@2@U?$less@V?$basic_string@_WU?$char_traits@_W@std@@V?$allocator@_W@2@@std@@@2@V?$allocator@U?$pair@$$CBV?$basic_string@_WU?$char_traits@_W@std@@V?$allocator@_W@2@@std@@U?$pair@II@2@@std@@@2@$0A@@std@@@2@XZ 1003c2a0 f i recorderinterface.obj
 0002:0003a2d0       ?_Lbound@?$_Tree@V?$_Tmap_traits@V?$basic_string@_WU?$char_traits@_W@std@@V?$allocator@_W@2@@std@@U?$pair@II@2@U?$less@V?$basic_string@_WU?$char_traits@_W@std@@V?$allocator@_W@2@@std@@@2@V?$allocator@U?$pair@$$CBV?$basic_string@_WU?$char_traits@_W@std@@V?$allocator@_W@2@@std@@U?$pair@II@2@@std@@@2@$0A@@std@@@std@@IAEPAU_Node@?$_Tree_nod@V?$_Tmap_traits@V?$basic_string@_WU?$char_traits@_W@std@@V?$allocator@_W@2@@std@@U?$pair@II@2@U?$less@V?$basic_string@_WU?$char_traits@_W@std@@V?$allocator@_W@2@@std@@@2@V?$allocator@U?$pair@$$CBV?$basic_string@_WU?$char_traits@_W@std@@V?$allocator@_W@2@@std@@U?$pair@II@2@@std@@@2@$0A@@std@@@2@ABV?$basic_string@_WU?$char_traits@_W@std@@V?$allocator@_W@2@@2@@Z 1003c2d0 f i recorderinterface.obj
 0002:0003a390       ?_Myval@?$_Tree_val@V?$_Tmap_traits@V?$basic_string@_WU?$char_traits@_W@std@@V?$allocator@_W@2@@std@@U?$pair@II@2@U?$less@V?$basic_string@_WU?$char_traits@_W@std@@V?$allocator@_W@2@@std@@@2@V?$allocator@U?$pair@$$CBV?$basic_string@_WU?$char_traits@_W@std@@V?$allocator@_W@2@@std@@U?$pair@II@2@@std@@@2@$0A@@std@@@std@@SAAAU?$pair@$$CBV?$basic_string@_WU?$char_traits@_W@std@@V?$allocator@_W@2@@std@@U?$pair@II@2@@2@PAU_Node@?$_Tree_nod@V?$_Tmap_traits@V?$basic_string@_WU?$char_traits@_W@std@@V?$allocator@_W@2@@std@@U?$pair@II@2@U?$less@V?$basic_string@_WU?$char_traits@_W@std@@V?$allocator@_W@2@@std@@@2@V?$allocator@U?$pair@$$CBV?$basic_string@_WU?$char_traits@_W@std@@V?$allocator@_W@2@@std@@U?$pair@II@2@@std@@@2@$0A@@std@@@2@@Z 1003c390 f i recorderinterface.obj
 0002:0003a3c0       ??0?$_Tree_const_iterator@V?$_Tree_val@V?$_Tmap_traits@V?$basic_string@_WU?$char_traits@_W@std@@V?$allocator@_W@2@@std@@U?$pair@II@2@U?$less@V?$basic_string@_WU?$char_traits@_W@std@@V?$allocator@_W@2@@std@@@2@V?$allocator@U?$pair@$$CBV?$basic_string@_WU?$char_traits@_W@std@@V?$allocator@_W@2@@std@@U?$pair@II@2@@std@@@2@$0A@@std@@@std@@@std@@QAE@PAU_Node@?$_Tree_nod@V?$_Tmap_traits@V?$basic_string@_WU?$char_traits@_W@std@@V?$allocator@_W@2@@std@@U?$pair@II@2@U?$less@V?$basic_string@_WU?$char_traits@_W@std@@V?$allocator@_W@2@@std@@@2@V?$allocator@U?$pair@$$CBV?$basic_string@_WU?$char_traits@_W@std@@V?$allocator@_W@2@@std@@U?$pair@II@2@@std@@@2@$0A@@std@@@1@PBV?$_Tree_val@V?$_Tmap_traits@V?$basic_string@_WU?$char_traits@_W@std@@V?$allocator@_W@2@@std@@U?$pair@II@2@U?$less@V?$basic_string@_WU?$char_traits@_W@std@@V?$allocator@_W@2@@std@@@2@V?$allocator@U?$pair@$$CBV?$basic_string@_WU?$char_traits@_W@std@@V?$allocator@_W@2@@std@@U?$pair@II@2@@std@@@2@$0A@@std@@@1@@Z 1003c3c0 f i recorderinterface.obj
 0002:0003a410       ??D?$_Tree_const_iterator@V?$_Tree_val@V?$_Tmap_traits@V?$basic_string@_WU?$char_traits@_W@std@@V?$allocator@_W@2@@std@@U?$pair@II@2@U?$less@V?$basic_string@_WU?$char_traits@_W@std@@V?$allocator@_W@2@@std@@@2@V?$allocator@U?$pair@$$CBV?$basic_string@_WU?$char_traits@_W@std@@V?$allocator@_W@2@@std@@U?$pair@II@2@@std@@@2@$0A@@std@@@std@@@std@@QBEABU?$pair@$$CBV?$basic_string@_WU?$char_traits@_W@std@@V?$allocator@_W@2@@std@@U?$pair@II@2@@1@XZ 1003c410 f i recorderinterface.obj
 0002:0003a460       ?_Root@?$_Tree@V?$_Tmap_traits@V?$basic_string@_WU?$char_traits@_W@std@@V?$allocator@_W@2@@std@@U?$pair@II@2@U?$less@V?$basic_string@_WU?$char_traits@_W@std@@V?$allocator@_W@2@@std@@@2@V?$allocator@U?$pair@$$CBV?$basic_string@_WU?$char_traits@_W@std@@V?$allocator@_W@2@@std@@U?$pair@II@2@@std@@@2@$0A@@std@@@std@@IBEAAPAU_Node@?$_Tree_nod@V?$_Tmap_traits@V?$basic_string@_WU?$char_traits@_W@std@@V?$allocator@_W@2@@std@@U?$pair@II@2@U?$less@V?$basic_string@_WU?$char_traits@_W@std@@V?$allocator@_W@2@@std@@@2@V?$allocator@U?$pair@$$CBV?$basic_string@_WU?$char_traits@_W@std@@V?$allocator@_W@2@@std@@U?$pair@II@2@@std@@@2@$0A@@std@@@2@XZ 1003c460 f i recorderinterface.obj
 0002:0003a4b0       ?_Isnil@?$_Tree_val@V?$_Tmap_traits@V?$basic_string@_WU?$char_traits@_W@std@@V?$allocator@_W@2@@std@@U?$pair@II@2@U?$less@V?$basic_string@_WU?$char_traits@_W@std@@V?$allocator@_W@2@@std@@@2@V?$allocator@U?$pair@$$CBV?$basic_string@_WU?$char_traits@_W@std@@V?$allocator@_W@2@@std@@U?$pair@II@2@@std@@@2@$0A@@std@@@std@@SAAADPAU_Node@?$_Tree_nod@V?$_Tmap_traits@V?$basic_string@_WU?$char_traits@_W@std@@V?$allocator@_W@2@@std@@U?$pair@II@2@U?$less@V?$basic_string@_WU?$char_traits@_W@std@@V?$allocator@_W@2@@std@@@2@V?$allocator@U?$pair@$$CBV?$basic_string@_WU?$char_traits@_W@std@@V?$allocator@_W@2@@std@@U?$pair@II@2@@std@@@2@$0A@@std@@@2@@Z 1003c4b0 f i recorderinterface.obj
 0002:0003a4e0       ?_Left@?$_Tree_val@V?$_Tmap_traits@V?$basic_string@_WU?$char_traits@_W@std@@V?$allocator@_W@2@@std@@U?$pair@II@2@U?$less@V?$basic_string@_WU?$char_traits@_W@std@@V?$allocator@_W@2@@std@@@2@V?$allocator@U?$pair@$$CBV?$basic_string@_WU?$char_traits@_W@std@@V?$allocator@_W@2@@std@@U?$pair@II@2@@std@@@2@$0A@@std@@@std@@SAAAPAU_Node@?$_Tree_nod@V?$_Tmap_traits@V?$basic_string@_WU?$char_traits@_W@std@@V?$allocator@_W@2@@std@@U?$pair@II@2@U?$less@V?$basic_string@_WU?$char_traits@_W@std@@V?$allocator@_W@2@@std@@@2@V?$allocator@U?$pair@$$CBV?$basic_string@_WU?$char_traits@_W@std@@V?$allocator@_W@2@@std@@U?$pair@II@2@@std@@@2@$0A@@std@@@2@PAU342@@Z 1003c4e0 f i recorderinterface.obj
 0002:0003a510       ?_Parent@?$_Tree_val@V?$_Tmap_traits@V?$basic_string@_WU?$char_traits@_W@std@@V?$allocator@_W@2@@std@@U?$pair@II@2@U?$less@V?$basic_string@_WU?$char_traits@_W@std@@V?$allocator@_W@2@@std@@@2@V?$allocator@U?$pair@$$CBV?$basic_string@_WU?$char_traits@_W@std@@V?$allocator@_W@2@@std@@U?$pair@II@2@@std@@@2@$0A@@std@@@std@@SAAAPAU_Node@?$_Tree_nod@V?$_Tmap_traits@V?$basic_string@_WU?$char_traits@_W@std@@V?$allocator@_W@2@@std@@U?$pair@II@2@U?$less@V?$basic_string@_WU?$char_traits@_W@std@@V?$allocator@_W@2@@std@@@2@V?$allocator@U?$pair@$$CBV?$basic_string@_WU?$char_traits@_W@std@@V?$allocator@_W@2@@std@@U?$pair@II@2@@std@@@2@$0A@@std@@@2@PAU342@@Z 1003c510 f i recorderinterface.obj
 0002:0003a540       ?_Right@?$_Tree_val@V?$_Tmap_traits@V?$basic_string@_WU?$char_traits@_W@std@@V?$allocator@_W@2@@std@@U?$pair@II@2@U?$less@V?$basic_string@_WU?$char_traits@_W@std@@V?$allocator@_W@2@@std@@@2@V?$allocator@U?$pair@$$CBV?$basic_string@_WU?$char_traits@_W@std@@V?$allocator@_W@2@@std@@U?$pair@II@2@@std@@@2@$0A@@std@@@std@@SAAAPAU_Node@?$_Tree_nod@V?$_Tmap_traits@V?$basic_string@_WU?$char_traits@_W@std@@V?$allocator@_W@2@@std@@U?$pair@II@2@U?$less@V?$basic_string@_WU?$char_traits@_W@std@@V?$allocator@_W@2@@std@@@2@V?$allocator@U?$pair@$$CBV?$basic_string@_WU?$char_traits@_W@std@@V?$allocator@_W@2@@std@@U?$pair@II@2@@std@@@2@$0A@@std@@@2@PAU342@@Z 1003c540 f i recorderinterface.obj
 0002:0003a570       ??0?$_Tree_unchecked_const_iterator@V?$_Tree_val@V?$_Tmap_traits@V?$basic_string@_WU?$char_traits@_W@std@@V?$allocator@_W@2@@std@@U?$pair@II@2@U?$less@V?$basic_string@_WU?$char_traits@_W@std@@V?$allocator@_W@2@@std@@@2@V?$allocator@U?$pair@$$CBV?$basic_string@_WU?$char_traits@_W@std@@V?$allocator@_W@2@@std@@U?$pair@II@2@@std@@@2@$0A@@std@@@std@@U_Iterator_base0@2@@std@@QAE@PAU_Node@?$_Tree_nod@V?$_Tmap_traits@V?$basic_string@_WU?$char_traits@_W@std@@V?$allocator@_W@2@@std@@U?$pair@II@2@U?$less@V?$basic_string@_WU?$char_traits@_W@std@@V?$allocator@_W@2@@std@@@2@V?$allocator@U?$pair@$$CBV?$basic_string@_WU?$char_traits@_W@std@@V?$allocator@_W@2@@std@@U?$pair@II@2@@std@@@2@$0A@@std@@@1@PBV?$_Tree_val@V?$_Tmap_traits@V?$basic_string@_WU?$char_traits@_W@std@@V?$allocator@_W@2@@std@@U?$pair@II@2@U?$less@V?$basic_string@_WU?$char_traits@_W@std@@V?$allocator@_W@2@@std@@@2@V?$allocator@U?$pair@$$CBV?$basic_string@_WU?$char_traits@_W@std@@V?$allocator@_W@2@@std@@U?$pair@II@2@@std@@@2@$0A@@std@@@1@@Z 1003c570 f i recorderinterface.obj
 0002:0003a5c0       ??$make_pair@AAIAAI@std@@YA?AU?$pair@II@0@AAI0@Z 1003c5c0 f i recorderinterface.obj
 0002:0003a620       ??$make_pair@V?$basic_string@_WU?$char_traits@_W@std@@V?$allocator@_W@2@@std@@U?$pair@II@2@@std@@YA?AU?$pair@V?$basic_string@_WU?$char_traits@_W@std@@V?$allocator@_W@2@@std@@U?$pair@II@2@@0@$$QAV?$basic_string@_WU?$char_traits@_W@std@@V?$allocator@_W@2@@0@$$QAU?$pair@II@0@@Z 1003c620 f i recorderinterface.obj
 0002:0003a690       ??$insert@U?$pair@V?$basic_string@_WU?$char_traits@_W@std@@V?$allocator@_W@2@@std@@U?$pair@II@2@@std@@@?$_Tree@V?$_Tmap_traits@V?$basic_string@_WU?$char_traits@_W@std@@V?$allocator@_W@2@@std@@U?$pair@II@2@U?$less@V?$basic_string@_WU?$char_traits@_W@std@@V?$allocator@_W@2@@std@@@2@V?$allocator@U?$pair@$$CBV?$basic_string@_WU?$char_traits@_W@std@@V?$allocator@_W@2@@std@@U?$pair@II@2@@std@@@2@$0A@@std@@@std@@QAE?AU?$pair@V?$_Tree_iterator@V?$_Tree_val@V?$_Tmap_traits@V?$basic_string@_WU?$char_traits@_W@std@@V?$allocator@_W@2@@std@@U?$pair@II@2@U?$less@V?$basic_string@_WU?$char_traits@_W@std@@V?$allocator@_W@2@@std@@@2@V?$allocator@U?$pair@$$CBV?$basic_string@_WU?$char_traits@_W@std@@V?$allocator@_W@2@@std@@U?$pair@II@2@@std@@@2@$0A@@std@@@std@@@std@@_N@1@$$QAU?$pair@V?$basic_string@_WU?$char_traits@_W@std@@V?$allocator@_W@2@@std@@U?$pair@II@2@@1@@Z 1003c690 f i recorderinterface.obj
 0002:0003a6f0       ??$_Kfn@$$CBV?$basic_string@_WU?$char_traits@_W@std@@V?$allocator@_W@2@@std@@U?$pair@II@2@@?$_Tmap_traits@V?$basic_string@_WU?$char_traits@_W@std@@V?$allocator@_W@2@@std@@U?$pair@II@2@U?$less@V?$basic_string@_WU?$char_traits@_W@std@@V?$allocator@_W@2@@std@@@2@V?$allocator@U?$pair@$$CBV?$basic_string@_WU?$char_traits@_W@std@@V?$allocator@_W@2@@std@@U?$pair@II@2@@std@@@2@$0A@@std@@SAABV?$basic_string@_WU?$char_traits@_W@std@@V?$allocator@_W@2@@1@ABU?$pair@$$CBV?$basic_string@_WU?$char_traits@_W@std@@V?$allocator@_W@2@@std@@U?$pair@II@2@@1@@Z 1003c6f0 f i recorderinterface.obj
 0002:0003a720       ?_Linsert@?$_Tree@V?$_Tmap_traits@V?$basic_string@_WU?$char_traits@_W@std@@V?$allocator@_W@2@@std@@U?$pair@II@2@U?$less@V?$basic_string@_WU?$char_traits@_W@std@@V?$allocator@_W@2@@std@@@2@V?$allocator@U?$pair@$$CBV?$basic_string@_WU?$char_traits@_W@std@@V?$allocator@_W@2@@std@@U?$pair@II@2@@std@@@2@$0A@@std@@@std@@QAE?AU?$pair@V?$_Tree_iterator@V?$_Tree_val@V?$_Tmap_traits@V?$basic_string@_WU?$char_traits@_W@std@@V?$allocator@_W@2@@std@@U?$pair@II@2@U?$less@V?$basic_string@_WU?$char_traits@_W@std@@V?$allocator@_W@2@@std@@@2@V?$allocator@U?$pair@$$CBV?$basic_string@_WU?$char_traits@_W@std@@V?$allocator@_W@2@@std@@U?$pair@II@2@@std@@@2@$0A@@std@@@std@@@std@@_N@2@PAU_Node@?$_Tree_nod@V?$_Tmap_traits@V?$basic_string@_WU?$char_traits@_W@std@@V?$allocator@_W@2@@std@@U?$pair@II@2@U?$less@V?$basic_string@_WU?$char_traits@_W@std@@V?$allocator@_W@2@@std@@@2@V?$allocator@U?$pair@$$CBV?$basic_string@_WU?$char_traits@_W@std@@V?$allocator@_W@2@@std@@U?$pair@II@2@@std@@@2@$0A@@std@@@2@_N@Z 1003c720 f i recorderinterface.obj
 0002:0003a9f0       ?begin@?$_Tree@V?$_Tmap_traits@V?$basic_string@_WU?$char_traits@_W@std@@V?$allocator@_W@2@@std@@U?$pair@II@2@U?$less@V?$basic_string@_WU?$char_traits@_W@std@@V?$allocator@_W@2@@std@@@2@V?$allocator@U?$pair@$$CBV?$basic_string@_WU?$char_traits@_W@std@@V?$allocator@_W@2@@std@@U?$pair@II@2@@std@@@2@$0A@@std@@@std@@QAE?AV?$_Tree_iterator@V?$_Tree_val@V?$_Tmap_traits@V?$basic_string@_WU?$char_traits@_W@std@@V?$allocator@_W@2@@std@@U?$pair@II@2@U?$less@V?$basic_string@_WU?$char_traits@_W@std@@V?$allocator@_W@2@@std@@@2@V?$allocator@U?$pair@$$CBV?$basic_string@_WU?$char_traits@_W@std@@V?$allocator@_W@2@@std@@U?$pair@II@2@@std@@@2@$0A@@std@@@std@@@2@XZ 1003c9f0 f i recorderinterface.obj
 0002:0003aa50       ?deallocate@?$allocator@U_Node@?$_Tree_nod@V?$_Tmap_traits@V?$basic_string@_WU?$char_traits@_W@std@@V?$allocator@_W@2@@std@@U?$pair@II@2@U?$less@V?$basic_string@_WU?$char_traits@_W@std@@V?$allocator@_W@2@@std@@@2@V?$allocator@U?$pair@$$CBV?$basic_string@_WU?$char_traits@_W@std@@V?$allocator@_W@2@@std@@U?$pair@II@2@@std@@@2@$0A@@std@@@std@@@std@@QAEXPAU_Node@?$_Tree_nod@V?$_Tmap_traits@V?$basic_string@_WU?$char_traits@_W@std@@V?$allocator@_W@2@@std@@U?$pair@II@2@U?$less@V?$basic_string@_WU?$char_traits@_W@std@@V?$allocator@_W@2@@std@@@2@V?$allocator@U?$pair@$$CBV?$basic_string@_WU?$char_traits@_W@std@@V?$allocator@_W@2@@std@@U?$pair@II@2@@std@@@2@$0A@@std@@@2@I@Z 1003ca50 f i recorderinterface.obj
 0002:0003aaa0       ?_Lmost@?$_Tree@V?$_Tmap_traits@V?$basic_string@_WU?$char_traits@_W@std@@V?$allocator@_W@2@@std@@U?$pair@II@2@U?$less@V?$basic_string@_WU?$char_traits@_W@std@@V?$allocator@_W@2@@std@@@2@V?$allocator@U?$pair@$$CBV?$basic_string@_WU?$char_traits@_W@std@@V?$allocator@_W@2@@std@@U?$pair@II@2@@std@@@2@$0A@@std@@@std@@IBEAAPAU_Node@?$_Tree_nod@V?$_Tmap_traits@V?$basic_string@_WU?$char_traits@_W@std@@V?$allocator@_W@2@@std@@U?$pair@II@2@U?$less@V?$basic_string@_WU?$char_traits@_W@std@@V?$allocator@_W@2@@std@@@2@V?$allocator@U?$pair@$$CBV?$basic_string@_WU?$char_traits@_W@std@@V?$allocator@_W@2@@std@@U?$pair@II@2@@std@@@2@$0A@@std@@@2@XZ 1003caa0 f i recorderinterface.obj
 0002:0003aaf0       ??$addressof@U?$pair@$$CBV?$basic_string@_WU?$char_traits@_W@std@@V?$allocator@_W@2@@std@@U?$pair@II@2@@std@@@std@@YAPAU?$pair@$$CBV?$basic_string@_WU?$char_traits@_W@std@@V?$allocator@_W@2@@std@@U?$pair@II@2@@0@AAU10@@Z 1003caf0 f i recorderinterface.obj
 0002:0003ab20       ??$_Dest_val@V?$allocator@U?$pair@$$CBV?$basic_string@_WU?$char_traits@_W@std@@V?$allocator@_W@2@@std@@U?$pair@II@2@@std@@@std@@U?$pair@$$CBV?$basic_string@_WU?$char_traits@_W@std@@V?$allocator@_W@2@@std@@U?$pair@II@2@@2@@std@@YAXAAV?$allocator@U?$pair@$$CBV?$basic_string@_WU?$char_traits@_W@std@@V?$allocator@_W@2@@std@@U?$pair@II@2@@std@@@0@PAU?$pair@$$CBV?$basic_string@_WU?$char_traits@_W@std@@V?$allocator@_W@2@@std@@U?$pair@II@2@@0@@Z 1003cb20 f i recorderinterface.obj
 0002:0003ab60       ?destroy@?$allocator@U?$pair@$$CBV?$basic_string@_WU?$char_traits@_W@std@@V?$allocator@_W@2@@std@@U?$pair@II@2@@std@@@std@@QAEXPAU?$pair@$$CBV?$basic_string@_WU?$char_traits@_W@std@@V?$allocator@_W@2@@std@@U?$pair@II@2@@2@@Z 1003cb60 f i recorderinterface.obj
 0002:0003abb0       ??0?$pair@V?$basic_string@_WU?$char_traits@_W@std@@V?$allocator@_W@2@@std@@U?$pair@II@2@@std@@QAE@$$QAV?$basic_string@_WU?$char_traits@_W@std@@V?$allocator@_W@2@@1@$$QAU?$pair@II@1@@Z 1003cbb0 f i recorderinterface.obj
 0002:0003ac10       ?_Insert@?$_Tree@V?$_Tmap_traits@V?$basic_string@_WU?$char_traits@_W@std@@V?$allocator@_W@2@@std@@U?$pair@II@2@U?$less@V?$basic_string@_WU?$char_traits@_W@std@@V?$allocator@_W@2@@std@@@2@V?$allocator@U?$pair@$$CBV?$basic_string@_WU?$char_traits@_W@std@@V?$allocator@_W@2@@std@@U?$pair@II@2@@std@@@2@$0A@@std@@@std@@IAE?AV?$_Tree_iterator@V?$_Tree_val@V?$_Tmap_traits@V?$basic_string@_WU?$char_traits@_W@std@@V?$allocator@_W@2@@std@@U?$pair@II@2@U?$less@V?$basic_string@_WU?$char_traits@_W@std@@V?$allocator@_W@2@@std@@@2@V?$allocator@U?$pair@$$CBV?$basic_string@_WU?$char_traits@_W@std@@V?$allocator@_W@2@@std@@U?$pair@II@2@@std@@@2@$0A@@std@@@std@@@2@_NPAU_Node@?$_Tree_nod@V?$_Tmap_traits@V?$basic_string@_WU?$char_traits@_W@std@@V?$allocator@_W@2@@std@@U?$pair@II@2@U?$less@V?$basic_string@_WU?$char_traits@_W@std@@V?$allocator@_W@2@@std@@@2@V?$allocator@U?$pair@$$CBV?$basic_string@_WU?$char_traits@_W@std@@V?$allocator@_W@2@@std@@U?$pair@II@2@@std@@@2@$0A@@std@@@2@1@Z 1003cc10 f i recorderinterface.obj
 0002:0003b080       ?_Color@?$_Tree_val@V?$_Tmap_traits@V?$basic_string@_WU?$char_traits@_W@std@@V?$allocator@_W@2@@std@@U?$pair@II@2@U?$less@V?$basic_string@_WU?$char_traits@_W@std@@V?$allocator@_W@2@@std@@@2@V?$allocator@U?$pair@$$CBV?$basic_string@_WU?$char_traits@_W@std@@V?$allocator@_W@2@@std@@U?$pair@II@2@@std@@@2@$0A@@std@@@std@@SAAADPAU_Node@?$_Tree_nod@V?$_Tmap_traits@V?$basic_string@_WU?$char_traits@_W@std@@V?$allocator@_W@2@@std@@U?$pair@II@2@U?$less@V?$basic_string@_WU?$char_traits@_W@std@@V?$allocator@_W@2@@std@@@2@V?$allocator@U?$pair@$$CBV?$basic_string@_WU?$char_traits@_W@std@@V?$allocator@_W@2@@std@@U?$pair@II@2@@std@@@2@$0A@@std@@@2@@Z 1003d080 f i recorderinterface.obj
 0002:0003b0b0       ?_Lrotate@?$_Tree@V?$_Tmap_traits@V?$basic_string@_WU?$char_traits@_W@std@@V?$allocator@_W@2@@std@@U?$pair@II@2@U?$less@V?$basic_string@_WU?$char_traits@_W@std@@V?$allocator@_W@2@@std@@@2@V?$allocator@U?$pair@$$CBV?$basic_string@_WU?$char_traits@_W@std@@V?$allocator@_W@2@@std@@U?$pair@II@2@@std@@@2@$0A@@std@@@std@@IAEXPAU_Node@?$_Tree_nod@V?$_Tmap_traits@V?$basic_string@_WU?$char_traits@_W@std@@V?$allocator@_W@2@@std@@U?$pair@II@2@U?$less@V?$basic_string@_WU?$char_traits@_W@std@@V?$allocator@_W@2@@std@@@2@V?$allocator@U?$pair@$$CBV?$basic_string@_WU?$char_traits@_W@std@@V?$allocator@_W@2@@std@@U?$pair@II@2@@std@@@2@$0A@@std@@@2@@Z 1003d0b0 f i recorderinterface.obj
 0002:0003b210       ?_Rmost@?$_Tree@V?$_Tmap_traits@V?$basic_string@_WU?$char_traits@_W@std@@V?$allocator@_W@2@@std@@U?$pair@II@2@U?$less@V?$basic_string@_WU?$char_traits@_W@std@@V?$allocator@_W@2@@std@@@2@V?$allocator@U?$pair@$$CBV?$basic_string@_WU?$char_traits@_W@std@@V?$allocator@_W@2@@std@@U?$pair@II@2@@std@@@2@$0A@@std@@@std@@IBEAAPAU_Node@?$_Tree_nod@V?$_Tmap_traits@V?$basic_string@_WU?$char_traits@_W@std@@V?$allocator@_W@2@@std@@U?$pair@II@2@U?$less@V?$basic_string@_WU?$char_traits@_W@std@@V?$allocator@_W@2@@std@@@2@V?$allocator@U?$pair@$$CBV?$basic_string@_WU?$char_traits@_W@std@@V?$allocator@_W@2@@std@@U?$pair@II@2@@std@@@2@$0A@@std@@@2@XZ 1003d210 f i recorderinterface.obj
 0002:0003b260       ?_Rrotate@?$_Tree@V?$_Tmap_traits@V?$basic_string@_WU?$char_traits@_W@std@@V?$allocator@_W@2@@std@@U?$pair@II@2@U?$less@V?$basic_string@_WU?$char_traits@_W@std@@V?$allocator@_W@2@@std@@@2@V?$allocator@U?$pair@$$CBV?$basic_string@_WU?$char_traits@_W@std@@V?$allocator@_W@2@@std@@U?$pair@II@2@@std@@@2@$0A@@std@@@std@@IAEXPAU_Node@?$_Tree_nod@V?$_Tmap_traits@V?$basic_string@_WU?$char_traits@_W@std@@V?$allocator@_W@2@@std@@U?$pair@II@2@U?$less@V?$basic_string@_WU?$char_traits@_W@std@@V?$allocator@_W@2@@std@@@2@V?$allocator@U?$pair@$$CBV?$basic_string@_WU?$char_traits@_W@std@@V?$allocator@_W@2@@std@@U?$pair@II@2@@std@@@2@$0A@@std@@@2@@Z 1003d260 f i recorderinterface.obj
 0002:0003b3c0       ??F?$_Tree_iterator@V?$_Tree_val@V?$_Tmap_traits@V?$basic_string@_WU?$char_traits@_W@std@@V?$allocator@_W@2@@std@@U?$pair@II@2@U?$less@V?$basic_string@_WU?$char_traits@_W@std@@V?$allocator@_W@2@@std@@@2@V?$allocator@U?$pair@$$CBV?$basic_string@_WU?$char_traits@_W@std@@V?$allocator@_W@2@@std@@U?$pair@II@2@@std@@@2@$0A@@std@@@std@@@std@@QAEAAV01@XZ 1003d3c0 f i recorderinterface.obj
 0002:0003b410       ??0?$_Pair_base@V?$basic_string@_WU?$char_traits@_W@std@@V?$allocator@_W@2@@std@@U?$pair@II@2@@std@@QAE@$$QAV?$basic_string@_WU?$char_traits@_W@std@@V?$allocator@_W@2@@1@$$QAU?$pair@II@1@@Z 1003d410 f i recorderinterface.obj
 0002:0003b4c0       ??0?$pair@V?$_Tree_iterator@V?$_Tree_val@V?$_Tmap_traits@V?$basic_string@_WU?$char_traits@_W@std@@V?$allocator@_W@2@@std@@U?$pair@II@2@U?$less@V?$basic_string@_WU?$char_traits@_W@std@@V?$allocator@_W@2@@std@@@2@V?$allocator@U?$pair@$$CBV?$basic_string@_WU?$char_traits@_W@std@@V?$allocator@_W@2@@std@@U?$pair@II@2@@std@@@2@$0A@@std@@@std@@@std@@_N@std@@QAE@$$QAV?$_Tree_iterator@V?$_Tree_val@V?$_Tmap_traits@V?$basic_string@_WU?$char_traits@_W@std@@V?$allocator@_W@2@@std@@U?$pair@II@2@U?$less@V?$basic_string@_WU?$char_traits@_W@std@@V?$allocator@_W@2@@std@@@2@V?$allocator@U?$pair@$$CBV?$basic_string@_WU?$char_traits@_W@std@@V?$allocator@_W@2@@std@@U?$pair@II@2@@std@@@2@$0A@@std@@@std@@@1@$$QA_N@Z 1003d4c0 f i recorderinterface.obj
 0002:0003b520       ?max_size@?$_Tree@V?$_Tmap_traits@V?$basic_string@_WU?$char_traits@_W@std@@V?$allocator@_W@2@@std@@U?$pair@II@2@U?$less@V?$basic_string@_WU?$char_traits@_W@std@@V?$allocator@_W@2@@std@@@2@V?$allocator@U?$pair@$$CBV?$basic_string@_WU?$char_traits@_W@std@@V?$allocator@_W@2@@std@@U?$pair@II@2@@std@@@2@$0A@@std@@@std@@QBEIXZ 1003d520 f i recorderinterface.obj
 0002:0003b570       ??F?$_Tree_const_iterator@V?$_Tree_val@V?$_Tmap_traits@V?$basic_string@_WU?$char_traits@_W@std@@V?$allocator@_W@2@@std@@U?$pair@II@2@U?$less@V?$basic_string@_WU?$char_traits@_W@std@@V?$allocator@_W@2@@std@@@2@V?$allocator@U?$pair@$$CBV?$basic_string@_WU?$char_traits@_W@std@@V?$allocator@_W@2@@std@@U?$pair@II@2@@std@@@2@$0A@@std@@@std@@@std@@QAEAAV01@XZ 1003d570 f i recorderinterface.obj
 0002:0003b5c0       ??0?$_Pair_base@V?$_Tree_iterator@V?$_Tree_val@V?$_Tmap_traits@V?$basic_string@_WU?$char_traits@_W@std@@V?$allocator@_W@2@@std@@U?$pair@II@2@U?$less@V?$basic_string@_WU?$char_traits@_W@std@@V?$allocator@_W@2@@std@@@2@V?$allocator@U?$pair@$$CBV?$basic_string@_WU?$char_traits@_W@std@@V?$allocator@_W@2@@std@@U?$pair@II@2@@std@@@2@$0A@@std@@@std@@@std@@_N@std@@QAE@$$QAV?$_Tree_iterator@V?$_Tree_val@V?$_Tmap_traits@V?$basic_string@_WU?$char_traits@_W@std@@V?$allocator@_W@2@@std@@U?$pair@II@2@U?$less@V?$basic_string@_WU?$char_traits@_W@std@@V?$allocator@_W@2@@std@@@2@V?$allocator@U?$pair@$$CBV?$basic_string@_WU?$char_traits@_W@std@@V?$allocator@_W@2@@std@@U?$pair@II@2@@std@@@2@$0A@@std@@@std@@@1@$$QA_N@Z 1003d5c0 f i recorderinterface.obj
 0002:0003b630       ?max_size@?$allocator@U?$pair@$$CBV?$basic_string@_WU?$char_traits@_W@std@@V?$allocator@_W@2@@std@@U?$pair@II@2@@std@@@std@@QBEIXZ 1003d630 f i recorderinterface.obj
 0002:0003b690       ??F?$_Tree_unchecked_const_iterator@V?$_Tree_val@V?$_Tmap_traits@V?$basic_string@_WU?$char_traits@_W@std@@V?$allocator@_W@2@@std@@U?$pair@II@2@U?$less@V?$basic_string@_WU?$char_traits@_W@std@@V?$allocator@_W@2@@std@@@2@V?$allocator@U?$pair@$$CBV?$basic_string@_WU?$char_traits@_W@std@@V?$allocator@_W@2@@std@@U?$pair@II@2@@std@@@2@$0A@@std@@@std@@U_Iterator_base0@2@@std@@QAEAAV01@XZ 1003d690 f i recorderinterface.obj
 0002:0003b7a0       ?_Max@?$_Tree_val@V?$_Tmap_traits@V?$basic_string@_WU?$char_traits@_W@std@@V?$allocator@_W@2@@std@@U?$pair@II@2@U?$less@V?$basic_string@_WU?$char_traits@_W@std@@V?$allocator@_W@2@@std@@@2@V?$allocator@U?$pair@$$CBV?$basic_string@_WU?$char_traits@_W@std@@V?$allocator@_W@2@@std@@U?$pair@II@2@@std@@@2@$0A@@std@@@std@@SAPAU_Node@?$_Tree_nod@V?$_Tmap_traits@V?$basic_string@_WU?$char_traits@_W@std@@V?$allocator@_W@2@@std@@U?$pair@II@2@U?$less@V?$basic_string@_WU?$char_traits@_W@std@@V?$allocator@_W@2@@std@@@2@V?$allocator@U?$pair@$$CBV?$basic_string@_WU?$char_traits@_W@std@@V?$allocator@_W@2@@std@@U?$pair@II@2@@std@@@2@$0A@@std@@@2@PAU342@@Z 1003d7a0 f i recorderinterface.obj
 0002:0003b810       ??$forward@AAI@std@@YAAAIAAI@Z 1003d810 f i recorderinterface.obj
 0002:0003b840       ??$?0AAIAAI@?$pair@II@std@@QAE@AAI0@Z 1003d840 f i recorderinterface.obj
 0002:0003b8a0       ??$?0II@?$pair@II@std@@QAE@$$QAU01@@Z 1003d8a0 f i recorderinterface.obj
 0002:0003b910       ??$forward@U?$pair@II@std@@@std@@YA$$QAU?$pair@II@0@AAU10@@Z 1003d910 f i recorderinterface.obj
 0002:0003b940       ??$forward@U?$pair@V?$basic_string@_WU?$char_traits@_W@std@@V?$allocator@_W@2@@std@@U?$pair@II@2@@std@@@std@@YA$$QAU?$pair@V?$basic_string@_WU?$char_traits@_W@std@@V?$allocator@_W@2@@std@@U?$pair@II@2@@0@AAU10@@Z 1003d940 f i recorderinterface.obj
 0002:0003b970       ??$_Buynode@U?$pair@V?$basic_string@_WU?$char_traits@_W@std@@V?$allocator@_W@2@@std@@U?$pair@II@2@@std@@@?$_Tree_val@V?$_Tmap_traits@V?$basic_string@_WU?$char_traits@_W@std@@V?$allocator@_W@2@@std@@U?$pair@II@2@U?$less@V?$basic_string@_WU?$char_traits@_W@std@@V?$allocator@_W@2@@std@@@2@V?$allocator@U?$pair@$$CBV?$basic_string@_WU?$char_traits@_W@std@@V?$allocator@_W@2@@std@@U?$pair@II@2@@std@@@2@$0A@@std@@@std@@QAEPAU_Node@?$_Tree_nod@V?$_Tmap_traits@V?$basic_string@_WU?$char_traits@_W@std@@V?$allocator@_W@2@@std@@U?$pair@II@2@U?$less@V?$basic_string@_WU?$char_traits@_W@std@@V?$allocator@_W@2@@std@@@2@V?$allocator@U?$pair@$$CBV?$basic_string@_WU?$char_traits@_W@std@@V?$allocator@_W@2@@std@@U?$pair@II@2@@std@@@2@$0A@@std@@@1@$$QAU?$pair@V?$basic_string@_WU?$char_traits@_W@std@@V?$allocator@_W@2@@std@@U?$pair@II@2@@1@@Z 1003d970 f i recorderinterface.obj
 0002:0003ba80       ??$?0AAV?$_Tree_iterator@V?$_Tree_val@V?$_Tmap_traits@V?$basic_string@_WU?$char_traits@_W@std@@V?$allocator@_W@2@@std@@U?$pair@II@2@U?$less@V?$basic_string@_WU?$char_traits@_W@std@@V?$allocator@_W@2@@std@@@2@V?$allocator@U?$pair@$$CBV?$basic_string@_WU?$char_traits@_W@std@@V?$allocator@_W@2@@std@@U?$pair@II@2@@std@@@2@$0A@@std@@@std@@@std@@_N@?$pair@V?$_Tree_iterator@V?$_Tree_val@V?$_Tmap_traits@V?$basic_string@_WU?$char_traits@_W@std@@V?$allocator@_W@2@@std@@U?$pair@II@2@U?$less@V?$basic_string@_WU?$char_traits@_W@std@@V?$allocator@_W@2@@std@@@2@V?$allocator@U?$pair@$$CBV?$basic_string@_WU?$char_traits@_W@std@@V?$allocator@_W@2@@std@@U?$pair@II@2@@std@@@2@$0A@@std@@@std@@@std@@_N@std@@QAE@AAV?$_Tree_iterator@V?$_Tree_val@V?$_Tmap_traits@V?$basic_string@_WU?$char_traits@_W@std@@V?$allocator@_W@2@@std@@U?$pair@II@2@U?$less@V?$basic_string@_WU?$char_traits@_W@std@@V?$allocator@_W@2@@std@@@2@V?$allocator@U?$pair@$$CBV?$basic_string@_WU?$char_traits@_W@std@@V?$allocator@_W@2@@std@@U?$pair@II@2@@std@@@2@$0A@@std@@@std@@@1@$$QA_N@Z 1003da80 f i recorderinterface.obj
 0002:0003bae0       ??$_Destroy@U?$pair@$$CBV?$basic_string@_WU?$char_traits@_W@std@@V?$allocator@_W@2@@std@@U?$pair@II@2@@std@@@std@@YAXPAU?$pair@$$CBV?$basic_string@_WU?$char_traits@_W@std@@V?$allocator@_W@2@@std@@U?$pair@II@2@@0@@Z 1003dae0 f i recorderinterface.obj
 0002:0003bb20       ??$move@AAV?$basic_string@_WU?$char_traits@_W@std@@V?$allocator@_W@2@@std@@@std@@YA$$QAV?$basic_string@_WU?$char_traits@_W@std@@V?$allocator@_W@2@@0@AAV10@@Z 1003db20 f i recorderinterface.obj
 0002:0003bb50       ??$move@AAU?$pair@II@std@@@std@@YA$$QAU?$pair@II@0@AAU10@@Z 1003db50 f i recorderinterface.obj
 0002:0003bb80       ??$move@AAV?$_Tree_iterator@V?$_Tree_val@V?$_Tmap_traits@V?$basic_string@_WU?$char_traits@_W@std@@V?$allocator@_W@2@@std@@U?$pair@II@2@U?$less@V?$basic_string@_WU?$char_traits@_W@std@@V?$allocator@_W@2@@std@@@2@V?$allocator@U?$pair@$$CBV?$basic_string@_WU?$char_traits@_W@std@@V?$allocator@_W@2@@std@@U?$pair@II@2@@std@@@2@$0A@@std@@@std@@@std@@@std@@YA$$QAV?$_Tree_iterator@V?$_Tree_val@V?$_Tmap_traits@V?$basic_string@_WU?$char_traits@_W@std@@V?$allocator@_W@2@@std@@U?$pair@II@2@U?$less@V?$basic_string@_WU?$char_traits@_W@std@@V?$allocator@_W@2@@std@@@2@V?$allocator@U?$pair@$$CBV?$basic_string@_WU?$char_traits@_W@std@@V?$allocator@_W@2@@std@@U?$pair@II@2@@std@@@2@$0A@@std@@@std@@@0@AAV10@@Z 1003db80 f i recorderinterface.obj
 0002:0003bbb0       ??_G?$pair@$$CBV?$basic_string@_WU?$char_traits@_W@std@@V?$allocator@_W@2@@std@@U?$pair@II@2@@std@@QAEPAXI@Z 1003dbb0 f i recorderinterface.obj
 0002:0003bc10       ??1?$pair@$$CBV?$basic_string@_WU?$char_traits@_W@std@@V?$allocator@_W@2@@std@@U?$pair@II@2@@std@@QAE@XZ 1003dc10 f i recorderinterface.obj
 0002:0003bc50       ??1?$_Pair_base@$$CBV?$basic_string@_WU?$char_traits@_W@std@@V?$allocator@_W@2@@std@@U?$pair@II@2@@std@@QAE@XZ 1003dc50 f i recorderinterface.obj
 0002:0003bc90       ?_Buynode@?$_Tree_val@V?$_Tmap_traits@V?$basic_string@_WU?$char_traits@_W@std@@V?$allocator@_W@2@@std@@U?$pair@II@2@U?$less@V?$basic_string@_WU?$char_traits@_W@std@@V?$allocator@_W@2@@std@@@2@V?$allocator@U?$pair@$$CBV?$basic_string@_WU?$char_traits@_W@std@@V?$allocator@_W@2@@std@@U?$pair@II@2@@std@@@2@$0A@@std@@@std@@QAEPAU_Node@?$_Tree_nod@V?$_Tmap_traits@V?$basic_string@_WU?$char_traits@_W@std@@V?$allocator@_W@2@@std@@U?$pair@II@2@U?$less@V?$basic_string@_WU?$char_traits@_W@std@@V?$allocator@_W@2@@std@@@2@V?$allocator@U?$pair@$$CBV?$basic_string@_WU?$char_traits@_W@std@@V?$allocator@_W@2@@std@@U?$pair@II@2@@std@@@2@$0A@@std@@@2@XZ 1003dc90 f i recorderinterface.obj
 0002:0003bd40       ?allocate@?$allocator@U_Node@?$_Tree_nod@V?$_Tmap_traits@V?$basic_string@_WU?$char_traits@_W@std@@V?$allocator@_W@2@@std@@U?$pair@II@2@U?$less@V?$basic_string@_WU?$char_traits@_W@std@@V?$allocator@_W@2@@std@@@2@V?$allocator@U?$pair@$$CBV?$basic_string@_WU?$char_traits@_W@std@@V?$allocator@_W@2@@std@@U?$pair@II@2@@std@@@2@$0A@@std@@@std@@@std@@QAEPAU_Node@?$_Tree_nod@V?$_Tmap_traits@V?$basic_string@_WU?$char_traits@_W@std@@V?$allocator@_W@2@@std@@U?$pair@II@2@U?$less@V?$basic_string@_WU?$char_traits@_W@std@@V?$allocator@_W@2@@std@@@2@V?$allocator@U?$pair@$$CBV?$basic_string@_WU?$char_traits@_W@std@@V?$allocator@_W@2@@std@@U?$pair@II@2@@std@@@2@$0A@@std@@@2@I@Z 1003dd40 f i recorderinterface.obj
 0002:0003bd90       ??$_Allocate@U_Node@?$_Tree_nod@V?$_Tmap_traits@V?$basic_string@_WU?$char_traits@_W@std@@V?$allocator@_W@2@@std@@U?$pair@II@2@U?$less@V?$basic_string@_WU?$char_traits@_W@std@@V?$allocator@_W@2@@std@@@2@V?$allocator@U?$pair@$$CBV?$basic_string@_WU?$char_traits@_W@std@@V?$allocator@_W@2@@std@@U?$pair@II@2@@std@@@2@$0A@@std@@@std@@@std@@YAPAU_Node@?$_Tree_nod@V?$_Tmap_traits@V?$basic_string@_WU?$char_traits@_W@std@@V?$allocator@_W@2@@std@@U?$pair@II@2@U?$less@V?$basic_string@_WU?$char_traits@_W@std@@V?$allocator@_W@2@@std@@@2@V?$allocator@U?$pair@$$CBV?$basic_string@_WU?$char_traits@_W@std@@V?$allocator@_W@2@@std@@U?$pair@II@2@@std@@@2@$0A@@std@@@0@IPAU120@@Z 1003dd90 f i recorderinterface.obj
 0002:0003be20       ??0?$_Pair_base@II@std@@QAE@$$QAI0@Z 1003de20 f i recorderinterface.obj
 0002:0003be90       ??$?0AAIAAI@?$_Pair_base@II@std@@QAE@AAI0@Z 1003de90 f i recorderinterface.obj
 0002:0003bf00       ??$forward@I@std@@YA$$QAIAAI@Z 1003df00 f i recorderinterface.obj
 0002:0003bf30       ??$_Cons_val@V?$allocator@U?$pair@$$CBV?$basic_string@_WU?$char_traits@_W@std@@V?$allocator@_W@2@@std@@U?$pair@II@2@@std@@@std@@U?$pair@$$CBV?$basic_string@_WU?$char_traits@_W@std@@V?$allocator@_W@2@@std@@U?$pair@II@2@@2@U?$pair@V?$basic_string@_WU?$char_traits@_W@std@@V?$allocator@_W@2@@std@@U?$pair@II@2@@2@@std@@YAXAAV?$allocator@U?$pair@$$CBV?$basic_string@_WU?$char_traits@_W@std@@V?$allocator@_W@2@@std@@U?$pair@II@2@@std@@@0@PAU?$pair@$$CBV?$basic_string@_WU?$char_traits@_W@std@@V?$allocator@_W@2@@std@@U?$pair@II@2@@0@$$QAU?$pair@V?$basic_string@_WU?$char_traits@_W@std@@V?$allocator@_W@2@@std@@U?$pair@II@2@@0@@Z 1003df30 f i recorderinterface.obj
 0002:0003bf80       ??$forward@AAV?$_Tree_iterator@V?$_Tree_val@V?$_Tmap_traits@V?$basic_string@_WU?$char_traits@_W@std@@V?$allocator@_W@2@@std@@U?$pair@II@2@U?$less@V?$basic_string@_WU?$char_traits@_W@std@@V?$allocator@_W@2@@std@@@2@V?$allocator@U?$pair@$$CBV?$basic_string@_WU?$char_traits@_W@std@@V?$allocator@_W@2@@std@@U?$pair@II@2@@std@@@2@$0A@@std@@@std@@@std@@@std@@YAAAV?$_Tree_iterator@V?$_Tree_val@V?$_Tmap_traits@V?$basic_string@_WU?$char_traits@_W@std@@V?$allocator@_W@2@@std@@U?$pair@II@2@U?$less@V?$basic_string@_WU?$char_traits@_W@std@@V?$allocator@_W@2@@std@@@2@V?$allocator@U?$pair@$$CBV?$basic_string@_WU?$char_traits@_W@std@@V?$allocator@_W@2@@std@@U?$pair@II@2@@std@@@2@$0A@@std@@@std@@@0@AAV10@@Z 1003df80 f i recorderinterface.obj
 0002:0003bfb0       ??$?0AAV?$_Tree_iterator@V?$_Tree_val@V?$_Tmap_traits@V?$basic_string@_WU?$char_traits@_W@std@@V?$allocator@_W@2@@std@@U?$pair@II@2@U?$less@V?$basic_string@_WU?$char_traits@_W@std@@V?$allocator@_W@2@@std@@@2@V?$allocator@U?$pair@$$CBV?$basic_string@_WU?$char_traits@_W@std@@V?$allocator@_W@2@@std@@U?$pair@II@2@@std@@@2@$0A@@std@@@std@@@std@@_N@?$_Pair_base@V?$_Tree_iterator@V?$_Tree_val@V?$_Tmap_traits@V?$basic_string@_WU?$char_traits@_W@std@@V?$allocator@_W@2@@std@@U?$pair@II@2@U?$less@V?$basic_string@_WU?$char_traits@_W@std@@V?$allocator@_W@2@@std@@@2@V?$allocator@U?$pair@$$CBV?$basic_string@_WU?$char_traits@_W@std@@V?$allocator@_W@2@@std@@U?$pair@II@2@@std@@@2@$0A@@std@@@std@@@std@@_N@std@@QAE@AAV?$_Tree_iterator@V?$_Tree_val@V?$_Tmap_traits@V?$basic_string@_WU?$char_traits@_W@std@@V?$allocator@_W@2@@std@@U?$pair@II@2@U?$less@V?$basic_string@_WU?$char_traits@_W@std@@V?$allocator@_W@2@@std@@@2@V?$allocator@U?$pair@$$CBV?$basic_string@_WU?$char_traits@_W@std@@V?$allocator@_W@2@@std@@U?$pair@II@2@@std@@@2@$0A@@std@@@std@@@1@$$QA_N@Z 1003dfb0 f i recorderinterface.obj
 0002:0003c020       ??$move@AAI@std@@YA$$QAIAAI@Z 1003e020 f i recorderinterface.obj
 0002:0003c050       ??$construct@U?$pair@V?$basic_string@_WU?$char_traits@_W@std@@V?$allocator@_W@2@@std@@U?$pair@II@2@@std@@@?$allocator@U?$pair@$$CBV?$basic_string@_WU?$char_traits@_W@std@@V?$allocator@_W@2@@std@@U?$pair@II@2@@std@@@std@@QAEXPAU?$pair@$$CBV?$basic_string@_WU?$char_traits@_W@std@@V?$allocator@_W@2@@std@@U?$pair@II@2@@1@$$QAU?$pair@V?$basic_string@_WU?$char_traits@_W@std@@V?$allocator@_W@2@@std@@U?$pair@II@2@@1@@Z 1003e050 f i recorderinterface.obj
 0002:0003c120       ??$?0V?$basic_string@_WU?$char_traits@_W@std@@V?$allocator@_W@2@@std@@U?$pair@II@1@@?$pair@$$CBV?$basic_string@_WU?$char_traits@_W@std@@V?$allocator@_W@2@@std@@U?$pair@II@2@@std@@QAE@$$QAU?$pair@V?$basic_string@_WU?$char_traits@_W@std@@V?$allocator@_W@2@@std@@U?$pair@II@2@@1@@Z 1003e120 f i recorderinterface.obj
 0002:0003c190       ??$?0V?$basic_string@_WU?$char_traits@_W@std@@V?$allocator@_W@2@@std@@U?$pair@II@1@@?$_Pair_base@$$CBV?$basic_string@_WU?$char_traits@_W@std@@V?$allocator@_W@2@@std@@U?$pair@II@2@@std@@QAE@$$QAV?$basic_string@_WU?$char_traits@_W@std@@V?$allocator@_W@2@@1@$$QAU?$pair@II@1@@Z 1003e190 f i recorderinterface.obj
 0002:0003c240       ??0?$map@V?$basic_string@_WU?$char_traits@_W@std@@V?$allocator@_W@2@@std@@U?$pair@II@2@U?$less@V?$basic_string@_WU?$char_traits@_W@std@@V?$allocator@_W@2@@std@@@2@V?$allocator@U?$pair@$$CBV?$basic_string@_WU?$char_traits@_W@std@@V?$allocator@_W@2@@std@@U?$pair@II@2@@std@@@2@@std@@QAE@XZ 1003e240 f i recorderinterface.obj
 0002:0003c2a0       ??0?$_Tree@V?$_Tmap_traits@V?$basic_string@_WU?$char_traits@_W@std@@V?$allocator@_W@2@@std@@U?$pair@II@2@U?$less@V?$basic_string@_WU?$char_traits@_W@std@@V?$allocator@_W@2@@std@@@2@V?$allocator@U?$pair@$$CBV?$basic_string@_WU?$char_traits@_W@std@@V?$allocator@_W@2@@std@@U?$pair@II@2@@std@@@2@$0A@@std@@@std@@QAE@ABU?$less@V?$basic_string@_WU?$char_traits@_W@std@@V?$allocator@_W@2@@std@@@1@ABV?$allocator@U?$pair@$$CBV?$basic_string@_WU?$char_traits@_W@std@@V?$allocator@_W@2@@std@@U?$pair@II@2@@std@@@1@@Z 1003e2a0 f i recorderinterface.obj
 0002:0003c300       ??0?$allocator@U?$pair@$$CBV?$basic_string@_WU?$char_traits@_W@std@@V?$allocator@_W@2@@std@@U?$pair@II@2@@std@@@std@@QAE@XZ 1003e300 f i recorderinterface.obj
 0002:0003c330       ??0?$_Tree_val@V?$_Tmap_traits@V?$basic_string@_WU?$char_traits@_W@std@@V?$allocator@_W@2@@std@@U?$pair@II@2@U?$less@V?$basic_string@_WU?$char_traits@_W@std@@V?$allocator@_W@2@@std@@@2@V?$allocator@U?$pair@$$CBV?$basic_string@_WU?$char_traits@_W@std@@V?$allocator@_W@2@@std@@U?$pair@II@2@@std@@@2@$0A@@std@@@std@@QAE@ABU?$less@V?$basic_string@_WU?$char_traits@_W@std@@V?$allocator@_W@2@@std@@@1@V?$allocator@U?$pair@$$CBV?$basic_string@_WU?$char_traits@_W@std@@V?$allocator@_W@2@@std@@U?$pair@II@2@@std@@@1@@Z 1003e330 f i recorderinterface.obj
 0002:0003c410       ??0?$allocator@U?$pair@$$CBV?$basic_string@_WU?$char_traits@_W@std@@V?$allocator@_W@2@@std@@U?$pair@II@2@@std@@@std@@QAE@ABV01@@Z 1003e410 f i recorderinterface.obj
 0002:0003c440       ??0?$_Tree_nod@V?$_Tmap_traits@V?$basic_string@_WU?$char_traits@_W@std@@V?$allocator@_W@2@@std@@U?$pair@II@2@U?$less@V?$basic_string@_WU?$char_traits@_W@std@@V?$allocator@_W@2@@std@@@2@V?$allocator@U?$pair@$$CBV?$basic_string@_WU?$char_traits@_W@std@@V?$allocator@_W@2@@std@@U?$pair@II@2@@std@@@2@$0A@@std@@@std@@QAE@ABU?$less@V?$basic_string@_WU?$char_traits@_W@std@@V?$allocator@_W@2@@std@@@1@V?$allocator@U?$pair@$$CBV?$basic_string@_WU?$char_traits@_W@std@@V?$allocator@_W@2@@std@@U?$pair@II@2@@std@@@1@@Z 1003e440 f i recorderinterface.obj
 0002:0003c4b0       ??0?$_Tmap_traits@V?$basic_string@_WU?$char_traits@_W@std@@V?$allocator@_W@2@@std@@U?$pair@II@2@U?$less@V?$basic_string@_WU?$char_traits@_W@std@@V?$allocator@_W@2@@std@@@2@V?$allocator@U?$pair@$$CBV?$basic_string@_WU?$char_traits@_W@std@@V?$allocator@_W@2@@std@@U?$pair@II@2@@std@@@2@$0A@@std@@QAE@U?$less@V?$basic_string@_WU?$char_traits@_W@std@@V?$allocator@_W@2@@std@@@1@@Z 1003e4b0 f i recorderinterface.obj
 0002:0003c4e0       ??$?0U?$pair@$$CBV?$basic_string@_WU?$char_traits@_W@std@@V?$allocator@_W@2@@std@@U?$pair@II@2@@std@@@?$allocator@U_Node@?$_Tree_nod@V?$_Tmap_traits@V?$basic_string@_WU?$char_traits@_W@std@@V?$allocator@_W@2@@std@@U?$pair@II@2@U?$less@V?$basic_string@_WU?$char_traits@_W@std@@V?$allocator@_W@2@@std@@@2@V?$allocator@U?$pair@$$CBV?$basic_string@_WU?$char_traits@_W@std@@V?$allocator@_W@2@@std@@U?$pair@II@2@@std@@@2@$0A@@std@@@std@@@std@@QAE@ABV?$allocator@U?$pair@$$CBV?$basic_string@_WU?$char_traits@_W@std@@V?$allocator@_W@2@@std@@U?$pair@II@2@@std@@@1@@Z 1003e4e0 f i recorderinterface.obj
 0002:0003c510       ??1?$map@V?$basic_string@_WU?$char_traits@_W@std@@V?$allocator@_W@2@@std@@U?$pair@II@2@U?$less@V?$basic_string@_WU?$char_traits@_W@std@@V?$allocator@_W@2@@std@@@2@V?$allocator@U?$pair@$$CBV?$basic_string@_WU?$char_traits@_W@std@@V?$allocator@_W@2@@std@@U?$pair@II@2@@std@@@2@@std@@QAE@XZ 1003e510 f i recorderinterface.obj
 0002:0003c550       ??1?$_Tree@V?$_Tmap_traits@V?$basic_string@_WU?$char_traits@_W@std@@V?$allocator@_W@2@@std@@U?$pair@II@2@U?$less@V?$basic_string@_WU?$char_traits@_W@std@@V?$allocator@_W@2@@std@@@2@V?$allocator@U?$pair@$$CBV?$basic_string@_WU?$char_traits@_W@std@@V?$allocator@_W@2@@std@@U?$pair@II@2@@std@@@2@$0A@@std@@@std@@QAE@XZ 1003e550 f i recorderinterface.obj
 0002:0003c5d0       ?_Tidy@?$_Tree@V?$_Tmap_traits@V?$basic_string@_WU?$char_traits@_W@std@@V?$allocator@_W@2@@std@@U?$pair@II@2@U?$less@V?$basic_string@_WU?$char_traits@_W@std@@V?$allocator@_W@2@@std@@@2@V?$allocator@U?$pair@$$CBV?$basic_string@_WU?$char_traits@_W@std@@V?$allocator@_W@2@@std@@U?$pair@II@2@@std@@@2@$0A@@std@@@std@@IAEXXZ 1003e5d0 f i recorderinterface.obj
 0002:0003c660       ??1?$_Tree_val@V?$_Tmap_traits@V?$basic_string@_WU?$char_traits@_W@std@@V?$allocator@_W@2@@std@@U?$pair@II@2@U?$less@V?$basic_string@_WU?$char_traits@_W@std@@V?$allocator@_W@2@@std@@@2@V?$allocator@U?$pair@$$CBV?$basic_string@_WU?$char_traits@_W@std@@V?$allocator@_W@2@@std@@U?$pair@II@2@@std@@@2@$0A@@std@@@std@@QAE@XZ 1003e660 f i recorderinterface.obj
 0002:0003c6b0       ?erase@?$_Tree@V?$_Tmap_traits@V?$basic_string@_WU?$char_traits@_W@std@@V?$allocator@_W@2@@std@@U?$pair@II@2@U?$less@V?$basic_string@_WU?$char_traits@_W@std@@V?$allocator@_W@2@@std@@@2@V?$allocator@U?$pair@$$CBV?$basic_string@_WU?$char_traits@_W@std@@V?$allocator@_W@2@@std@@U?$pair@II@2@@std@@@2@$0A@@std@@@std@@QAE?AV?$_Tree_iterator@V?$_Tree_val@V?$_Tmap_traits@V?$basic_string@_WU?$char_traits@_W@std@@V?$allocator@_W@2@@std@@U?$pair@II@2@U?$less@V?$basic_string@_WU?$char_traits@_W@std@@V?$allocator@_W@2@@std@@@2@V?$allocator@U?$pair@$$CBV?$basic_string@_WU?$char_traits@_W@std@@V?$allocator@_W@2@@std@@U?$pair@II@2@@std@@@2@$0A@@std@@@std@@@2@V?$_Tree_const_iterator@V?$_Tree_val@V?$_Tmap_traits@V?$basic_string@_WU?$char_traits@_W@std@@V?$allocator@_W@2@@std@@U?$pair@II@2@U?$less@V?$basic_string@_WU?$char_traits@_W@std@@V?$allocator@_W@2@@std@@@2@V?$allocator@U?$pair@$$CBV?$basic_string@_WU?$char_traits@_W@std@@V?$allocator@_W@2@@std@@U?$pair@II@2@@std@@@2@$0A@@std@@@std@@@2@0@Z 1003e6b0 f i recorderinterface.obj
 0002:0003c790       ?erase@?$_Tree@V?$_Tmap_traits@V?$basic_string@_WU?$char_traits@_W@std@@V?$allocator@_W@2@@std@@U?$pair@II@2@U?$less@V?$basic_string@_WU?$char_traits@_W@std@@V?$allocator@_W@2@@std@@@2@V?$allocator@U?$pair@$$CBV?$basic_string@_WU?$char_traits@_W@std@@V?$allocator@_W@2@@std@@U?$pair@II@2@@std@@@2@$0A@@std@@@std@@QAE?AV?$_Tree_iterator@V?$_Tree_val@V?$_Tmap_traits@V?$basic_string@_WU?$char_traits@_W@std@@V?$allocator@_W@2@@std@@U?$pair@II@2@U?$less@V?$basic_string@_WU?$char_traits@_W@std@@V?$allocator@_W@2@@std@@@2@V?$allocator@U?$pair@$$CBV?$basic_string@_WU?$char_traits@_W@std@@V?$allocator@_W@2@@std@@U?$pair@II@2@@std@@@2@$0A@@std@@@std@@@2@V?$_Tree_const_iterator@V?$_Tree_val@V?$_Tmap_traits@V?$basic_string@_WU?$char_traits@_W@std@@V?$allocator@_W@2@@std@@U?$pair@II@2@U?$less@V?$basic_string@_WU?$char_traits@_W@std@@V?$allocator@_W@2@@std@@@2@V?$allocator@U?$pair@$$CBV?$basic_string@_WU?$char_traits@_W@std@@V?$allocator@_W@2@@std@@U?$pair@II@2@@std@@@2@$0A@@std@@@std@@@2@@Z 1003e790 f i recorderinterface.obj
 0002:0003cf60       ?clear@?$_Tree@V?$_Tmap_traits@V?$basic_string@_WU?$char_traits@_W@std@@V?$allocator@_W@2@@std@@U?$pair@II@2@U?$less@V?$basic_string@_WU?$char_traits@_W@std@@V?$allocator@_W@2@@std@@@2@V?$allocator@U?$pair@$$CBV?$basic_string@_WU?$char_traits@_W@std@@V?$allocator@_W@2@@std@@U?$pair@II@2@@std@@@2@$0A@@std@@@std@@QAEXXZ 1003ef60 f i recorderinterface.obj
 0002:0003cff0       ??E?$_Tree_const_iterator@V?$_Tree_val@V?$_Tmap_traits@V?$basic_string@_WU?$char_traits@_W@std@@V?$allocator@_W@2@@std@@U?$pair@II@2@U?$less@V?$basic_string@_WU?$char_traits@_W@std@@V?$allocator@_W@2@@std@@@2@V?$allocator@U?$pair@$$CBV?$basic_string@_WU?$char_traits@_W@std@@V?$allocator@_W@2@@std@@U?$pair@II@2@@std@@@2@$0A@@std@@@std@@@std@@QAE?AV01@H@Z 1003eff0 f i recorderinterface.obj
 0002:0003d080       ?_Erase@?$_Tree@V?$_Tmap_traits@V?$basic_string@_WU?$char_traits@_W@std@@V?$allocator@_W@2@@std@@U?$pair@II@2@U?$less@V?$basic_string@_WU?$char_traits@_W@std@@V?$allocator@_W@2@@std@@@2@V?$allocator@U?$pair@$$CBV?$basic_string@_WU?$char_traits@_W@std@@V?$allocator@_W@2@@std@@U?$pair@II@2@@std@@@2@$0A@@std@@@std@@IAEXPAU_Node@?$_Tree_nod@V?$_Tmap_traits@V?$basic_string@_WU?$char_traits@_W@std@@V?$allocator@_W@2@@std@@U?$pair@II@2@U?$less@V?$basic_string@_WU?$char_traits@_W@std@@V?$allocator@_W@2@@std@@@2@V?$allocator@U?$pair@$$CBV?$basic_string@_WU?$char_traits@_W@std@@V?$allocator@_W@2@@std@@U?$pair@II@2@@std@@@2@$0A@@std@@@2@@Z 1003f080 f i recorderinterface.obj
 0002:0003d140       ?_Min@?$_Tree_val@V?$_Tmap_traits@V?$basic_string@_WU?$char_traits@_W@std@@V?$allocator@_W@2@@std@@U?$pair@II@2@U?$less@V?$basic_string@_WU?$char_traits@_W@std@@V?$allocator@_W@2@@std@@@2@V?$allocator@U?$pair@$$CBV?$basic_string@_WU?$char_traits@_W@std@@V?$allocator@_W@2@@std@@U?$pair@II@2@@std@@@2@$0A@@std@@@std@@SAPAU_Node@?$_Tree_nod@V?$_Tmap_traits@V?$basic_string@_WU?$char_traits@_W@std@@V?$allocator@_W@2@@std@@U?$pair@II@2@U?$less@V?$basic_string@_WU?$char_traits@_W@std@@V?$allocator@_W@2@@std@@@2@V?$allocator@U?$pair@$$CBV?$basic_string@_WU?$char_traits@_W@std@@V?$allocator@_W@2@@std@@U?$pair@II@2@@std@@@2@$0A@@std@@@2@PAU342@@Z 1003f140 f i recorderinterface.obj
 0002:0003d1b0       ??E?$_Tree_const_iterator@V?$_Tree_val@V?$_Tmap_traits@V?$basic_string@_WU?$char_traits@_W@std@@V?$allocator@_W@2@@std@@U?$pair@II@2@U?$less@V?$basic_string@_WU?$char_traits@_W@std@@V?$allocator@_W@2@@std@@@2@V?$allocator@U?$pair@$$CBV?$basic_string@_WU?$char_traits@_W@std@@V?$allocator@_W@2@@std@@U?$pair@II@2@@std@@@2@$0A@@std@@@std@@@std@@QAEAAV01@XZ 1003f1b0 f i recorderinterface.obj
 0002:0003d200       ??E?$_Tree_unchecked_const_iterator@V?$_Tree_val@V?$_Tmap_traits@V?$basic_string@_WU?$char_traits@_W@std@@V?$allocator@_W@2@@std@@U?$pair@II@2@U?$less@V?$basic_string@_WU?$char_traits@_W@std@@V?$allocator@_W@2@@std@@@2@V?$allocator@U?$pair@$$CBV?$basic_string@_WU?$char_traits@_W@std@@V?$allocator@_W@2@@std@@U?$pair@II@2@@std@@@2@$0A@@std@@@std@@U_Iterator_base0@2@@std@@QAEAAV01@XZ 1003f200 f i recorderinterface.obj
 0002:0003d2f0       ??0CaptureInputPin@@QAE@PA_WPAVCaptureSinkFilter@@PAVCCritSec@@PAJPB_W@Z 1003f2f0 f   capsinkfilter.obj
 0002:0003d3e0       ?QueryInternalConnections@CBasePin@@UAGJPAPAUIPin@@PAK@Z 1003f3e0 f i capsinkfilter.obj
 0002:0003d410       ?QueryInterface@CBaseInputPin@@UAGJABU_GUID@@PAPAX@Z 1003f410 f i capsinkfilter.obj
 0002:0003d480       ?GetOwner@CUnknown@@QBEPAUIUnknown@@XZ 1003f480 f i capsinkfilter.obj
 0002:0003d4b0       ?AddRef@CBaseInputPin@@UAGKXZ 1003f4b0 f i capsinkfilter.obj
 0002:0003d520       ?Release@CBaseInputPin@@UAGKXZ 1003f520 f i capsinkfilter.obj
 0002:0003d590       ??0VideoCaptureCapability@@QAE@XZ 1003f590 f i capsinkfilter.obj
 0002:0003d600       ??_GCaptureInputPin@@UAEPAXI@Z 1003f600 f i capsinkfilter.obj
 0002:0003d600       ??_ECaptureInputPin@@UAEPAXI@Z 1003f600 f i capsinkfilter.obj
 0002:0003d660       ??1CaptureInputPin@@UAE@XZ 1003f660 f   capsinkfilter.obj
 0002:0003d6d0       ?GetMediaType@CaptureInputPin@@UAEJHPAVCMediaType@@@Z 1003f6d0 f   capsinkfilter.obj
 0002:0003da60       ?CheckMediaType@CaptureInputPin@@UAEJPBVCMediaType@@@Z 1003fa60 f   capsinkfilter.obj
 0002:0003deb0       ?abs@@YAJJ@Z               1003feb0 f i capsinkfilter.obj
 0002:0003def0       ?Type@CMediaType@@QBEPBU_GUID@@XZ 1003fef0 f i capsinkfilter.obj
 0002:0003df20       ?Subtype@CMediaType@@QBEPBU_GUID@@XZ 1003ff20 f i capsinkfilter.obj
 0002:0003df50       ?Format@CMediaType@@QBEPAEXZ 1003ff50 f i capsinkfilter.obj
 0002:0003df80       ?FormatType@CMediaType@@QBEPBU_GUID@@XZ 1003ff80 f i capsinkfilter.obj
 0002:0003dfb0       ?Receive@CaptureInputPin@@UAGJPAUIMediaSample@@@Z 1003ffb0 f   capsinkfilter.obj
 0002:0003e1a0       ?LockReceive@CaptureSinkFilter@@QAEXXZ 100401a0 f i capsinkfilter.obj
 0002:0003e1f0       ?Lock@CCritSec@@QAEXXZ     100401f0 f i capsinkfilter.obj
 0002:0003e240       ?UnlockReceive@CaptureSinkFilter@@QAEXXZ 10040240 f i capsinkfilter.obj
 0002:0003e290       ?Unlock@CCritSec@@QAEXXZ   10040290 f i capsinkfilter.obj
 0002:0003e2e0       ?SetMatchingMediaType@CaptureInputPin@@QAEJABUVideoCaptureCapability@@@Z 100402e0 f   capsinkfilter.obj
 0002:0003e360       ??0CaptureSinkFilter@@QAE@PA_WPAUIUnknown@@PAJPAVCVidCapCom@@@Z 10040360 f   capsinkfilter.obj
 0002:0003e500       ??0CCritSec@@QAE@XZ        10040500 f i capsinkfilter.obj
 0002:0003e550       ??1CCritSec@@QAE@XZ        10040550 f i capsinkfilter.obj
 0002:0003e5a0       ?GetSetupData@CBaseFilter@@UAEPAU_AMOVIESETUP_FILTER@@XZ 100405a0 f i capsinkfilter.obj
 0002:0003e5d0       ?NonDelegatingRelease@CaptureSinkFilter@@UAGKXZ 100405d0 f i capsinkfilter.obj
 0002:0003e600       ?QueryInterface@CaptureSinkFilter@@UAGJABU_GUID@@PAPAX@Z 10040600 f i capsinkfilter.obj
 0002:0003e670       ?AddRef@CaptureSinkFilter@@UAGKXZ 10040670 f i capsinkfilter.obj
 0002:0003e6e0       ?Release@CaptureSinkFilter@@UAGKXZ 100406e0 f i capsinkfilter.obj
 0002:0003e750       ??_GCaptureSinkFilter@@UAEPAXI@Z 10040750 f i capsinkfilter.obj
 0002:0003e750       ??_ECaptureSinkFilter@@UAEPAXI@Z 10040750 f i capsinkfilter.obj
 0002:0003e7b0       ??1CaptureSinkFilter@@UAE@XZ 100407b0 f   capsinkfilter.obj
 0002:0003e8e0       ?GetPinCount@CaptureSinkFilter@@UAEHXZ 100408e0 f   capsinkfilter.obj
 0002:0003e910       ?GetPin@CaptureSinkFilter@@UAEPAVCBasePin@@H@Z 10040910 f   capsinkfilter.obj
 0002:0003e980       ?LockFilter@CaptureSinkFilter@@QAEXXZ 10040980 f i capsinkfilter.obj
 0002:0003e9d0       ?UnlockFilter@CaptureSinkFilter@@QAEXXZ 100409d0 f i capsinkfilter.obj
 0002:0003ea20       ?Pause@CaptureSinkFilter@@UAGJXZ 10040a20 f   capsinkfilter.obj
 0002:0003eaf0       ?IsConnected@CBasePin@@QAEHXZ 10040af0 f i capsinkfilter.obj
 0002:0003eb30       ?Stop@CaptureSinkFilter@@UAGJXZ 10040b30 f   capsinkfilter.obj
 0002:0003ebd0       ?ProcessCapturedFrame@CaptureSinkFilter@@QAEXPAEIABUVideoCaptureCapability@@@Z 10040bd0 f   capsinkfilter.obj
 0002:0003eda0       ?SetMatchingMediaType@CaptureSinkFilter@@QAGJABUVideoCaptureCapability@@@Z 10040da0 f   capsinkfilter.obj
 0002:0003ee30       ?GetClassID@CaptureSinkFilter@@UAGJPAU_GUID@@@Z 10040e30 f   capsinkfilter.obj
 0002:0003ee80       ?QueryInterface@CBaseInputPin@@WIM@AGJABU_GUID@@PAPAX@Z 10040e80 f i capsinkfilter.obj
 0002:0003ee90       ?Release@CBaseInputPin@@W3AGKXZ 10040e90 f i capsinkfilter.obj
 0002:0003eea0       ?QueryInterface@CaptureSinkFilter@@W3AGJABU_GUID@@PAPAX@Z 10040ea0 f i capsinkfilter.obj
 0002:0003eeb0       ?AddRef@CBaseInputPin@@W3AGKXZ 10040eb0 f i capsinkfilter.obj
 0002:0003eec0       ?Release@CBaseInputPin@@WIM@AGKXZ 10040ec0 f i capsinkfilter.obj
 0002:0003eed0       ?Release@CaptureSinkFilter@@W3AGKXZ 10040ed0 f i capsinkfilter.obj
 0002:0003eee0       ?QueryInterface@CBaseInputPin@@W3AGJABU_GUID@@PAPAX@Z 10040ee0 f i capsinkfilter.obj
 0002:0003eef0       ?AddRef@CBaseInputPin@@WIM@AGKXZ 10040ef0 f i capsinkfilter.obj
 0002:0003ef00       ?AddRef@CaptureSinkFilter@@W3AGKXZ 10040f00 f i capsinkfilter.obj
 0002:0003ef10       ?GetSingletonPtr@CDeviceNotifyMan@@SAPAV1@XZ 10040f10 f   devicenotify.obj
 0002:0003ef40       ??0CDeviceNotifyMan@@QAE@XZ 10040f40 f   devicenotify.obj
 0002:0003f030       ??_ECDeviceNotifyMan@@UAEPAXI@Z 10041030 f i devicenotify.obj
 0002:0003f030       ??_GCDeviceNotifyMan@@UAEPAXI@Z 10041030 f i devicenotify.obj
 0002:0003f090       ??1?$map@V?$basic_string@_WU?$char_traits@_W@std@@V?$allocator@_W@2@@std@@V12@U?$less@V?$basic_string@_WU?$char_traits@_W@std@@V?$allocator@_W@2@@std@@@2@V?$allocator@U?$pair@$$CBV?$basic_string@_WU?$char_traits@_W@std@@V?$allocator@_W@2@@std@@V12@@std@@@2@@std@@QAE@XZ 10041090 f i devicenotify.obj
 0002:0003f0d0       ??1CDeviceNotifyMan@@UAE@XZ 100410d0 f   devicenotify.obj
 0002:0003f1c0       ?Wchar_tToString@@YAXAAV?$basic_string@DU?$char_traits@D@std@@V?$allocator@D@2@@std@@PA_W@Z 100411c0 f   devicenotify.obj
 0002:0003f280       ?GetIsSurfacePro3@@YAHXZ   10041280 f   devicenotify.obj
 0002:0003f400       ?RealTaskProcess@CDeviceNotifyMan@@UAEXI@Z 10041400 f   devicenotify.obj
 0002:00040310       ??1?$pair@V?$basic_string@_WU?$char_traits@_W@std@@V?$allocator@_W@2@@std@@V12@@std@@QAE@XZ 10042310 f i devicenotify.obj
 0002:00040350       ??1?$_Pair_base@V?$basic_string@_WU?$char_traits@_W@std@@V?$allocator@_W@2@@std@@V12@@std@@QAE@XZ 10042350 f i devicenotify.obj
 0002:000403e0       ?Init@CDeviceNotifyMan@@QAEXXZ 100423e0 f   devicenotify.obj
 0002:00040500       ?SetAudioCaptureDeviceChangeCB@CDeviceNotifyMan@@QAEGP6AXIABV?$vector@UTDevNameInfo@@V?$allocator@UTDevNameInfo@@@std@@@std@@0@ZI@Z 10042500 f   devicenotify.obj
 0002:00040540       ?SetVideoCaptureDeviceChangeCB@CDeviceNotifyMan@@QAEGP6AXIABV?$vector@UTDevNameInfo@@V?$allocator@UTDevNameInfo@@@std@@@std@@0@ZI@Z 10042540 f   devicenotify.obj
 0002:00040580       ?find@?$basic_string@DU?$char_traits@D@std@@V?$allocator@D@2@@std@@QBEIPBDI@Z 10042580 f i devicenotify.obj
 0002:000405e0       ??0?$Singleton@VCDeviceNotifyMan@@@@QAE@XZ 100425e0 f i devicenotify.obj
 0002:00040640       ??1?$Singleton@VCDeviceNotifyMan@@@@QAE@XZ 10042640 f i devicenotify.obj
 0002:00040680       ??0?$map@V?$basic_string@_WU?$char_traits@_W@std@@V?$allocator@_W@2@@std@@V12@U?$less@V?$basic_string@_WU?$char_traits@_W@std@@V?$allocator@_W@2@@std@@@2@V?$allocator@U?$pair@$$CBV?$basic_string@_WU?$char_traits@_W@std@@V?$allocator@_W@2@@std@@V12@@std@@@2@@std@@QAE@XZ 10042680 f i devicenotify.obj
 0002:000406e0       ??1?$_Tree@V?$_Tmap_traits@V?$basic_string@_WU?$char_traits@_W@std@@V?$allocator@_W@2@@std@@V12@U?$less@V?$basic_string@_WU?$char_traits@_W@std@@V?$allocator@_W@2@@std@@@2@V?$allocator@U?$pair@$$CBV?$basic_string@_WU?$char_traits@_W@std@@V?$allocator@_W@2@@std@@V12@@std@@@2@$0A@@std@@@std@@QAE@XZ 100426e0 f i devicenotify.obj
 0002:00040760       ?begin@?$_Tree@V?$_Tmap_traits@V?$basic_string@_WU?$char_traits@_W@std@@V?$allocator@_W@2@@std@@V12@U?$less@V?$basic_string@_WU?$char_traits@_W@std@@V?$allocator@_W@2@@std@@@2@V?$allocator@U?$pair@$$CBV?$basic_string@_WU?$char_traits@_W@std@@V?$allocator@_W@2@@std@@V12@@std@@@2@$0A@@std@@@std@@QAE?AV?$_Tree_iterator@V?$_Tree_val@V?$_Tmap_traits@V?$basic_string@_WU?$char_traits@_W@std@@V?$allocator@_W@2@@std@@V12@U?$less@V?$basic_string@_WU?$char_traits@_W@std@@V?$allocator@_W@2@@std@@@2@V?$allocator@U?$pair@$$CBV?$basic_string@_WU?$char_traits@_W@std@@V?$allocator@_W@2@@std@@V12@@std@@@2@$0A@@std@@@std@@@2@XZ 10042760 f i devicenotify.obj
 0002:000407c0       ?end@?$_Tree@V?$_Tmap_traits@V?$basic_string@_WU?$char_traits@_W@std@@V?$allocator@_W@2@@std@@V12@U?$less@V?$basic_string@_WU?$char_traits@_W@std@@V?$allocator@_W@2@@std@@@2@V?$allocator@U?$pair@$$CBV?$basic_string@_WU?$char_traits@_W@std@@V?$allocator@_W@2@@std@@V12@@std@@@2@$0A@@std@@@std@@QAE?AV?$_Tree_iterator@V?$_Tree_val@V?$_Tmap_traits@V?$basic_string@_WU?$char_traits@_W@std@@V?$allocator@_W@2@@std@@V12@U?$less@V?$basic_string@_WU?$char_traits@_W@std@@V?$allocator@_W@2@@std@@@2@V?$allocator@U?$pair@$$CBV?$basic_string@_WU?$char_traits@_W@std@@V?$allocator@_W@2@@std@@V12@@std@@@2@$0A@@std@@@std@@@2@XZ 100427c0 f i devicenotify.obj
 0002:00040810       ?erase@?$_Tree@V?$_Tmap_traits@V?$basic_string@_WU?$char_traits@_W@std@@V?$allocator@_W@2@@std@@V12@U?$less@V?$basic_string@_WU?$char_traits@_W@std@@V?$allocator@_W@2@@std@@@2@V?$allocator@U?$pair@$$CBV?$basic_string@_WU?$char_traits@_W@std@@V?$allocator@_W@2@@std@@V12@@std@@@2@$0A@@std@@@std@@QAE?AV?$_Tree_iterator@V?$_Tree_val@V?$_Tmap_traits@V?$basic_string@_WU?$char_traits@_W@std@@V?$allocator@_W@2@@std@@V12@U?$less@V?$basic_string@_WU?$char_traits@_W@std@@V?$allocator@_W@2@@std@@@2@V?$allocator@U?$pair@$$CBV?$basic_string@_WU?$char_traits@_W@std@@V?$allocator@_W@2@@std@@V12@@std@@@2@$0A@@std@@@std@@@2@V?$_Tree_const_iterator@V?$_Tree_val@V?$_Tmap_traits@V?$basic_string@_WU?$char_traits@_W@std@@V?$allocator@_W@2@@std@@V12@U?$less@V?$basic_string@_WU?$char_traits@_W@std@@V?$allocator@_W@2@@std@@@2@V?$allocator@U?$pair@$$CBV?$basic_string@_WU?$char_traits@_W@std@@V?$allocator@_W@2@@std@@V12@@std@@@2@$0A@@std@@@std@@@2@@Z 10042810 f i devicenotify.obj
 0002:00040fe0       ?clear@?$_Tree@V?$_Tmap_traits@V?$basic_string@_WU?$char_traits@_W@std@@V?$allocator@_W@2@@std@@V12@U?$less@V?$basic_string@_WU?$char_traits@_W@std@@V?$allocator@_W@2@@std@@@2@V?$allocator@U?$pair@$$CBV?$basic_string@_WU?$char_traits@_W@std@@V?$allocator@_W@2@@std@@V12@@std@@@2@$0A@@std@@@std@@QAEXXZ 10042fe0 f i devicenotify.obj
 0002:00041070       ?find@?$_Tree@V?$_Tmap_traits@V?$basic_string@_WU?$char_traits@_W@std@@V?$allocator@_W@2@@std@@V12@U?$less@V?$basic_string@_WU?$char_traits@_W@std@@V?$allocator@_W@2@@std@@@2@V?$allocator@U?$pair@$$CBV?$basic_string@_WU?$char_traits@_W@std@@V?$allocator@_W@2@@std@@V12@@std@@@2@$0A@@std@@@std@@QAE?AV?$_Tree_iterator@V?$_Tree_val@V?$_Tmap_traits@V?$basic_string@_WU?$char_traits@_W@std@@V?$allocator@_W@2@@std@@V12@U?$less@V?$basic_string@_WU?$char_traits@_W@std@@V?$allocator@_W@2@@std@@@2@V?$allocator@U?$pair@$$CBV?$basic_string@_WU?$char_traits@_W@std@@V?$allocator@_W@2@@std@@V12@@std@@@2@$0A@@std@@@std@@@2@ABV?$basic_string@_WU?$char_traits@_W@std@@V?$allocator@_W@2@@2@@Z 10043070 f i devicenotify.obj
 0002:00041170       ??0?$vector@UtagVidCapNameInfo@@V?$allocator@UtagVidCapNameInfo@@@std@@@std@@QAE@XZ 10043170 f i devicenotify.obj
 0002:000411c0       ??1?$vector@UtagVidCapNameInfo@@V?$allocator@UtagVidCapNameInfo@@@std@@@std@@QAE@XZ 100431c0 f i devicenotify.obj
 0002:00041240       ??A?$vector@UtagVidCapNameInfo@@V?$allocator@UtagVidCapNameInfo@@@std@@@std@@QAEAAUtagVidCapNameInfo@@I@Z 10043240 f i devicenotify.obj
 0002:00041280       ??0?$_Tree_iterator@V?$_Tree_val@V?$_Tmap_traits@V?$basic_string@_WU?$char_traits@_W@std@@V?$allocator@_W@2@@std@@V12@U?$less@V?$basic_string@_WU?$char_traits@_W@std@@V?$allocator@_W@2@@std@@@2@V?$allocator@U?$pair@$$CBV?$basic_string@_WU?$char_traits@_W@std@@V?$allocator@_W@2@@std@@V12@@std@@@2@$0A@@std@@@std@@@std@@QAE@XZ 10043280 f i devicenotify.obj
 0002:000412d0       ??C?$_Tree_iterator@V?$_Tree_val@V?$_Tmap_traits@V?$basic_string@_WU?$char_traits@_W@std@@V?$allocator@_W@2@@std@@V12@U?$less@V?$basic_string@_WU?$char_traits@_W@std@@V?$allocator@_W@2@@std@@@2@V?$allocator@U?$pair@$$CBV?$basic_string@_WU?$char_traits@_W@std@@V?$allocator@_W@2@@std@@V12@@std@@@2@$0A@@std@@@std@@@std@@QBEPAU?$pair@$$CBV?$basic_string@_WU?$char_traits@_W@std@@V?$allocator@_W@2@@std@@V12@@1@XZ 100432d0 f i devicenotify.obj
 0002:00041310       ??E?$_Tree_iterator@V?$_Tree_val@V?$_Tmap_traits@V?$basic_string@_WU?$char_traits@_W@std@@V?$allocator@_W@2@@std@@V12@U?$less@V?$basic_string@_WU?$char_traits@_W@std@@V?$allocator@_W@2@@std@@@2@V?$allocator@U?$pair@$$CBV?$basic_string@_WU?$char_traits@_W@std@@V?$allocator@_W@2@@std@@V12@@std@@@2@$0A@@std@@@std@@@std@@QAE?AV01@H@Z 10043310 f i devicenotify.obj
 0002:000413a0       ??8?$_Tree_const_iterator@V?$_Tree_val@V?$_Tmap_traits@V?$basic_string@_WU?$char_traits@_W@std@@V?$allocator@_W@2@@std@@V12@U?$less@V?$basic_string@_WU?$char_traits@_W@std@@V?$allocator@_W@2@@std@@@2@V?$allocator@U?$pair@$$CBV?$basic_string@_WU?$char_traits@_W@std@@V?$allocator@_W@2@@std@@V12@@std@@@2@$0A@@std@@@std@@@std@@QBE_NABV01@@Z 100433a0 f i devicenotify.obj
 0002:000413e0       ??9?$_Tree_const_iterator@V?$_Tree_val@V?$_Tmap_traits@V?$basic_string@_WU?$char_traits@_W@std@@V?$allocator@_W@2@@std@@V12@U?$less@V?$basic_string@_WU?$char_traits@_W@std@@V?$allocator@_W@2@@std@@@2@V?$allocator@U?$pair@$$CBV?$basic_string@_WU?$char_traits@_W@std@@V?$allocator@_W@2@@std@@V12@@std@@@2@$0A@@std@@@std@@@std@@QBE_NABV01@@Z 100433e0 f i devicenotify.obj
 0002:00041430       ??0?$vector@UTDevNameInfo@@V?$allocator@UTDevNameInfo@@@std@@@std@@QAE@XZ 10043430 f i devicenotify.obj
 0002:00041480       ??1?$vector@UTDevNameInfo@@V?$allocator@UTDevNameInfo@@@std@@@std@@QAE@XZ 10043480 f i devicenotify.obj
 0002:00041500       ??C?$_Vector_iterator@V?$_Vector_val@UTDevNameInfo@@V?$allocator@UTDevNameInfo@@@std@@@std@@@std@@QBEPAUTDevNameInfo@@XZ 10043500 f i devicenotify.obj
 0002:00041540       ??E?$_Vector_iterator@V?$_Vector_val@UTDevNameInfo@@V?$allocator@UTDevNameInfo@@@std@@@std@@@std@@QAE?AV01@H@Z 10043540 f i devicenotify.obj
 0002:000415d0       ?find@?$basic_string@DU?$char_traits@D@std@@V?$allocator@D@2@@std@@QBEIPBDII@Z 100435d0 f i devicenotify.obj
 0002:000416d0       ?compare@?$char_traits@D@std@@SAHPBD0I@Z 100436d0 f i devicenotify.obj
 0002:00041720       ?find@?$char_traits@D@std@@SAPBDPBDIABD@Z 10043720 f i devicenotify.obj
 0002:00041780       ??0?$_Tree@V?$_Tmap_traits@V?$basic_string@_WU?$char_traits@_W@std@@V?$allocator@_W@2@@std@@V12@U?$less@V?$basic_string@_WU?$char_traits@_W@std@@V?$allocator@_W@2@@std@@@2@V?$allocator@U?$pair@$$CBV?$basic_string@_WU?$char_traits@_W@std@@V?$allocator@_W@2@@std@@V12@@std@@@2@$0A@@std@@@std@@QAE@ABU?$less@V?$basic_string@_WU?$char_traits@_W@std@@V?$allocator@_W@2@@std@@@1@ABV?$allocator@U?$pair@$$CBV?$basic_string@_WU?$char_traits@_W@std@@V?$allocator@_W@2@@std@@V12@@std@@@1@@Z 10043780 f i devicenotify.obj
 0002:000417e0       ?lower_bound@?$_Tree@V?$_Tmap_traits@V?$basic_string@_WU?$char_traits@_W@std@@V?$allocator@_W@2@@std@@V12@U?$less@V?$basic_string@_WU?$char_traits@_W@std@@V?$allocator@_W@2@@std@@@2@V?$allocator@U?$pair@$$CBV?$basic_string@_WU?$char_traits@_W@std@@V?$allocator@_W@2@@std@@V12@@std@@@2@$0A@@std@@@std@@QAE?AV?$_Tree_iterator@V?$_Tree_val@V?$_Tmap_traits@V?$basic_string@_WU?$char_traits@_W@std@@V?$allocator@_W@2@@std@@V12@U?$less@V?$basic_string@_WU?$char_traits@_W@std@@V?$allocator@_W@2@@std@@@2@V?$allocator@U?$pair@$$CBV?$basic_string@_WU?$char_traits@_W@std@@V?$allocator@_W@2@@std@@V12@@std@@@2@$0A@@std@@@std@@@2@ABV?$basic_string@_WU?$char_traits@_W@std@@V?$allocator@_W@2@@2@@Z 100437e0 f i devicenotify.obj
 0002:00041840       ?_Erase@?$_Tree@V?$_Tmap_traits@V?$basic_string@_WU?$char_traits@_W@std@@V?$allocator@_W@2@@std@@V12@U?$less@V?$basic_string@_WU?$char_traits@_W@std@@V?$allocator@_W@2@@std@@@2@V?$allocator@U?$pair@$$CBV?$basic_string@_WU?$char_traits@_W@std@@V?$allocator@_W@2@@std@@V12@@std@@@2@$0A@@std@@@std@@IAEXPAU_Node@?$_Tree_nod@V?$_Tmap_traits@V?$basic_string@_WU?$char_traits@_W@std@@V?$allocator@_W@2@@std@@V12@U?$less@V?$basic_string@_WU?$char_traits@_W@std@@V?$allocator@_W@2@@std@@@2@V?$allocator@U?$pair@$$CBV?$basic_string@_WU?$char_traits@_W@std@@V?$allocator@_W@2@@std@@V12@@std@@@2@$0A@@std@@@2@@Z 10043840 f i devicenotify.obj
 0002:00041900       ?_Lmost@?$_Tree@V?$_Tmap_traits@V?$basic_string@_WU?$char_traits@_W@std@@V?$allocator@_W@2@@std@@V12@U?$less@V?$basic_string@_WU?$char_traits@_W@std@@V?$allocator@_W@2@@std@@@2@V?$allocator@U?$pair@$$CBV?$basic_string@_WU?$char_traits@_W@std@@V?$allocator@_W@2@@std@@V12@@std@@@2@$0A@@std@@@std@@IBEAAPAU_Node@?$_Tree_nod@V?$_Tmap_traits@V?$basic_string@_WU?$char_traits@_W@std@@V?$allocator@_W@2@@std@@V12@U?$less@V?$basic_string@_WU?$char_traits@_W@std@@V?$allocator@_W@2@@std@@@2@V?$allocator@U?$pair@$$CBV?$basic_string@_WU?$char_traits@_W@std@@V?$allocator@_W@2@@std@@V12@@std@@@2@$0A@@std@@@2@XZ 10043900 f i devicenotify.obj
 0002:00041950       ?_Lrotate@?$_Tree@V?$_Tmap_traits@V?$basic_string@_WU?$char_traits@_W@std@@V?$allocator@_W@2@@std@@V12@U?$less@V?$basic_string@_WU?$char_traits@_W@std@@V?$allocator@_W@2@@std@@@2@V?$allocator@U?$pair@$$CBV?$basic_string@_WU?$char_traits@_W@std@@V?$allocator@_W@2@@std@@V12@@std@@@2@$0A@@std@@@std@@IAEXPAU_Node@?$_Tree_nod@V?$_Tmap_traits@V?$basic_string@_WU?$char_traits@_W@std@@V?$allocator@_W@2@@std@@V12@U?$less@V?$basic_string@_WU?$char_traits@_W@std@@V?$allocator@_W@2@@std@@@2@V?$allocator@U?$pair@$$CBV?$basic_string@_WU?$char_traits@_W@std@@V?$allocator@_W@2@@std@@V12@@std@@@2@$0A@@std@@@2@@Z 10043950 f i devicenotify.obj
 0002:00041ab0       ?_Rmost@?$_Tree@V?$_Tmap_traits@V?$basic_string@_WU?$char_traits@_W@std@@V?$allocator@_W@2@@std@@V12@U?$less@V?$basic_string@_WU?$char_traits@_W@std@@V?$allocator@_W@2@@std@@@2@V?$allocator@U?$pair@$$CBV?$basic_string@_WU?$char_traits@_W@std@@V?$allocator@_W@2@@std@@V12@@std@@@2@$0A@@std@@@std@@IBEAAPAU_Node@?$_Tree_nod@V?$_Tmap_traits@V?$basic_string@_WU?$char_traits@_W@std@@V?$allocator@_W@2@@std@@V12@U?$less@V?$basic_string@_WU?$char_traits@_W@std@@V?$allocator@_W@2@@std@@@2@V?$allocator@U?$pair@$$CBV?$basic_string@_WU?$char_traits@_W@std@@V?$allocator@_W@2@@std@@V12@@std@@@2@$0A@@std@@@2@XZ 10043ab0 f i devicenotify.obj
 0002:00041b00       ?_Root@?$_Tree@V?$_Tmap_traits@V?$basic_string@_WU?$char_traits@_W@std@@V?$allocator@_W@2@@std@@V12@U?$less@V?$basic_string@_WU?$char_traits@_W@std@@V?$allocator@_W@2@@std@@@2@V?$allocator@U?$pair@$$CBV?$basic_string@_WU?$char_traits@_W@std@@V?$allocator@_W@2@@std@@V12@@std@@@2@$0A@@std@@@std@@IBEAAPAU_Node@?$_Tree_nod@V?$_Tmap_traits@V?$basic_string@_WU?$char_traits@_W@std@@V?$allocator@_W@2@@std@@V12@U?$less@V?$basic_string@_WU?$char_traits@_W@std@@V?$allocator@_W@2@@std@@@2@V?$allocator@U?$pair@$$CBV?$basic_string@_WU?$char_traits@_W@std@@V?$allocator@_W@2@@std@@V12@@std@@@2@$0A@@std@@@2@XZ 10043b00 f i devicenotify.obj
 0002:00041b50       ?_Rrotate@?$_Tree@V?$_Tmap_traits@V?$basic_string@_WU?$char_traits@_W@std@@V?$allocator@_W@2@@std@@V12@U?$less@V?$basic_string@_WU?$char_traits@_W@std@@V?$allocator@_W@2@@std@@@2@V?$allocator@U?$pair@$$CBV?$basic_string@_WU?$char_traits@_W@std@@V?$allocator@_W@2@@std@@V12@@std@@@2@$0A@@std@@@std@@IAEXPAU_Node@?$_Tree_nod@V?$_Tmap_traits@V?$basic_string@_WU?$char_traits@_W@std@@V?$allocator@_W@2@@std@@V12@U?$less@V?$basic_string@_WU?$char_traits@_W@std@@V?$allocator@_W@2@@std@@@2@V?$allocator@U?$pair@$$CBV?$basic_string@_WU?$char_traits@_W@std@@V?$allocator@_W@2@@std@@V12@@std@@@2@$0A@@std@@@2@@Z 10043b50 f i devicenotify.obj
 0002:00041cb0       ?_Tidy@?$_Tree@V?$_Tmap_traits@V?$basic_string@_WU?$char_traits@_W@std@@V?$allocator@_W@2@@std@@V12@U?$less@V?$basic_string@_WU?$char_traits@_W@std@@V?$allocator@_W@2@@std@@@2@V?$allocator@U?$pair@$$CBV?$basic_string@_WU?$char_traits@_W@std@@V?$allocator@_W@2@@std@@V12@@std@@@2@$0A@@std@@@std@@IAEXXZ 10043cb0 f i devicenotify.obj
 0002:00041d40       ??1?$_Tree_val@V?$_Tmap_traits@V?$basic_string@_WU?$char_traits@_W@std@@V?$allocator@_W@2@@std@@V12@U?$less@V?$basic_string@_WU?$char_traits@_W@std@@V?$allocator@_W@2@@std@@@2@V?$allocator@U?$pair@$$CBV?$basic_string@_WU?$char_traits@_W@std@@V?$allocator@_W@2@@std@@V12@@std@@@2@$0A@@std@@@std@@QAE@XZ 10043d40 f i devicenotify.obj
 0002:00041d90       ?_Color@?$_Tree_val@V?$_Tmap_traits@V?$basic_string@_WU?$char_traits@_W@std@@V?$allocator@_W@2@@std@@V12@U?$less@V?$basic_string@_WU?$char_traits@_W@std@@V?$allocator@_W@2@@std@@@2@V?$allocator@U?$pair@$$CBV?$basic_string@_WU?$char_traits@_W@std@@V?$allocator@_W@2@@std@@V12@@std@@@2@$0A@@std@@@std@@SAAADPAU_Node@?$_Tree_nod@V?$_Tmap_traits@V?$basic_string@_WU?$char_traits@_W@std@@V?$allocator@_W@2@@std@@V12@U?$less@V?$basic_string@_WU?$char_traits@_W@std@@V?$allocator@_W@2@@std@@@2@V?$allocator@U?$pair@$$CBV?$basic_string@_WU?$char_traits@_W@std@@V?$allocator@_W@2@@std@@V12@@std@@@2@$0A@@std@@@2@@Z 10043d90 f i devicenotify.obj
 0002:00041dc0       ?_Isnil@?$_Tree_val@V?$_Tmap_traits@V?$basic_string@_WU?$char_traits@_W@std@@V?$allocator@_W@2@@std@@V12@U?$less@V?$basic_string@_WU?$char_traits@_W@std@@V?$allocator@_W@2@@std@@@2@V?$allocator@U?$pair@$$CBV?$basic_string@_WU?$char_traits@_W@std@@V?$allocator@_W@2@@std@@V12@@std@@@2@$0A@@std@@@std@@SAAADPAU_Node@?$_Tree_nod@V?$_Tmap_traits@V?$basic_string@_WU?$char_traits@_W@std@@V?$allocator@_W@2@@std@@V12@U?$less@V?$basic_string@_WU?$char_traits@_W@std@@V?$allocator@_W@2@@std@@@2@V?$allocator@U?$pair@$$CBV?$basic_string@_WU?$char_traits@_W@std@@V?$allocator@_W@2@@std@@V12@@std@@@2@$0A@@std@@@2@@Z 10043dc0 f i devicenotify.obj
 0002:00041df0       ?_Key@?$_Tree_val@V?$_Tmap_traits@V?$basic_string@_WU?$char_traits@_W@std@@V?$allocator@_W@2@@std@@V12@U?$less@V?$basic_string@_WU?$char_traits@_W@std@@V?$allocator@_W@2@@std@@@2@V?$allocator@U?$pair@$$CBV?$basic_string@_WU?$char_traits@_W@std@@V?$allocator@_W@2@@std@@V12@@std@@@2@$0A@@std@@@std@@SAAAV?$basic_string@_WU?$char_traits@_W@std@@V?$allocator@_W@2@@2@PAU_Node@?$_Tree_nod@V?$_Tmap_traits@V?$basic_string@_WU?$char_traits@_W@std@@V?$allocator@_W@2@@std@@V12@U?$less@V?$basic_string@_WU?$char_traits@_W@std@@V?$allocator@_W@2@@std@@@2@V?$allocator@U?$pair@$$CBV?$basic_string@_WU?$char_traits@_W@std@@V?$allocator@_W@2@@std@@V12@@std@@@2@$0A@@std@@@2@@Z 10043df0 f i devicenotify.obj
 0002:00041e40       ?_Left@?$_Tree_val@V?$_Tmap_traits@V?$basic_string@_WU?$char_traits@_W@std@@V?$allocator@_W@2@@std@@V12@U?$less@V?$basic_string@_WU?$char_traits@_W@std@@V?$allocator@_W@2@@std@@@2@V?$allocator@U?$pair@$$CBV?$basic_string@_WU?$char_traits@_W@std@@V?$allocator@_W@2@@std@@V12@@std@@@2@$0A@@std@@@std@@SAAAPAU_Node@?$_Tree_nod@V?$_Tmap_traits@V?$basic_string@_WU?$char_traits@_W@std@@V?$allocator@_W@2@@std@@V12@U?$less@V?$basic_string@_WU?$char_traits@_W@std@@V?$allocator@_W@2@@std@@@2@V?$allocator@U?$pair@$$CBV?$basic_string@_WU?$char_traits@_W@std@@V?$allocator@_W@2@@std@@V12@@std@@@2@$0A@@std@@@2@PAU342@@Z 10043e40 f i devicenotify.obj
 0002:00041e70       ?_Parent@?$_Tree_val@V?$_Tmap_traits@V?$basic_string@_WU?$char_traits@_W@std@@V?$allocator@_W@2@@std@@V12@U?$less@V?$basic_string@_WU?$char_traits@_W@std@@V?$allocator@_W@2@@std@@@2@V?$allocator@U?$pair@$$CBV?$basic_string@_WU?$char_traits@_W@std@@V?$allocator@_W@2@@std@@V12@@std@@@2@$0A@@std@@@std@@SAAAPAU_Node@?$_Tree_nod@V?$_Tmap_traits@V?$basic_string@_WU?$char_traits@_W@std@@V?$allocator@_W@2@@std@@V12@U?$less@V?$basic_string@_WU?$char_traits@_W@std@@V?$allocator@_W@2@@std@@@2@V?$allocator@U?$pair@$$CBV?$basic_string@_WU?$char_traits@_W@std@@V?$allocator@_W@2@@std@@V12@@std@@@2@$0A@@std@@@2@PAU342@@Z 10043e70 f i devicenotify.obj
 0002:00041ea0       ?_Right@?$_Tree_val@V?$_Tmap_traits@V?$basic_string@_WU?$char_traits@_W@std@@V?$allocator@_W@2@@std@@V12@U?$less@V?$basic_string@_WU?$char_traits@_W@std@@V?$allocator@_W@2@@std@@@2@V?$allocator@U?$pair@$$CBV?$basic_string@_WU?$char_traits@_W@std@@V?$allocator@_W@2@@std@@V12@@std@@@2@$0A@@std@@@std@@SAAAPAU_Node@?$_Tree_nod@V?$_Tmap_traits@V?$basic_string@_WU?$char_traits@_W@std@@V?$allocator@_W@2@@std@@V12@U?$less@V?$basic_string@_WU?$char_traits@_W@std@@V?$allocator@_W@2@@std@@@2@V?$allocator@U?$pair@$$CBV?$basic_string@_WU?$char_traits@_W@std@@V?$allocator@_W@2@@std@@V12@@std@@@2@$0A@@std@@@2@PAU342@@Z 10043ea0 f i devicenotify.obj
 0002:00041ed0       ?_Myval@?$_Tree_val@V?$_Tmap_traits@V?$basic_string@_WU?$char_traits@_W@std@@V?$allocator@_W@2@@std@@V12@U?$less@V?$basic_string@_WU?$char_traits@_W@std@@V?$allocator@_W@2@@std@@@2@V?$allocator@U?$pair@$$CBV?$basic_string@_WU?$char_traits@_W@std@@V?$allocator@_W@2@@std@@V12@@std@@@2@$0A@@std@@@std@@SAAAU?$pair@$$CBV?$basic_string@_WU?$char_traits@_W@std@@V?$allocator@_W@2@@std@@V12@@2@PAU_Node@?$_Tree_nod@V?$_Tmap_traits@V?$basic_string@_WU?$char_traits@_W@std@@V?$allocator@_W@2@@std@@V12@U?$less@V?$basic_string@_WU?$char_traits@_W@std@@V?$allocator@_W@2@@std@@@2@V?$allocator@U?$pair@$$CBV?$basic_string@_WU?$char_traits@_W@std@@V?$allocator@_W@2@@std@@V12@@std@@@2@$0A@@std@@@2@@Z 10043ed0 f i devicenotify.obj
 0002:00041f00       ?_Max@?$_Tree_val@V?$_Tmap_traits@V?$basic_string@_WU?$char_traits@_W@std@@V?$allocator@_W@2@@std@@V12@U?$less@V?$basic_string@_WU?$char_traits@_W@std@@V?$allocator@_W@2@@std@@@2@V?$allocator@U?$pair@$$CBV?$basic_string@_WU?$char_traits@_W@std@@V?$allocator@_W@2@@std@@V12@@std@@@2@$0A@@std@@@std@@SAPAU_Node@?$_Tree_nod@V?$_Tmap_traits@V?$basic_string@_WU?$char_traits@_W@std@@V?$allocator@_W@2@@std@@V12@U?$less@V?$basic_string@_WU?$char_traits@_W@std@@V?$allocator@_W@2@@std@@@2@V?$allocator@U?$pair@$$CBV?$basic_string@_WU?$char_traits@_W@std@@V?$allocator@_W@2@@std@@V12@@std@@@2@$0A@@std@@@2@PAU342@@Z 10043f00 f i devicenotify.obj
 0002:00041f70       ?_Min@?$_Tree_val@V?$_Tmap_traits@V?$basic_string@_WU?$char_traits@_W@std@@V?$allocator@_W@2@@std@@V12@U?$less@V?$basic_string@_WU?$char_traits@_W@std@@V?$allocator@_W@2@@std@@@2@V?$allocator@U?$pair@$$CBV?$basic_string@_WU?$char_traits@_W@std@@V?$allocator@_W@2@@std@@V12@@std@@@2@$0A@@std@@@std@@SAPAU_Node@?$_Tree_nod@V?$_Tmap_traits@V?$basic_string@_WU?$char_traits@_W@std@@V?$allocator@_W@2@@std@@V12@U?$less@V?$basic_string@_WU?$char_traits@_W@std@@V?$allocator@_W@2@@std@@@2@V?$allocator@U?$pair@$$CBV?$basic_string@_WU?$char_traits@_W@std@@V?$allocator@_W@2@@std@@V12@@std@@@2@$0A@@std@@@2@PAU342@@Z 10043f70 f i devicenotify.obj
 0002:00041fe0       ??0?$allocator@U?$pair@$$CBV?$basic_string@_WU?$char_traits@_W@std@@V?$allocator@_W@2@@std@@V12@@std@@@std@@QAE@XZ 10043fe0 f i devicenotify.obj
 0002:00042010       ?deallocate@?$allocator@U_Node@?$_Tree_nod@V?$_Tmap_traits@V?$basic_string@_WU?$char_traits@_W@std@@V?$allocator@_W@2@@std@@V12@U?$less@V?$basic_string@_WU?$char_traits@_W@std@@V?$allocator@_W@2@@std@@@2@V?$allocator@U?$pair@$$CBV?$basic_string@_WU?$char_traits@_W@std@@V?$allocator@_W@2@@std@@V12@@std@@@2@$0A@@std@@@std@@@std@@QAEXPAU_Node@?$_Tree_nod@V?$_Tmap_traits@V?$basic_string@_WU?$char_traits@_W@std@@V?$allocator@_W@2@@std@@V12@U?$less@V?$basic_string@_WU?$char_traits@_W@std@@V?$allocator@_W@2@@std@@@2@V?$allocator@U?$pair@$$CBV?$basic_string@_WU?$char_traits@_W@std@@V?$allocator@_W@2@@std@@V12@@std@@@2@$0A@@std@@@2@I@Z 10044010 f i devicenotify.obj
 0002:00042060       ?_Tidy@?$vector@UtagVidCapNameInfo@@V?$allocator@UtagVidCapNameInfo@@@std@@@std@@IAEXXZ 10044060 f i devicenotify.obj
 0002:00042110       ??0?$_Vector_val@UtagVidCapNameInfo@@V?$allocator@UtagVidCapNameInfo@@@std@@@std@@QAE@V?$allocator@UtagVidCapNameInfo@@@1@@Z 10044110 f i devicenotify.obj
 0002:00042180       ??1?$_Vector_val@UtagVidCapNameInfo@@V?$allocator@UtagVidCapNameInfo@@@std@@@std@@QAE@XZ 10044180 f i devicenotify.obj
 0002:000421b0       ??0?$allocator@UtagVidCapNameInfo@@@std@@QAE@XZ 100441b0 f i devicenotify.obj
 0002:000421e0       ??0?$_Tree_iterator@V?$_Tree_val@V?$_Tmap_traits@V?$basic_string@_WU?$char_traits@_W@std@@V?$allocator@_W@2@@std@@V12@U?$less@V?$basic_string@_WU?$char_traits@_W@std@@V?$allocator@_W@2@@std@@@2@V?$allocator@U?$pair@$$CBV?$basic_string@_WU?$char_traits@_W@std@@V?$allocator@_W@2@@std@@V12@@std@@@2@$0A@@std@@@std@@@std@@QAE@PAU_Node@?$_Tree_nod@V?$_Tmap_traits@V?$basic_string@_WU?$char_traits@_W@std@@V?$allocator@_W@2@@std@@V12@U?$less@V?$basic_string@_WU?$char_traits@_W@std@@V?$allocator@_W@2@@std@@@2@V?$allocator@U?$pair@$$CBV?$basic_string@_WU?$char_traits@_W@std@@V?$allocator@_W@2@@std@@V12@@std@@@2@$0A@@std@@@1@PBV?$_Tree_val@V?$_Tmap_traits@V?$basic_string@_WU?$char_traits@_W@std@@V?$allocator@_W@2@@std@@V12@U?$less@V?$basic_string@_WU?$char_traits@_W@std@@V?$allocator@_W@2@@std@@@2@V?$allocator@U?$pair@$$CBV?$basic_string@_WU?$char_traits@_W@std@@V?$allocator@_W@2@@std@@V12@@std@@@2@$0A@@std@@@1@@Z 100441e0 f i devicenotify.obj
 0002:00042230       ??D?$_Tree_iterator@V?$_Tree_val@V?$_Tmap_traits@V?$basic_string@_WU?$char_traits@_W@std@@V?$allocator@_W@2@@std@@V12@U?$less@V?$basic_string@_WU?$char_traits@_W@std@@V?$allocator@_W@2@@std@@@2@V?$allocator@U?$pair@$$CBV?$basic_string@_WU?$char_traits@_W@std@@V?$allocator@_W@2@@std@@V12@@std@@@2@$0A@@std@@@std@@@std@@QBEAAU?$pair@$$CBV?$basic_string@_WU?$char_traits@_W@std@@V?$allocator@_W@2@@std@@V12@@1@XZ 10044230 f i devicenotify.obj
 0002:00042270       ??E?$_Tree_iterator@V?$_Tree_val@V?$_Tmap_traits@V?$basic_string@_WU?$char_traits@_W@std@@V?$allocator@_W@2@@std@@V12@U?$less@V?$basic_string@_WU?$char_traits@_W@std@@V?$allocator@_W@2@@std@@@2@V?$allocator@U?$pair@$$CBV?$basic_string@_WU?$char_traits@_W@std@@V?$allocator@_W@2@@std@@V12@@std@@@2@$0A@@std@@@std@@@std@@QAEAAV01@XZ 10044270 f i devicenotify.obj
 0002:000422c0       ??0?$_Tree_const_iterator@V?$_Tree_val@V?$_Tmap_traits@V?$basic_string@_WU?$char_traits@_W@std@@V?$allocator@_W@2@@std@@V12@U?$less@V?$basic_string@_WU?$char_traits@_W@std@@V?$allocator@_W@2@@std@@@2@V?$allocator@U?$pair@$$CBV?$basic_string@_WU?$char_traits@_W@std@@V?$allocator@_W@2@@std@@V12@@std@@@2@$0A@@std@@@std@@@std@@QAE@XZ 100442c0 f i devicenotify.obj
 0002:00042310       ??E?$_Tree_const_iterator@V?$_Tree_val@V?$_Tmap_traits@V?$basic_string@_WU?$char_traits@_W@std@@V?$allocator@_W@2@@std@@V12@U?$less@V?$basic_string@_WU?$char_traits@_W@std@@V?$allocator@_W@2@@std@@@2@V?$allocator@U?$pair@$$CBV?$basic_string@_WU?$char_traits@_W@std@@V?$allocator@_W@2@@std@@V12@@std@@@2@$0A@@std@@@std@@@std@@QAEAAV01@XZ 10044310 f i devicenotify.obj
 0002:00042360       ?_Mynode@?$_Tree_unchecked_const_iterator@V?$_Tree_val@V?$_Tmap_traits@V?$basic_string@_WU?$char_traits@_W@std@@V?$allocator@_W@2@@std@@V12@U?$less@V?$basic_string@_WU?$char_traits@_W@std@@V?$allocator@_W@2@@std@@@2@V?$allocator@U?$pair@$$CBV?$basic_string@_WU?$char_traits@_W@std@@V?$allocator@_W@2@@std@@V12@@std@@@2@$0A@@std@@@std@@U_Iterator_base0@2@@std@@QBEPAU_Node@?$_Tree_nod@V?$_Tmap_traits@V?$basic_string@_WU?$char_traits@_W@std@@V?$allocator@_W@2@@std@@V12@U?$less@V?$basic_string@_WU?$char_traits@_W@std@@V?$allocator@_W@2@@std@@@2@V?$allocator@U?$pair@$$CBV?$basic_string@_WU?$char_traits@_W@std@@V?$allocator@_W@2@@std@@V12@@std@@@2@$0A@@std@@@2@XZ 10044360 f i devicenotify.obj
 0002:00042390       ?_Tidy@?$vector@UTDevNameInfo@@V?$allocator@UTDevNameInfo@@@std@@@std@@IAEXXZ 10044390 f i devicenotify.obj
 0002:00042440       ??0?$_Vector_val@UTDevNameInfo@@V?$allocator@UTDevNameInfo@@@std@@@std@@QAE@V?$allocator@UTDevNameInfo@@@1@@Z 10044440 f i devicenotify.obj
 0002:000424b0       ??1?$_Vector_val@UTDevNameInfo@@V?$allocator@UTDevNameInfo@@@std@@@std@@QAE@XZ 100444b0 f i devicenotify.obj
 0002:000424e0       ??0?$allocator@UTDevNameInfo@@@std@@QAE@XZ 100444e0 f i devicenotify.obj
 0002:00042510       ??D?$_Vector_iterator@V?$_Vector_val@UTDevNameInfo@@V?$allocator@UTDevNameInfo@@@std@@@std@@@std@@QBEAAUTDevNameInfo@@XZ 10044510 f i devicenotify.obj
 0002:00042550       ??E?$_Vector_iterator@V?$_Vector_val@UTDevNameInfo@@V?$allocator@UTDevNameInfo@@@std@@@std@@@std@@QAEAAV01@XZ 10044550 f i devicenotify.obj
 0002:000425a0       ?erase@?$_Tree@V?$_Tmap_traits@V?$basic_string@_WU?$char_traits@_W@std@@V?$allocator@_W@2@@std@@V12@U?$less@V?$basic_string@_WU?$char_traits@_W@std@@V?$allocator@_W@2@@std@@@2@V?$allocator@U?$pair@$$CBV?$basic_string@_WU?$char_traits@_W@std@@V?$allocator@_W@2@@std@@V12@@std@@@2@$0A@@std@@@std@@QAE?AV?$_Tree_iterator@V?$_Tree_val@V?$_Tmap_traits@V?$basic_string@_WU?$char_traits@_W@std@@V?$allocator@_W@2@@std@@V12@U?$less@V?$basic_string@_WU?$char_traits@_W@std@@V?$allocator@_W@2@@std@@@2@V?$allocator@U?$pair@$$CBV?$basic_string@_WU?$char_traits@_W@std@@V?$allocator@_W@2@@std@@V12@@std@@@2@$0A@@std@@@std@@@2@V?$_Tree_const_iterator@V?$_Tree_val@V?$_Tmap_traits@V?$basic_string@_WU?$char_traits@_W@std@@V?$allocator@_W@2@@std@@V12@U?$less@V?$basic_string@_WU?$char_traits@_W@std@@V?$allocator@_W@2@@std@@@2@V?$allocator@U?$pair@$$CBV?$basic_string@_WU?$char_traits@_W@std@@V?$allocator@_W@2@@std@@V12@@std@@@2@$0A@@std@@@std@@@2@0@Z 100445a0 f i devicenotify.obj
 0002:00042680       ?_Lbound@?$_Tree@V?$_Tmap_traits@V?$basic_string@_WU?$char_traits@_W@std@@V?$allocator@_W@2@@std@@V12@U?$less@V?$basic_string@_WU?$char_traits@_W@std@@V?$allocator@_W@2@@std@@@2@V?$allocator@U?$pair@$$CBV?$basic_string@_WU?$char_traits@_W@std@@V?$allocator@_W@2@@std@@V12@@std@@@2@$0A@@std@@@std@@IAEPAU_Node@?$_Tree_nod@V?$_Tmap_traits@V?$basic_string@_WU?$char_traits@_W@std@@V?$allocator@_W@2@@std@@V12@U?$less@V?$basic_string@_WU?$char_traits@_W@std@@V?$allocator@_W@2@@std@@@2@V?$allocator@U?$pair@$$CBV?$basic_string@_WU?$char_traits@_W@std@@V?$allocator@_W@2@@std@@V12@@std@@@2@$0A@@std@@@2@ABV?$basic_string@_WU?$char_traits@_W@std@@V?$allocator@_W@2@@2@@Z 10044680 f i devicenotify.obj
 0002:00042740       ??0?$_Tree_val@V?$_Tmap_traits@V?$basic_string@_WU?$char_traits@_W@std@@V?$allocator@_W@2@@std@@V12@U?$less@V?$basic_string@_WU?$char_traits@_W@std@@V?$allocator@_W@2@@std@@@2@V?$allocator@U?$pair@$$CBV?$basic_string@_WU?$char_traits@_W@std@@V?$allocator@_W@2@@std@@V12@@std@@@2@$0A@@std@@@std@@QAE@ABU?$less@V?$basic_string@_WU?$char_traits@_W@std@@V?$allocator@_W@2@@std@@@1@V?$allocator@U?$pair@$$CBV?$basic_string@_WU?$char_traits@_W@std@@V?$allocator@_W@2@@std@@V12@@std@@@1@@Z 10044740 f i devicenotify.obj
 0002:00042820       ??0?$allocator@U?$pair@$$CBV?$basic_string@_WU?$char_traits@_W@std@@V?$allocator@_W@2@@std@@V12@@std@@@std@@QAE@ABV01@@Z 10044820 f i devicenotify.obj
 0002:00042850       ?_Destroy@?$vector@UtagVidCapNameInfo@@V?$allocator@UtagVidCapNameInfo@@@std@@@std@@IAEXPAUtagVidCapNameInfo@@0@Z 10044850 f i devicenotify.obj
 0002:000428a0       ??0?$allocator@UtagVidCapNameInfo@@@std@@QAE@ABV01@@Z 100448a0 f i devicenotify.obj
 0002:000428d0       ?deallocate@?$allocator@UtagVidCapNameInfo@@@std@@QAEXPAUtagVidCapNameInfo@@I@Z 100448d0 f i devicenotify.obj
 0002:00042920       ??0?$_Tree_const_iterator@V?$_Tree_val@V?$_Tmap_traits@V?$basic_string@_WU?$char_traits@_W@std@@V?$allocator@_W@2@@std@@V12@U?$less@V?$basic_string@_WU?$char_traits@_W@std@@V?$allocator@_W@2@@std@@@2@V?$allocator@U?$pair@$$CBV?$basic_string@_WU?$char_traits@_W@std@@V?$allocator@_W@2@@std@@V12@@std@@@2@$0A@@std@@@std@@@std@@QAE@PAU_Node@?$_Tree_nod@V?$_Tmap_traits@V?$basic_string@_WU?$char_traits@_W@std@@V?$allocator@_W@2@@std@@V12@U?$less@V?$basic_string@_WU?$char_traits@_W@std@@V?$allocator@_W@2@@std@@@2@V?$allocator@U?$pair@$$CBV?$basic_string@_WU?$char_traits@_W@std@@V?$allocator@_W@2@@std@@V12@@std@@@2@$0A@@std@@@1@PBV?$_Tree_val@V?$_Tmap_traits@V?$basic_string@_WU?$char_traits@_W@std@@V?$allocator@_W@2@@std@@V12@U?$less@V?$basic_string@_WU?$char_traits@_W@std@@V?$allocator@_W@2@@std@@@2@V?$allocator@U?$pair@$$CBV?$basic_string@_WU?$char_traits@_W@std@@V?$allocator@_W@2@@std@@V12@@std@@@2@$0A@@std@@@1@@Z 10044920 f i devicenotify.obj
 0002:00042970       ??D?$_Tree_const_iterator@V?$_Tree_val@V?$_Tmap_traits@V?$basic_string@_WU?$char_traits@_W@std@@V?$allocator@_W@2@@std@@V12@U?$less@V?$basic_string@_WU?$char_traits@_W@std@@V?$allocator@_W@2@@std@@@2@V?$allocator@U?$pair@$$CBV?$basic_string@_WU?$char_traits@_W@std@@V?$allocator@_W@2@@std@@V12@@std@@@2@$0A@@std@@@std@@@std@@QBEABU?$pair@$$CBV?$basic_string@_WU?$char_traits@_W@std@@V?$allocator@_W@2@@std@@V12@@1@XZ 10044970 f i devicenotify.obj
 0002:000429c0       ??0?$_Tree_unchecked_const_iterator@V?$_Tree_val@V?$_Tmap_traits@V?$basic_string@_WU?$char_traits@_W@std@@V?$allocator@_W@2@@std@@V12@U?$less@V?$basic_string@_WU?$char_traits@_W@std@@V?$allocator@_W@2@@std@@@2@V?$allocator@U?$pair@$$CBV?$basic_string@_WU?$char_traits@_W@std@@V?$allocator@_W@2@@std@@V12@@std@@@2@$0A@@std@@@std@@U_Iterator_base0@2@@std@@QAE@XZ 100449c0 f i devicenotify.obj
 0002:00042a00       ??E?$_Tree_unchecked_const_iterator@V?$_Tree_val@V?$_Tmap_traits@V?$basic_string@_WU?$char_traits@_W@std@@V?$allocator@_W@2@@std@@V12@U?$less@V?$basic_string@_WU?$char_traits@_W@std@@V?$allocator@_W@2@@std@@@2@V?$allocator@U?$pair@$$CBV?$basic_string@_WU?$char_traits@_W@std@@V?$allocator@_W@2@@std@@V12@@std@@@2@$0A@@std@@@std@@U_Iterator_base0@2@@std@@QAEAAV01@XZ 10044a00 f i devicenotify.obj
 0002:00042af0       ??0?$allocator@UTDevNameInfo@@@std@@QAE@ABV01@@Z 10044af0 f i devicenotify.obj
 0002:00042b20       ??D?$_Vector_const_iterator@V?$_Vector_val@UTDevNameInfo@@V?$allocator@UTDevNameInfo@@@std@@@std@@@std@@QBEABUTDevNameInfo@@XZ 10044b20 f i devicenotify.obj
 0002:00042b60       ??E?$_Vector_const_iterator@V?$_Vector_val@UTDevNameInfo@@V?$allocator@UTDevNameInfo@@@std@@@std@@@std@@QAEAAV01@XZ 10044b60 f i devicenotify.obj
 0002:00042ba0       ??0?$_Tree_nod@V?$_Tmap_traits@V?$basic_string@_WU?$char_traits@_W@std@@V?$allocator@_W@2@@std@@V12@U?$less@V?$basic_string@_WU?$char_traits@_W@std@@V?$allocator@_W@2@@std@@@2@V?$allocator@U?$pair@$$CBV?$basic_string@_WU?$char_traits@_W@std@@V?$allocator@_W@2@@std@@V12@@std@@@2@$0A@@std@@@std@@QAE@ABU?$less@V?$basic_string@_WU?$char_traits@_W@std@@V?$allocator@_W@2@@std@@@1@V?$allocator@U?$pair@$$CBV?$basic_string@_WU?$char_traits@_W@std@@V?$allocator@_W@2@@std@@V12@@std@@@1@@Z 10044ba0 f i devicenotify.obj
 0002:00042c10       ?allocate@?$allocator@U_Node@?$_Tree_nod@V?$_Tmap_traits@V?$basic_string@_WU?$char_traits@_W@std@@V?$allocator@_W@2@@std@@V12@U?$less@V?$basic_string@_WU?$char_traits@_W@std@@V?$allocator@_W@2@@std@@@2@V?$allocator@U?$pair@$$CBV?$basic_string@_WU?$char_traits@_W@std@@V?$allocator@_W@2@@std@@V12@@std@@@2@$0A@@std@@@std@@@std@@QAEPAU_Node@?$_Tree_nod@V?$_Tmap_traits@V?$basic_string@_WU?$char_traits@_W@std@@V?$allocator@_W@2@@std@@V12@U?$less@V?$basic_string@_WU?$char_traits@_W@std@@V?$allocator@_W@2@@std@@@2@V?$allocator@U?$pair@$$CBV?$basic_string@_WU?$char_traits@_W@std@@V?$allocator@_W@2@@std@@V12@@std@@@2@$0A@@std@@@2@I@Z 10044c10 f i devicenotify.obj
 0002:00042c60       ??E?$_Tree_const_iterator@V?$_Tree_val@V?$_Tmap_traits@V?$basic_string@_WU?$char_traits@_W@std@@V?$allocator@_W@2@@std@@V12@U?$less@V?$basic_string@_WU?$char_traits@_W@std@@V?$allocator@_W@2@@std@@@2@V?$allocator@U?$pair@$$CBV?$basic_string@_WU?$char_traits@_W@std@@V?$allocator@_W@2@@std@@V12@@std@@@2@$0A@@std@@@std@@@std@@QAE?AV01@H@Z 10044c60 f i devicenotify.obj
 0002:00042cf0       ??0?$_Tree_unchecked_const_iterator@V?$_Tree_val@V?$_Tmap_traits@V?$basic_string@_WU?$char_traits@_W@std@@V?$allocator@_W@2@@std@@V12@U?$less@V?$basic_string@_WU?$char_traits@_W@std@@V?$allocator@_W@2@@std@@@2@V?$allocator@U?$pair@$$CBV?$basic_string@_WU?$char_traits@_W@std@@V?$allocator@_W@2@@std@@V12@@std@@@2@$0A@@std@@@std@@U_Iterator_base0@2@@std@@QAE@PAU_Node@?$_Tree_nod@V?$_Tmap_traits@V?$basic_string@_WU?$char_traits@_W@std@@V?$allocator@_W@2@@std@@V12@U?$less@V?$basic_string@_WU?$char_traits@_W@std@@V?$allocator@_W@2@@std@@@2@V?$allocator@U?$pair@$$CBV?$basic_string@_WU?$char_traits@_W@std@@V?$allocator@_W@2@@std@@V12@@std@@@2@$0A@@std@@@1@PBV?$_Tree_val@V?$_Tmap_traits@V?$basic_string@_WU?$char_traits@_W@std@@V?$allocator@_W@2@@std@@V12@U?$less@V?$basic_string@_WU?$char_traits@_W@std@@V?$allocator@_W@2@@std@@@2@V?$allocator@U?$pair@$$CBV?$basic_string@_WU?$char_traits@_W@std@@V?$allocator@_W@2@@std@@V12@@std@@@2@$0A@@std@@@1@@Z 10044cf0 f i devicenotify.obj
 0002:00042d40       ??0?$_Tmap_traits@V?$basic_string@_WU?$char_traits@_W@std@@V?$allocator@_W@2@@std@@V12@U?$less@V?$basic_string@_WU?$char_traits@_W@std@@V?$allocator@_W@2@@std@@@2@V?$allocator@U?$pair@$$CBV?$basic_string@_WU?$char_traits@_W@std@@V?$allocator@_W@2@@std@@V12@@std@@@2@$0A@@std@@QAE@U?$less@V?$basic_string@_WU?$char_traits@_W@std@@V?$allocator@_W@2@@std@@@1@@Z 10044d40 f i devicenotify.obj
 0002:00042d70       ??$?0AAV?$basic_string@_WU?$char_traits@_W@std@@V?$allocator@_W@2@@std@@AAV01@@?$pair@V?$basic_string@_WU?$char_traits@_W@std@@V?$allocator@_W@2@@std@@V12@@std@@QAE@AAV?$basic_string@_WU?$char_traits@_W@std@@V?$allocator@_W@2@@1@0@Z 10044d70 f i devicenotify.obj
 0002:00042dd0       ??$insert@U?$pair@V?$basic_string@_WU?$char_traits@_W@std@@V?$allocator@_W@2@@std@@V12@@std@@@?$_Tree@V?$_Tmap_traits@V?$basic_string@_WU?$char_traits@_W@std@@V?$allocator@_W@2@@std@@V12@U?$less@V?$basic_string@_WU?$char_traits@_W@std@@V?$allocator@_W@2@@std@@@2@V?$allocator@U?$pair@$$CBV?$basic_string@_WU?$char_traits@_W@std@@V?$allocator@_W@2@@std@@V12@@std@@@2@$0A@@std@@@std@@QAE?AU?$pair@V?$_Tree_iterator@V?$_Tree_val@V?$_Tmap_traits@V?$basic_string@_WU?$char_traits@_W@std@@V?$allocator@_W@2@@std@@V12@U?$less@V?$basic_string@_WU?$char_traits@_W@std@@V?$allocator@_W@2@@std@@@2@V?$allocator@U?$pair@$$CBV?$basic_string@_WU?$char_traits@_W@std@@V?$allocator@_W@2@@std@@V12@@std@@@2@$0A@@std@@@std@@@std@@_N@1@$$QAU?$pair@V?$basic_string@_WU?$char_traits@_W@std@@V?$allocator@_W@2@@std@@V12@@1@@Z 10044dd0 f i devicenotify.obj
 0002:00042e30       ??$addressof@U?$pair@$$CBV?$basic_string@_WU?$char_traits@_W@std@@V?$allocator@_W@2@@std@@V12@@std@@@std@@YAPAU?$pair@$$CBV?$basic_string@_WU?$char_traits@_W@std@@V?$allocator@_W@2@@std@@V12@@0@AAU10@@Z 10044e30 f i devicenotify.obj
 0002:00042e60       ??$_Dest_val@V?$allocator@U?$pair@$$CBV?$basic_string@_WU?$char_traits@_W@std@@V?$allocator@_W@2@@std@@V12@@std@@@std@@U?$pair@$$CBV?$basic_string@_WU?$char_traits@_W@std@@V?$allocator@_W@2@@std@@V12@@2@@std@@YAXAAV?$allocator@U?$pair@$$CBV?$basic_string@_WU?$char_traits@_W@std@@V?$allocator@_W@2@@std@@V12@@std@@@0@PAU?$pair@$$CBV?$basic_string@_WU?$char_traits@_W@std@@V?$allocator@_W@2@@std@@V12@@0@@Z 10044e60 f i devicenotify.obj
 0002:00042ea0       ??$_Kfn@$$CBV?$basic_string@_WU?$char_traits@_W@std@@V?$allocator@_W@2@@std@@V12@@?$_Tmap_traits@V?$basic_string@_WU?$char_traits@_W@std@@V?$allocator@_W@2@@std@@V12@U?$less@V?$basic_string@_WU?$char_traits@_W@std@@V?$allocator@_W@2@@std@@@2@V?$allocator@U?$pair@$$CBV?$basic_string@_WU?$char_traits@_W@std@@V?$allocator@_W@2@@std@@V12@@std@@@2@$0A@@std@@SAABV?$basic_string@_WU?$char_traits@_W@std@@V?$allocator@_W@2@@1@ABU?$pair@$$CBV?$basic_string@_WU?$char_traits@_W@std@@V?$allocator@_W@2@@std@@V12@@1@@Z 10044ea0 f i devicenotify.obj
 0002:00042ed0       ??$_Destroy_range@V?$allocator@UtagVidCapNameInfo@@@std@@@std@@YAXPAUtagVidCapNameInfo@@0AAV?$allocator@UtagVidCapNameInfo@@@0@@Z 10044ed0 f i devicenotify.obj
 0002:00042f40       ??$?0U?$pair@$$CBV?$basic_string@_WU?$char_traits@_W@std@@V?$allocator@_W@2@@std@@V12@@std@@@?$allocator@U_Node@?$_Tree_nod@V?$_Tmap_traits@V?$basic_string@_WU?$char_traits@_W@std@@V?$allocator@_W@2@@std@@V12@U?$less@V?$basic_string@_WU?$char_traits@_W@std@@V?$allocator@_W@2@@std@@@2@V?$allocator@U?$pair@$$CBV?$basic_string@_WU?$char_traits@_W@std@@V?$allocator@_W@2@@std@@V12@@std@@@2@$0A@@std@@@std@@@std@@QAE@ABV?$allocator@U?$pair@$$CBV?$basic_string@_WU?$char_traits@_W@std@@V?$allocator@_W@2@@std@@V12@@std@@@1@@Z 10044f40 f i devicenotify.obj
 0002:00042f70       ??$_Allocate@U_Node@?$_Tree_nod@V?$_Tmap_traits@V?$basic_string@_WU?$char_traits@_W@std@@V?$allocator@_W@2@@std@@V12@U?$less@V?$basic_string@_WU?$char_traits@_W@std@@V?$allocator@_W@2@@std@@@2@V?$allocator@U?$pair@$$CBV?$basic_string@_WU?$char_traits@_W@std@@V?$allocator@_W@2@@std@@V12@@std@@@2@$0A@@std@@@std@@@std@@YAPAU_Node@?$_Tree_nod@V?$_Tmap_traits@V?$basic_string@_WU?$char_traits@_W@std@@V?$allocator@_W@2@@std@@V12@U?$less@V?$basic_string@_WU?$char_traits@_W@std@@V?$allocator@_W@2@@std@@@2@V?$allocator@U?$pair@$$CBV?$basic_string@_WU?$char_traits@_W@std@@V?$allocator@_W@2@@std@@V12@@std@@@2@$0A@@std@@@0@IPAU120@@Z 10044f70 f i devicenotify.obj
 0002:00043000       ?_Linsert@?$_Tree@V?$_Tmap_traits@V?$basic_string@_WU?$char_traits@_W@std@@V?$allocator@_W@2@@std@@V12@U?$less@V?$basic_string@_WU?$char_traits@_W@std@@V?$allocator@_W@2@@std@@@2@V?$allocator@U?$pair@$$CBV?$basic_string@_WU?$char_traits@_W@std@@V?$allocator@_W@2@@std@@V12@@std@@@2@$0A@@std@@@std@@QAE?AU?$pair@V?$_Tree_iterator@V?$_Tree_val@V?$_Tmap_traits@V?$basic_string@_WU?$char_traits@_W@std@@V?$allocator@_W@2@@std@@V12@U?$less@V?$basic_string@_WU?$char_traits@_W@std@@V?$allocator@_W@2@@std@@@2@V?$allocator@U?$pair@$$CBV?$basic_string@_WU?$char_traits@_W@std@@V?$allocator@_W@2@@std@@V12@@std@@@2@$0A@@std@@@std@@@std@@_N@2@PAU_Node@?$_Tree_nod@V?$_Tmap_traits@V?$basic_string@_WU?$char_traits@_W@std@@V?$allocator@_W@2@@std@@V12@U?$less@V?$basic_string@_WU?$char_traits@_W@std@@V?$allocator@_W@2@@std@@@2@V?$allocator@U?$pair@$$CBV?$basic_string@_WU?$char_traits@_W@std@@V?$allocator@_W@2@@std@@V12@@std@@@2@$0A@@std@@@2@_N@Z 10045000 f i devicenotify.obj
 0002:000432d0       ?destroy@?$allocator@U?$pair@$$CBV?$basic_string@_WU?$char_traits@_W@std@@V?$allocator@_W@2@@std@@V12@@std@@@std@@QAEXPAU?$pair@$$CBV?$basic_string@_WU?$char_traits@_W@std@@V?$allocator@_W@2@@std@@V12@@2@@Z 100452d0 f i devicenotify.obj
 0002:00043320       ?_Insert@?$_Tree@V?$_Tmap_traits@V?$basic_string@_WU?$char_traits@_W@std@@V?$allocator@_W@2@@std@@V12@U?$less@V?$basic_string@_WU?$char_traits@_W@std@@V?$allocator@_W@2@@std@@@2@V?$allocator@U?$pair@$$CBV?$basic_string@_WU?$char_traits@_W@std@@V?$allocator@_W@2@@std@@V12@@std@@@2@$0A@@std@@@std@@IAE?AV?$_Tree_iterator@V?$_Tree_val@V?$_Tmap_traits@V?$basic_string@_WU?$char_traits@_W@std@@V?$allocator@_W@2@@std@@V12@U?$less@V?$basic_string@_WU?$char_traits@_W@std@@V?$allocator@_W@2@@std@@@2@V?$allocator@U?$pair@$$CBV?$basic_string@_WU?$char_traits@_W@std@@V?$allocator@_W@2@@std@@V12@@std@@@2@$0A@@std@@@std@@@2@_NPAU_Node@?$_Tree_nod@V?$_Tmap_traits@V?$basic_string@_WU?$char_traits@_W@std@@V?$allocator@_W@2@@std@@V12@U?$less@V?$basic_string@_WU?$char_traits@_W@std@@V?$allocator@_W@2@@std@@@2@V?$allocator@U?$pair@$$CBV?$basic_string@_WU?$char_traits@_W@std@@V?$allocator@_W@2@@std@@V12@@std@@@2@$0A@@std@@@2@1@Z 10045320 f i devicenotify.obj
 0002:00043790       ??0?$pair@V?$_Tree_iterator@V?$_Tree_val@V?$_Tmap_traits@V?$basic_string@_WU?$char_traits@_W@std@@V?$allocator@_W@2@@std@@V12@U?$less@V?$basic_string@_WU?$char_traits@_W@std@@V?$allocator@_W@2@@std@@@2@V?$allocator@U?$pair@$$CBV?$basic_string@_WU?$char_traits@_W@std@@V?$allocator@_W@2@@std@@V12@@std@@@2@$0A@@std@@@std@@@std@@_N@std@@QAE@$$QAV?$_Tree_iterator@V?$_Tree_val@V?$_Tmap_traits@V?$basic_string@_WU?$char_traits@_W@std@@V?$allocator@_W@2@@std@@V12@U?$less@V?$basic_string@_WU?$char_traits@_W@std@@V?$allocator@_W@2@@std@@@2@V?$allocator@U?$pair@$$CBV?$basic_string@_WU?$char_traits@_W@std@@V?$allocator@_W@2@@std@@V12@@std@@@2@$0A@@std@@@std@@@1@$$QA_N@Z 10045790 f i devicenotify.obj
 0002:000437f0       ??F?$_Tree_iterator@V?$_Tree_val@V?$_Tmap_traits@V?$basic_string@_WU?$char_traits@_W@std@@V?$allocator@_W@2@@std@@V12@U?$less@V?$basic_string@_WU?$char_traits@_W@std@@V?$allocator@_W@2@@std@@@2@V?$allocator@U?$pair@$$CBV?$basic_string@_WU?$char_traits@_W@std@@V?$allocator@_W@2@@std@@V12@@std@@@2@$0A@@std@@@std@@@std@@QAEAAV01@XZ 100457f0 f i devicenotify.obj
 0002:00043840       ?max_size@?$_Tree@V?$_Tmap_traits@V?$basic_string@_WU?$char_traits@_W@std@@V?$allocator@_W@2@@std@@V12@U?$less@V?$basic_string@_WU?$char_traits@_W@std@@V?$allocator@_W@2@@std@@@2@V?$allocator@U?$pair@$$CBV?$basic_string@_WU?$char_traits@_W@std@@V?$allocator@_W@2@@std@@V12@@std@@@2@$0A@@std@@@std@@QBEIXZ 10045840 f i devicenotify.obj
 0002:00043890       ??0?$_Pair_base@V?$_Tree_iterator@V?$_Tree_val@V?$_Tmap_traits@V?$basic_string@_WU?$char_traits@_W@std@@V?$allocator@_W@2@@std@@V12@U?$less@V?$basic_string@_WU?$char_traits@_W@std@@V?$allocator@_W@2@@std@@@2@V?$allocator@U?$pair@$$CBV?$basic_string@_WU?$char_traits@_W@std@@V?$allocator@_W@2@@std@@V12@@std@@@2@$0A@@std@@@std@@@std@@_N@std@@QAE@$$QAV?$_Tree_iterator@V?$_Tree_val@V?$_Tmap_traits@V?$basic_string@_WU?$char_traits@_W@std@@V?$allocator@_W@2@@std@@V12@U?$less@V?$basic_string@_WU?$char_traits@_W@std@@V?$allocator@_W@2@@std@@@2@V?$allocator@U?$pair@$$CBV?$basic_string@_WU?$char_traits@_W@std@@V?$allocator@_W@2@@std@@V12@@std@@@2@$0A@@std@@@std@@@1@$$QA_N@Z 10045890 f i devicenotify.obj
 0002:00043900       ??F?$_Tree_const_iterator@V?$_Tree_val@V?$_Tmap_traits@V?$basic_string@_WU?$char_traits@_W@std@@V?$allocator@_W@2@@std@@V12@U?$less@V?$basic_string@_WU?$char_traits@_W@std@@V?$allocator@_W@2@@std@@@2@V?$allocator@U?$pair@$$CBV?$basic_string@_WU?$char_traits@_W@std@@V?$allocator@_W@2@@std@@V12@@std@@@2@$0A@@std@@@std@@@std@@QAEAAV01@XZ 10045900 f i devicenotify.obj
 0002:00043950       ?max_size@?$allocator@U?$pair@$$CBV?$basic_string@_WU?$char_traits@_W@std@@V?$allocator@_W@2@@std@@V12@@std@@@std@@QBEIXZ 10045950 f i devicenotify.obj
 0002:000439b0       ??F?$_Tree_unchecked_const_iterator@V?$_Tree_val@V?$_Tmap_traits@V?$basic_string@_WU?$char_traits@_W@std@@V?$allocator@_W@2@@std@@V12@U?$less@V?$basic_string@_WU?$char_traits@_W@std@@V?$allocator@_W@2@@std@@@2@V?$allocator@U?$pair@$$CBV?$basic_string@_WU?$char_traits@_W@std@@V?$allocator@_W@2@@std@@V12@@std@@@2@$0A@@std@@@std@@U_Iterator_base0@2@@std@@QAEAAV01@XZ 100459b0 f i devicenotify.obj
 0002:00043ac0       ??$forward@AAV?$basic_string@_WU?$char_traits@_W@std@@V?$allocator@_W@2@@std@@@std@@YAAAV?$basic_string@_WU?$char_traits@_W@std@@V?$allocator@_W@2@@0@AAV10@@Z 10045ac0 f i devicenotify.obj
 0002:00043af0       ??$?0AAV?$basic_string@_WU?$char_traits@_W@std@@V?$allocator@_W@2@@std@@AAV01@@?$_Pair_base@V?$basic_string@_WU?$char_traits@_W@std@@V?$allocator@_W@2@@std@@V12@@std@@QAE@AAV?$basic_string@_WU?$char_traits@_W@std@@V?$allocator@_W@2@@1@0@Z 10045af0 f i devicenotify.obj
 0002:00043ba0       ??$forward@U?$pair@V?$basic_string@_WU?$char_traits@_W@std@@V?$allocator@_W@2@@std@@V12@@std@@@std@@YA$$QAU?$pair@V?$basic_string@_WU?$char_traits@_W@std@@V?$allocator@_W@2@@std@@V12@@0@AAU10@@Z 10045ba0 f i devicenotify.obj
 0002:00043bd0       ??$_Buynode@U?$pair@V?$basic_string@_WU?$char_traits@_W@std@@V?$allocator@_W@2@@std@@V12@@std@@@?$_Tree_val@V?$_Tmap_traits@V?$basic_string@_WU?$char_traits@_W@std@@V?$allocator@_W@2@@std@@V12@U?$less@V?$basic_string@_WU?$char_traits@_W@std@@V?$allocator@_W@2@@std@@@2@V?$allocator@U?$pair@$$CBV?$basic_string@_WU?$char_traits@_W@std@@V?$allocator@_W@2@@std@@V12@@std@@@2@$0A@@std@@@std@@QAEPAU_Node@?$_Tree_nod@V?$_Tmap_traits@V?$basic_string@_WU?$char_traits@_W@std@@V?$allocator@_W@2@@std@@V12@U?$less@V?$basic_string@_WU?$char_traits@_W@std@@V?$allocator@_W@2@@std@@@2@V?$allocator@U?$pair@$$CBV?$basic_string@_WU?$char_traits@_W@std@@V?$allocator@_W@2@@std@@V12@@std@@@2@$0A@@std@@@1@$$QAU?$pair@V?$basic_string@_WU?$char_traits@_W@std@@V?$allocator@_W@2@@std@@V12@@1@@Z 10045bd0 f i devicenotify.obj
 0002:00043ce0       ??$_Ptr_cat@UtagVidCapNameInfo@@U1@@std@@YA?AU_Nonscalar_ptr_iterator_tag@0@PAUtagVidCapNameInfo@@0@Z 10045ce0 f i devicenotify.obj
 0002:00043d40       ??$_Destroy_range@V?$allocator@UtagVidCapNameInfo@@@std@@@std@@YAXPAUtagVidCapNameInfo@@0AAV?$allocator@UtagVidCapNameInfo@@@0@U_Nonscalar_ptr_iterator_tag@0@@Z 10045d40 f i devicenotify.obj
 0002:00043da0       ??$?0AAV?$_Tree_iterator@V?$_Tree_val@V?$_Tmap_traits@V?$basic_string@_WU?$char_traits@_W@std@@V?$allocator@_W@2@@std@@V12@U?$less@V?$basic_string@_WU?$char_traits@_W@std@@V?$allocator@_W@2@@std@@@2@V?$allocator@U?$pair@$$CBV?$basic_string@_WU?$char_traits@_W@std@@V?$allocator@_W@2@@std@@V12@@std@@@2@$0A@@std@@@std@@@std@@_N@?$pair@V?$_Tree_iterator@V?$_Tree_val@V?$_Tmap_traits@V?$basic_string@_WU?$char_traits@_W@std@@V?$allocator@_W@2@@std@@V12@U?$less@V?$basic_string@_WU?$char_traits@_W@std@@V?$allocator@_W@2@@std@@@2@V?$allocator@U?$pair@$$CBV?$basic_string@_WU?$char_traits@_W@std@@V?$allocator@_W@2@@std@@V12@@std@@@2@$0A@@std@@@std@@@std@@_N@std@@QAE@AAV?$_Tree_iterator@V?$_Tree_val@V?$_Tmap_traits@V?$basic_string@_WU?$char_traits@_W@std@@V?$allocator@_W@2@@std@@V12@U?$less@V?$basic_string@_WU?$char_traits@_W@std@@V?$allocator@_W@2@@std@@@2@V?$allocator@U?$pair@$$CBV?$basic_string@_WU?$char_traits@_W@std@@V?$allocator@_W@2@@std@@V12@@std@@@2@$0A@@std@@@std@@@1@$$QA_N@Z 10045da0 f i devicenotify.obj
 0002:00043e00       ??$_Destroy@U?$pair@$$CBV?$basic_string@_WU?$char_traits@_W@std@@V?$allocator@_W@2@@std@@V12@@std@@@std@@YAXPAU?$pair@$$CBV?$basic_string@_WU?$char_traits@_W@std@@V?$allocator@_W@2@@std@@V12@@0@@Z 10045e00 f i devicenotify.obj
 0002:00043e40       ??$move@AAV?$_Tree_iterator@V?$_Tree_val@V?$_Tmap_traits@V?$basic_string@_WU?$char_traits@_W@std@@V?$allocator@_W@2@@std@@V12@U?$less@V?$basic_string@_WU?$char_traits@_W@std@@V?$allocator@_W@2@@std@@@2@V?$allocator@U?$pair@$$CBV?$basic_string@_WU?$char_traits@_W@std@@V?$allocator@_W@2@@std@@V12@@std@@@2@$0A@@std@@@std@@@std@@@std@@YA$$QAV?$_Tree_iterator@V?$_Tree_val@V?$_Tmap_traits@V?$basic_string@_WU?$char_traits@_W@std@@V?$allocator@_W@2@@std@@V12@U?$less@V?$basic_string@_WU?$char_traits@_W@std@@V?$allocator@_W@2@@std@@@2@V?$allocator@U?$pair@$$CBV?$basic_string@_WU?$char_traits@_W@std@@V?$allocator@_W@2@@std@@V12@@std@@@2@$0A@@std@@@std@@@0@AAV10@@Z 10045e40 f i devicenotify.obj
 0002:00043e70       ??_G?$pair@$$CBV?$basic_string@_WU?$char_traits@_W@std@@V?$allocator@_W@2@@std@@V12@@std@@QAEPAXI@Z 10045e70 f i devicenotify.obj
 0002:00043ed0       ??1?$pair@$$CBV?$basic_string@_WU?$char_traits@_W@std@@V?$allocator@_W@2@@std@@V12@@std@@QAE@XZ 10045ed0 f i devicenotify.obj
 0002:00043f10       ??1?$_Pair_base@$$CBV?$basic_string@_WU?$char_traits@_W@std@@V?$allocator@_W@2@@std@@V12@@std@@QAE@XZ 10045f10 f i devicenotify.obj
 0002:00043fa0       ?_Buynode@?$_Tree_val@V?$_Tmap_traits@V?$basic_string@_WU?$char_traits@_W@std@@V?$allocator@_W@2@@std@@V12@U?$less@V?$basic_string@_WU?$char_traits@_W@std@@V?$allocator@_W@2@@std@@@2@V?$allocator@U?$pair@$$CBV?$basic_string@_WU?$char_traits@_W@std@@V?$allocator@_W@2@@std@@V12@@std@@@2@$0A@@std@@@std@@QAEPAU_Node@?$_Tree_nod@V?$_Tmap_traits@V?$basic_string@_WU?$char_traits@_W@std@@V?$allocator@_W@2@@std@@V12@U?$less@V?$basic_string@_WU?$char_traits@_W@std@@V?$allocator@_W@2@@std@@@2@V?$allocator@U?$pair@$$CBV?$basic_string@_WU?$char_traits@_W@std@@V?$allocator@_W@2@@std@@V12@@std@@@2@$0A@@std@@@2@XZ 10045fa0 f i devicenotify.obj
 0002:00044050       ??$_Cons_val@V?$allocator@U?$pair@$$CBV?$basic_string@_WU?$char_traits@_W@std@@V?$allocator@_W@2@@std@@V12@@std@@@std@@U?$pair@$$CBV?$basic_string@_WU?$char_traits@_W@std@@V?$allocator@_W@2@@std@@V12@@2@U?$pair@V?$basic_string@_WU?$char_traits@_W@std@@V?$allocator@_W@2@@std@@V12@@2@@std@@YAXAAV?$allocator@U?$pair@$$CBV?$basic_string@_WU?$char_traits@_W@std@@V?$allocator@_W@2@@std@@V12@@std@@@0@PAU?$pair@$$CBV?$basic_string@_WU?$char_traits@_W@std@@V?$allocator@_W@2@@std@@V12@@0@$$QAU?$pair@V?$basic_string@_WU?$char_traits@_W@std@@V?$allocator@_W@2@@std@@V12@@0@@Z 10046050 f i devicenotify.obj
 0002:000440a0       ??$_Dest_val@V?$allocator@UtagVidCapNameInfo@@@std@@UtagVidCapNameInfo@@@std@@YAXAAV?$allocator@UtagVidCapNameInfo@@@0@PAUtagVidCapNameInfo@@@Z 100460a0 f i devicenotify.obj
 0002:000440e0       ??$forward@AAV?$_Tree_iterator@V?$_Tree_val@V?$_Tmap_traits@V?$basic_string@_WU?$char_traits@_W@std@@V?$allocator@_W@2@@std@@V12@U?$less@V?$basic_string@_WU?$char_traits@_W@std@@V?$allocator@_W@2@@std@@@2@V?$allocator@U?$pair@$$CBV?$basic_string@_WU?$char_traits@_W@std@@V?$allocator@_W@2@@std@@V12@@std@@@2@$0A@@std@@@std@@@std@@@std@@YAAAV?$_Tree_iterator@V?$_Tree_val@V?$_Tmap_traits@V?$basic_string@_WU?$char_traits@_W@std@@V?$allocator@_W@2@@std@@V12@U?$less@V?$basic_string@_WU?$char_traits@_W@std@@V?$allocator@_W@2@@std@@@2@V?$allocator@U?$pair@$$CBV?$basic_string@_WU?$char_traits@_W@std@@V?$allocator@_W@2@@std@@V12@@std@@@2@$0A@@std@@@std@@@0@AAV10@@Z 100460e0 f i devicenotify.obj
 0002:00044110       ??$?0AAV?$_Tree_iterator@V?$_Tree_val@V?$_Tmap_traits@V?$basic_string@_WU?$char_traits@_W@std@@V?$allocator@_W@2@@std@@V12@U?$less@V?$basic_string@_WU?$char_traits@_W@std@@V?$allocator@_W@2@@std@@@2@V?$allocator@U?$pair@$$CBV?$basic_string@_WU?$char_traits@_W@std@@V?$allocator@_W@2@@std@@V12@@std@@@2@$0A@@std@@@std@@@std@@_N@?$_Pair_base@V?$_Tree_iterator@V?$_Tree_val@V?$_Tmap_traits@V?$basic_string@_WU?$char_traits@_W@std@@V?$allocator@_W@2@@std@@V12@U?$less@V?$basic_string@_WU?$char_traits@_W@std@@V?$allocator@_W@2@@std@@@2@V?$allocator@U?$pair@$$CBV?$basic_string@_WU?$char_traits@_W@std@@V?$allocator@_W@2@@std@@V12@@std@@@2@$0A@@std@@@std@@@std@@_N@std@@QAE@AAV?$_Tree_iterator@V?$_Tree_val@V?$_Tmap_traits@V?$basic_string@_WU?$char_traits@_W@std@@V?$allocator@_W@2@@std@@V12@U?$less@V?$basic_string@_WU?$char_traits@_W@std@@V?$allocator@_W@2@@std@@@2@V?$allocator@U?$pair@$$CBV?$basic_string@_WU?$char_traits@_W@std@@V?$allocator@_W@2@@std@@V12@@std@@@2@$0A@@std@@@std@@@1@$$QA_N@Z 10046110 f i devicenotify.obj
 0002:00044180       ?destroy@?$allocator@UtagVidCapNameInfo@@@std@@QAEXPAUtagVidCapNameInfo@@@Z 10046180 f i devicenotify.obj
 0002:000441d0       ??$construct@U?$pair@V?$basic_string@_WU?$char_traits@_W@std@@V?$allocator@_W@2@@std@@V12@@std@@@?$allocator@U?$pair@$$CBV?$basic_string@_WU?$char_traits@_W@std@@V?$allocator@_W@2@@std@@V12@@std@@@std@@QAEXPAU?$pair@$$CBV?$basic_string@_WU?$char_traits@_W@std@@V?$allocator@_W@2@@std@@V12@@1@$$QAU?$pair@V?$basic_string@_WU?$char_traits@_W@std@@V?$allocator@_W@2@@std@@V12@@1@@Z 100461d0 f i devicenotify.obj
 0002:000442a0       ??$_Destroy@UtagVidCapNameInfo@@@std@@YAXPAUtagVidCapNameInfo@@@Z 100462a0 f i devicenotify.obj
 0002:000442e0       ??_GtagVidCapNameInfo@@QAEPAXI@Z 100462e0 f i devicenotify.obj
 0002:00044340       ??1tagVidCapNameInfo@@QAE@XZ 10046340 f i devicenotify.obj
 0002:000443d0       ??$?0V?$basic_string@_WU?$char_traits@_W@std@@V?$allocator@_W@2@@std@@V01@@?$pair@$$CBV?$basic_string@_WU?$char_traits@_W@std@@V?$allocator@_W@2@@std@@V12@@std@@QAE@$$QAU?$pair@V?$basic_string@_WU?$char_traits@_W@std@@V?$allocator@_W@2@@std@@V12@@1@@Z 100463d0 f i devicenotify.obj
 0002:00044440       ??$?0V?$basic_string@_WU?$char_traits@_W@std@@V?$allocator@_W@2@@std@@V01@@?$_Pair_base@$$CBV?$basic_string@_WU?$char_traits@_W@std@@V?$allocator@_W@2@@std@@V12@@std@@QAE@$$QAV?$basic_string@_WU?$char_traits@_W@std@@V?$allocator@_W@2@@1@0@Z 10046440 f i devicenotify.obj
 0002:000444f0       ?Sys_IsWin8@@YAHXZ         100464f0 f   dshowdraw.obj
 0002:00044770       ?ExeCPUID@@YAXK@Z          10046770 f   dshowdraw.obj
 0002:000447c0       ?GetCPUType@@YA?AV?$basic_string@DU?$char_traits@D@std@@V?$allocator@D@2@@std@@XZ 100467c0 f   dshowdraw.obj
 0002:00044910       ?trim@@YAAAV?$basic_string@DU?$char_traits@D@std@@V?$allocator@D@2@@std@@AAV12@@Z 10046910 f   dshowdraw.obj
 0002:000449a0       ??0CDShowDraw@@QAE@XZ      100469a0 f   dshowdraw.obj
 0002:00044c60       ??_ECDShowDraw@@UAEPAXI@Z  10046c60 f i dshowdraw.obj
 0002:00044c60       ??_GCDShowDraw@@UAEPAXI@Z  10046c60 f i dshowdraw.obj
 0002:00044cc0       ??1CDShowDraw@@UAE@XZ      10046cc0 f   dshowdraw.obj
 0002:00044e30       ?Create@CDShowDraw@@QAEHHH@Z 10046e30 f   dshowdraw.obj
 0002:00044f90       ?Free@CDShowDraw@@QAEHXZ   10046f90 f   dshowdraw.obj
 0002:00045100       ?SetMediaFormat@CDShowDraw@@QAEHPAUtagBITMAPINFOHEADER@@@Z 10047100 f   dshowdraw.obj
 0002:00045310       ?SetPlayWnd@CDShowDraw@@QAEHPAUHWND__@@H@Z 10047310 f   dshowdraw.obj
 0002:000456b0       ?DrawDec@CDShowDraw@@QAEHPAEHH@Z 100476b0 f   dshowdraw.obj
 0002:00046550       ?DrawEnc@CDShowDraw@@QAEHPAEHH@Z 10048550 f   dshowdraw.obj
 0002:00047370       ?InitDirectDraw@CDShowDraw@@AAEHXZ 10049370 f   dshowdraw.obj
 0002:00047560       ?FreeDirectDraw@CDShowDraw@@AAEXXZ 10049560 f   dshowdraw.obj
 0002:00047680       ?CreatePrimarySurface@CDShowDraw@@AAEJXZ 10049680 f   dshowdraw.obj
 0002:00047890       ?RestoreAllSurface@CDShowDraw@@AAEHXZ 10049890 f   dshowdraw.obj
 0002:00047910       ?ClearLastFrame@CDShowDraw@@QAEHXZ 10049910 f   dshowdraw.obj
 0002:00047ab0       ?SetDrawCallBack@CDShowDraw@@QAEXP6AXPAUHDC__@@I@ZI@Z 10049ab0 f   dshowdraw.obj
 0002:00047b00       ?CreateRect@CDShowDraw@@AAEHPAUtagRECT@@E@Z 10049b00 f   dshowdraw.obj
 0002:00047ee0       ?SetVidZoomPolicy@CDShowDraw@@QAEXW4TPicZoomStyle@@@Z 10049ee0 f   dshowdraw.obj
 0002:00047f20       ?AddColorToImage@@YAHPAE0HHEEE@Z 10049f20 f   dshowdraw.obj
 0002:00048200       _yv12_to_rgb24_1234        1004a200 f   dshowdraw.obj
 0002:00048680       _Generate_yuv2rgb_tables_1234 1004a680 f   dshowdraw.obj
 0002:000487d0       ??0?$basic_string@DU?$char_traits@D@std@@V?$allocator@D@2@@std@@QAE@ABV01@@Z 1004a7d0 f i dshowdraw.obj
 0002:00048890       ?empty@?$basic_string@DU?$char_traits@D@std@@V?$allocator@D@2@@std@@QBE_NXZ 1004a890 f i dshowdraw.obj
 0002:000488d0       ?find_first_not_of@?$basic_string@DU?$char_traits@D@std@@V?$allocator@D@2@@std@@QBEIPBDI@Z 1004a8d0 f i dshowdraw.obj
 0002:00048930       ?find_last_not_of@?$basic_string@DU?$char_traits@D@std@@V?$allocator@D@2@@std@@QBEIPBDI@Z 1004a930 f i dshowdraw.obj
 0002:00048990       ?find_first_not_of@?$basic_string@DU?$char_traits@D@std@@V?$allocator@D@2@@std@@QBEIPBDII@Z 1004a990 f i dshowdraw.obj
 0002:00048a40       ?find_last_not_of@?$basic_string@DU?$char_traits@D@std@@V?$allocator@D@2@@std@@QBEIPBDII@Z 1004aa40 f i dshowdraw.obj
 0002:00048b10       ?GetSingletonPtr@CVidCapManDS@@SAPAV1@XZ 1004ab10 f   dsvidcapman.obj
 0002:00048b40       ?GetSingleton@CVidCapManDS@@SAAAV1@XZ 1004ab40 f   dsvidcapman.obj
 0002:00048b70       ??0CVidCapManDS@@QAE@XZ    1004ab70 f   dsvidcapman.obj
 0002:00048d20       ??_ECVidCapManDS@@UAEPAXI@Z 1004ad20 f i dsvidcapman.obj
 0002:00048d20       ??_GCVidCapManDS@@UAEPAXI@Z 1004ad20 f i dsvidcapman.obj
 0002:00048d80       ??0tagVidCapNameInfo@@QAE@XZ 1004ad80 f i dsvidcapman.obj
 0002:00048e10       ??1CVidCapManDS@@UAE@XZ    1004ae10 f   dsvidcapman.obj
 0002:000491d0       ?Refresh@CVidCapManDS@@QAEGAAV?$vector@UtagVidCapNameInfo@@V?$allocator@UtagVidCapNameInfo@@@std@@@std@@AAI@Z 1004b1d0 f   dsvidcapman.obj
 0002:000495c0       ?GetCapFilter@CVidCapManDS@@IAEPAUIBaseFilter@@ABUtagVidCapNameInfo@@@Z 1004b5c0 f   dsvidcapman.obj
 0002:00049a40       ?Init@CVidCapManDS@@QAEGXZ 1004ba40 f   dsvidcapman.obj
 0002:0004a350       ?DisconnectGraph@CVidCapManDS@@QAEGXZ 1004c350 f   dsvidcapman.obj
 0002:0004a4f0       ?StopCapture@CVidCapManDS@@QAEGXZ 1004c4f0 f   dsvidcapman.obj
 0002:0004a5d0       ?SelectCamera@CVidCapManDS@@QAEGPBUtagVidCapNameInfo@@PBUVideoCaptureCapability@@H@Z 1004c5d0 f   dsvidcapman.obj
 0002:0004a980       ??8VideoCaptureCapability@@QBE_NABU0@@Z 1004c980 f i dsvidcapman.obj
 0002:0004a9d0       ??9VideoCaptureCapability@@QBE_NABU0@@Z 1004c9d0 f i dsvidcapman.obj
 0002:0004aa60       ??4tagVidCapNameInfo@@QAEAAU0@ABU0@@Z 1004ca60 f i dsvidcapman.obj
 0002:0004aad0       ?ChangeCapStd@CVidCapManDS@@IAEGPBUVideoCaptureCapability@@@Z 1004cad0 f   dsvidcapman.obj
 0002:0004bc40       ?GetMaxOfFrameArray@@YA_JPA_JJ@Z 1004dc40 f   dsvidcapman.obj
 0002:0004bcf0       ?GetFilterCapStdList@CVidCapManDS@@IAEGAAV?$vector@UVideoCaptureCapability@@V?$allocator@UVideoCaptureCapability@@@std@@@std@@@Z 1004dcf0 f   dsvidcapman.obj
 0002:0004c8e0       ?GetMostMatchCapStd@CVidCapManDS@@IAEHUVideoCaptureCapability@@AAU2@ABV?$vector@UVideoCaptureCapability@@V?$allocator@UVideoCaptureCapability@@@std@@@std@@@Z 1004e8e0 f   dsvidcapman.obj
 0002:0004cc50       ?StartCapture@CVidCapManDS@@QAEGXZ 1004ec50 f   dsvidcapman.obj
 0002:0004cef0       ?SetCapObserver@CVidCapManDS@@QAEXPAX@Z 1004eef0 f   dsvidcapman.obj
 0002:0004cf60       ?SetVidComObserver@CaptureSinkFilter@@QAEXPAVCVidCapCom@@@Z 1004ef60 f i dsvidcapman.obj
 0002:0004cfa0       ?LostCamera@CVidCapManDS@@QAEGPBV?$basic_string@_WU?$char_traits@_W@std@@V?$allocator@_W@2@@std@@@Z 1004efa0 f   dsvidcapman.obj
 0002:0004d0d0       ?Clear@tagVidCapNameInfo@@QAEXXZ 1004f0d0 f i dsvidcapman.obj
 0002:0004d130       ?SetPicVal@CVidCapManDS@@QAEXW4PictureAdjustType@@IH@Z 1004f130 f   dsvidcapman.obj
 0002:0004d580       ?GetPicVal@CVidCapManDS@@QAEXW4PictureAdjustType@@AAIAAH@Z 1004f580 f   dsvidcapman.obj
 0002:0004d8b0       ?GetDefPicVal@CVidCapManDS@@QAEXW4PictureAdjustType@@AAI111@Z 1004f8b0 f   dsvidcapman.obj
 0002:0004dba0       ??0?$Singleton@VCVidCapManDS@@@@QAE@XZ 1004fba0 f i dsvidcapman.obj
 0002:0004dc00       ??1?$Singleton@VCVidCapManDS@@@@QAE@XZ 1004fc00 f i dsvidcapman.obj
 0002:0004dc40       ??0?$CAutoComInterfacePtr@UIAMVideoProcAmp@@@@QAE@PAUIAMVideoProcAmp@@@Z 1004fc40 f i dsvidcapman.obj
 0002:0004dc80       ??1?$CAutoComInterfacePtr@UIAMVideoProcAmp@@@@QAE@XZ 1004fc80 f i dsvidcapman.obj
 0002:0004dcf0       ??I?$CAutoComInterfacePtr@UIAMVideoProcAmp@@@@QAEPAPAUIAMVideoProcAmp@@XZ 1004fcf0 f i dsvidcapman.obj
 0002:0004dd20       ??C?$CAutoComInterfacePtr@UIAMVideoProcAmp@@@@QBEPAUIAMVideoProcAmp@@XZ 1004fd20 f i dsvidcapman.obj
 0002:0004dd50       ?push_back@?$vector@UtagVidCapNameInfo@@V?$allocator@UtagVidCapNameInfo@@@std@@@std@@QAEXABUtagVidCapNameInfo@@@Z 1004fd50 f i dsvidcapman.obj
 0002:0004de80       ?clear@?$vector@UtagVidCapNameInfo@@V?$allocator@UtagVidCapNameInfo@@@std@@@std@@QAEXXZ 1004fe80 f i dsvidcapman.obj
 0002:0004df10       ??0?$CAutoComInterfacePtr@UIEnumMoniker@@@@QAE@PAUIEnumMoniker@@@Z 1004ff10 f i dsvidcapman.obj
 0002:0004df50       ??1?$CAutoComInterfacePtr@UIEnumMoniker@@@@QAE@XZ 1004ff50 f i dsvidcapman.obj
 0002:0004dfc0       ??B?$CAutoComInterfacePtr@UIEnumMoniker@@@@QBEPAUIEnumMoniker@@XZ 1004ffc0 f i dsvidcapman.obj
 0002:0004dff0       ??I?$CAutoComInterfacePtr@UIEnumMoniker@@@@QAEPAPAUIEnumMoniker@@XZ 1004fff0 f i dsvidcapman.obj
 0002:0004e020       ??C?$CAutoComInterfacePtr@UIEnumMoniker@@@@QBEPAUIEnumMoniker@@XZ 10050020 f i dsvidcapman.obj
 0002:0004e050       ??0?$vector@UVideoCaptureCapability@@V?$allocator@UVideoCaptureCapability@@@std@@@std@@QAE@XZ 10050050 f i dsvidcapman.obj
 0002:0004e0a0       ??1?$vector@UVideoCaptureCapability@@V?$allocator@UVideoCaptureCapability@@@std@@@std@@QAE@XZ 100500a0 f i dsvidcapman.obj
 0002:0004e120       ?size@?$vector@UVideoCaptureCapability@@V?$allocator@UVideoCaptureCapability@@@std@@@std@@QBEIXZ 10050120 f i dsvidcapman.obj
 0002:0004e160       ??A?$vector@UVideoCaptureCapability@@V?$allocator@UVideoCaptureCapability@@@std@@@std@@QBEABUVideoCaptureCapability@@I@Z 10050160 f i dsvidcapman.obj
 0002:0004e1a0       ?push_back@?$vector@UVideoCaptureCapability@@V?$allocator@UVideoCaptureCapability@@@std@@@std@@QAEXABUVideoCaptureCapability@@@Z 100501a0 f i dsvidcapman.obj
 0002:0004e2d0       ?clear@?$vector@UVideoCaptureCapability@@V?$allocator@UVideoCaptureCapability@@@std@@@std@@QAEXXZ 100502d0 f i dsvidcapman.obj
 0002:0004e360       ?begin@?$vector@UtagVidCapNameInfo@@V?$allocator@UtagVidCapNameInfo@@@std@@@std@@QAE?AV?$_Vector_iterator@V?$_Vector_val@UtagVidCapNameInfo@@V?$allocator@UtagVidCapNameInfo@@@std@@@std@@@2@XZ 10050360 f i dsvidcapman.obj
 0002:0004e3b0       ?end@?$vector@UtagVidCapNameInfo@@V?$allocator@UtagVidCapNameInfo@@@std@@@std@@QAE?AV?$_Vector_iterator@V?$_Vector_val@UtagVidCapNameInfo@@V?$allocator@UtagVidCapNameInfo@@@std@@@std@@@2@XZ 100503b0 f i dsvidcapman.obj
 0002:0004e400       ?erase@?$vector@UtagVidCapNameInfo@@V?$allocator@UtagVidCapNameInfo@@@std@@@std@@QAE?AV?$_Vector_iterator@V?$_Vector_val@UtagVidCapNameInfo@@V?$allocator@UtagVidCapNameInfo@@@std@@@std@@@2@V?$_Vector_const_iterator@V?$_Vector_val@UtagVidCapNameInfo@@V?$allocator@UtagVidCapNameInfo@@@std@@@std@@@2@0@Z 10050400 f i dsvidcapman.obj
 0002:0004e510       ?_Inside@?$vector@UtagVidCapNameInfo@@V?$allocator@UtagVidCapNameInfo@@@std@@@std@@IBE_NPBUtagVidCapNameInfo@@@Z 10050510 f i dsvidcapman.obj
 0002:0004e570       ?_Reserve@?$vector@UtagVidCapNameInfo@@V?$allocator@UtagVidCapNameInfo@@@std@@@std@@IAEXI@Z 10050570 f i dsvidcapman.obj
 0002:0004e600       ?_Orphan_range@?$vector@UtagVidCapNameInfo@@V?$allocator@UtagVidCapNameInfo@@@std@@@std@@IBEXPAUtagVidCapNameInfo@@0@Z 10050600 f i dsvidcapman.obj
 0002:0004e630       ?begin@?$vector@UVideoCaptureCapability@@V?$allocator@UVideoCaptureCapability@@@std@@@std@@QAE?AV?$_Vector_iterator@V?$_Vector_val@UVideoCaptureCapability@@V?$allocator@UVideoCaptureCapability@@@std@@@std@@@2@XZ 10050630 f i dsvidcapman.obj
 0002:0004e680       ?end@?$vector@UVideoCaptureCapability@@V?$allocator@UVideoCaptureCapability@@@std@@@std@@QAE?AV?$_Vector_iterator@V?$_Vector_val@UVideoCaptureCapability@@V?$allocator@UVideoCaptureCapability@@@std@@@std@@@2@XZ 10050680 f i dsvidcapman.obj
 0002:0004e6d0       ?erase@?$vector@UVideoCaptureCapability@@V?$allocator@UVideoCaptureCapability@@@std@@@std@@QAE?AV?$_Vector_iterator@V?$_Vector_val@UVideoCaptureCapability@@V?$allocator@UVideoCaptureCapability@@@std@@@std@@@2@V?$_Vector_const_iterator@V?$_Vector_val@UVideoCaptureCapability@@V?$allocator@UVideoCaptureCapability@@@std@@@std@@@2@0@Z 100506d0 f i dsvidcapman.obj
 0002:0004e7e0       ?_Inside@?$vector@UVideoCaptureCapability@@V?$allocator@UVideoCaptureCapability@@@std@@@std@@IBE_NPBUVideoCaptureCapability@@@Z 100507e0 f i dsvidcapman.obj
 0002:0004e840       ?_Reserve@?$vector@UVideoCaptureCapability@@V?$allocator@UVideoCaptureCapability@@@std@@@std@@IAEXI@Z 10050840 f i dsvidcapman.obj
 0002:0004e8d0       ?_Tidy@?$vector@UVideoCaptureCapability@@V?$allocator@UVideoCaptureCapability@@@std@@@std@@IAEXXZ 100508d0 f i dsvidcapman.obj
 0002:0004e980       ?_Orphan_range@?$vector@UVideoCaptureCapability@@V?$allocator@UVideoCaptureCapability@@@std@@@std@@IBEXPAUVideoCaptureCapability@@0@Z 10050980 f i dsvidcapman.obj
 0002:0004e9b0       ??0?$_Vector_val@UVideoCaptureCapability@@V?$allocator@UVideoCaptureCapability@@@std@@@std@@QAE@V?$allocator@UVideoCaptureCapability@@@1@@Z 100509b0 f i dsvidcapman.obj
 0002:0004ea20       ??1?$_Vector_val@UVideoCaptureCapability@@V?$allocator@UVideoCaptureCapability@@@std@@@std@@QAE@XZ 10050a20 f i dsvidcapman.obj
 0002:0004ea50       ??0?$allocator@UVideoCaptureCapability@@@std@@QAE@XZ 10050a50 f i dsvidcapman.obj
 0002:0004ea80       ?reserve@?$vector@UtagVidCapNameInfo@@V?$allocator@UtagVidCapNameInfo@@@std@@@std@@QAEXI@Z 10050a80 f i dsvidcapman.obj
 0002:0004ec00       ?capacity@?$vector@UtagVidCapNameInfo@@V?$allocator@UtagVidCapNameInfo@@@std@@@std@@QBEIXZ 10050c00 f i dsvidcapman.obj
 0002:0004ec40       ?_Make_iter@?$vector@UtagVidCapNameInfo@@V?$allocator@UtagVidCapNameInfo@@@std@@@std@@QBE?AV?$_Vector_iterator@V?$_Vector_val@UtagVidCapNameInfo@@V?$allocator@UtagVidCapNameInfo@@@std@@@std@@@2@V?$_Vector_const_iterator@V?$_Vector_val@UtagVidCapNameInfo@@V?$allocator@UtagVidCapNameInfo@@@std@@@std@@@2@@Z 10050c40 f i dsvidcapman.obj
 0002:0004ec90       ?size@?$vector@UtagVidCapNameInfo@@V?$allocator@UtagVidCapNameInfo@@@std@@@std@@QBEIXZ 10050c90 f i dsvidcapman.obj
 0002:0004ecd0       ?max_size@?$vector@UtagVidCapNameInfo@@V?$allocator@UtagVidCapNameInfo@@@std@@@std@@QBEIXZ 10050cd0 f i dsvidcapman.obj
 0002:0004ed20       ?_Grow_to@?$vector@UtagVidCapNameInfo@@V?$allocator@UtagVidCapNameInfo@@@std@@@std@@IBEII@Z 10050d20 f i dsvidcapman.obj
 0002:0004edb0       ?_Xlen@?$vector@UtagVidCapNameInfo@@V?$allocator@UtagVidCapNameInfo@@@std@@@std@@IBEXXZ 10050db0 f i dsvidcapman.obj
 0002:0004ee00       ?reserve@?$vector@UVideoCaptureCapability@@V?$allocator@UVideoCaptureCapability@@@std@@@std@@QAEXI@Z 10050e00 f i dsvidcapman.obj
 0002:0004ef80       ?capacity@?$vector@UVideoCaptureCapability@@V?$allocator@UVideoCaptureCapability@@@std@@@std@@QBEIXZ 10050f80 f i dsvidcapman.obj
 0002:0004efc0       ?_Make_iter@?$vector@UVideoCaptureCapability@@V?$allocator@UVideoCaptureCapability@@@std@@@std@@QBE?AV?$_Vector_iterator@V?$_Vector_val@UVideoCaptureCapability@@V?$allocator@UVideoCaptureCapability@@@std@@@std@@@2@V?$_Vector_const_iterator@V?$_Vector_val@UVideoCaptureCapability@@V?$allocator@UVideoCaptureCapability@@@std@@@std@@@2@@Z 10050fc0 f i dsvidcapman.obj
 0002:0004f010       ?max_size@?$vector@UVideoCaptureCapability@@V?$allocator@UVideoCaptureCapability@@@std@@@std@@QBEIXZ 10051010 f i dsvidcapman.obj
 0002:0004f060       ?_Destroy@?$vector@UVideoCaptureCapability@@V?$allocator@UVideoCaptureCapability@@@std@@@std@@IAEXPAUVideoCaptureCapability@@0@Z 10051060 f i dsvidcapman.obj
 0002:0004f0b0       ?_Grow_to@?$vector@UVideoCaptureCapability@@V?$allocator@UVideoCaptureCapability@@@std@@@std@@IBEII@Z 100510b0 f i dsvidcapman.obj
 0002:0004f140       ?_Xlen@?$vector@UVideoCaptureCapability@@V?$allocator@UVideoCaptureCapability@@@std@@@std@@IBEXXZ 10051140 f i dsvidcapman.obj
 0002:0004f190       ??0?$allocator@UVideoCaptureCapability@@@std@@QAE@ABV01@@Z 10051190 f i dsvidcapman.obj
 0002:0004f1c0       ?deallocate@?$allocator@UVideoCaptureCapability@@@std@@QAEXPAUVideoCaptureCapability@@I@Z 100511c0 f i dsvidcapman.obj
 0002:0004f210       ??0?$_Vector_iterator@V?$_Vector_val@UtagVidCapNameInfo@@V?$allocator@UtagVidCapNameInfo@@@std@@@std@@@std@@QAE@PAUtagVidCapNameInfo@@PBU_Container_base0@1@@Z 10051210 f i dsvidcapman.obj
 0002:0004f260       ??9?$_Vector_const_iterator@V?$_Vector_val@UtagVidCapNameInfo@@V?$allocator@UtagVidCapNameInfo@@@std@@@std@@@std@@QBE_NABV01@@Z 10051260 f i dsvidcapman.obj
 0002:0004f2b0       ??0?$_Vector_iterator@V?$_Vector_val@UVideoCaptureCapability@@V?$allocator@UVideoCaptureCapability@@@std@@@std@@@std@@QAE@PAUVideoCaptureCapability@@PBU_Container_base0@1@@Z 100512b0 f i dsvidcapman.obj
 0002:0004f300       ??9?$_Vector_const_iterator@V?$_Vector_val@UVideoCaptureCapability@@V?$allocator@UVideoCaptureCapability@@@std@@@std@@@std@@QBE_NABV01@@Z 10051300 f i dsvidcapman.obj
 0002:0004f350       ?allocate@?$allocator@UtagVidCapNameInfo@@@std@@QAEPAUtagVidCapNameInfo@@I@Z 10051350 f i dsvidcapman.obj
 0002:0004f3a0       ?max_size@?$allocator@UtagVidCapNameInfo@@@std@@QBEIXZ 100513a0 f i dsvidcapman.obj
 0002:0004f400       ?allocate@?$allocator@UVideoCaptureCapability@@@std@@QAEPAUVideoCaptureCapability@@I@Z 10051400 f i dsvidcapman.obj
 0002:0004f450       ?max_size@?$allocator@UVideoCaptureCapability@@@std@@QBEIXZ 10051450 f i dsvidcapman.obj
 0002:0004f4b0       ??0?$_Vector_const_iterator@V?$_Vector_val@UtagVidCapNameInfo@@V?$allocator@UtagVidCapNameInfo@@@std@@@std@@@std@@QAE@PAUtagVidCapNameInfo@@PBU_Container_base0@1@@Z 100514b0 f i dsvidcapman.obj
 0002:0004f500       ??8?$_Vector_const_iterator@V?$_Vector_val@UtagVidCapNameInfo@@V?$allocator@UtagVidCapNameInfo@@@std@@@std@@@std@@QBE_NABV01@@Z 10051500 f i dsvidcapman.obj
 0002:0004f560       ??0?$_Vector_const_iterator@V?$_Vector_val@UVideoCaptureCapability@@V?$allocator@UVideoCaptureCapability@@@std@@@std@@@std@@QAE@PAUVideoCaptureCapability@@PBU_Container_base0@1@@Z 10051560 f i dsvidcapman.obj
 0002:0004f5b0       ??8?$_Vector_const_iterator@V?$_Vector_val@UVideoCaptureCapability@@V?$allocator@UVideoCaptureCapability@@@std@@@std@@@std@@QBE_NABV01@@Z 100515b0 f i dsvidcapman.obj
 0002:0004f610       ?_Compat@?$_Vector_const_iterator@V?$_Vector_val@UtagVidCapNameInfo@@V?$allocator@UtagVidCapNameInfo@@@std@@@std@@@std@@QBEXABV12@@Z 10051610 f i dsvidcapman.obj
 0002:0004f640       ?_Compat@?$_Vector_const_iterator@V?$_Vector_val@UVideoCaptureCapability@@V?$allocator@UVideoCaptureCapability@@@std@@@std@@@std@@QBEXABV12@@Z 10051640 f i dsvidcapman.obj
 0002:0004f670       ??$addressof@$$CBUtagVidCapNameInfo@@@std@@YAPBUtagVidCapNameInfo@@ABU1@@Z 10051670 f i dsvidcapman.obj
 0002:0004f6a0       ??$_Cons_val@V?$allocator@UtagVidCapNameInfo@@@std@@UtagVidCapNameInfo@@AAU3@@std@@YAXAAV?$allocator@UtagVidCapNameInfo@@@0@PAUtagVidCapNameInfo@@AAU2@@Z 100516a0 f i dsvidcapman.obj
 0002:0004f6f0       ??$_Cons_val@V?$allocator@UtagVidCapNameInfo@@@std@@UtagVidCapNameInfo@@ABU3@@std@@YAXAAV?$allocator@UtagVidCapNameInfo@@@0@PAUtagVidCapNameInfo@@ABU2@@Z 100516f0 f i dsvidcapman.obj
 0002:0004f740       ??$addressof@$$CBUVideoCaptureCapability@@@std@@YAPBUVideoCaptureCapability@@ABU1@@Z 10051740 f i dsvidcapman.obj
 0002:0004f770       ??$_Cons_val@V?$allocator@UVideoCaptureCapability@@@std@@UVideoCaptureCapability@@AAU3@@std@@YAXAAV?$allocator@UVideoCaptureCapability@@@0@PAUVideoCaptureCapability@@AAU2@@Z 10051770 f i dsvidcapman.obj
 0002:0004f7c0       ??$_Cons_val@V?$allocator@UVideoCaptureCapability@@@std@@UVideoCaptureCapability@@ABU3@@std@@YAXAAV?$allocator@UVideoCaptureCapability@@@0@PAUVideoCaptureCapability@@ABU2@@Z 100517c0 f i dsvidcapman.obj
 0002:0004f810       ??$_Move@PAUtagVidCapNameInfo@@PAU1@@std@@YAPAUtagVidCapNameInfo@@PAU1@00@Z 10051810 f i dsvidcapman.obj
 0002:0004f880       ??$_Move@PAUVideoCaptureCapability@@PAU1@@std@@YAPAUVideoCaptureCapability@@PAU1@00@Z 10051880 f i dsvidcapman.obj
 0002:0004f8f0       ??$_Umove@PAUtagVidCapNameInfo@@@?$vector@UtagVidCapNameInfo@@V?$allocator@UtagVidCapNameInfo@@@std@@@std@@IAEPAUtagVidCapNameInfo@@PAU2@00@Z 100518f0 f i dsvidcapman.obj
 0002:0004f950       ??$_Umove@PAUVideoCaptureCapability@@@?$vector@UVideoCaptureCapability@@V?$allocator@UVideoCaptureCapability@@@std@@@std@@IAEPAUVideoCaptureCapability@@PAU2@00@Z 10051950 f i dsvidcapman.obj
 0002:0004f9b0       ??$_Destroy_range@V?$allocator@UVideoCaptureCapability@@@std@@@std@@YAXPAUVideoCaptureCapability@@0AAV?$allocator@UVideoCaptureCapability@@@0@@Z 100519b0 f i dsvidcapman.obj
 0002:0004fa20       ??$_Allocate@UtagVidCapNameInfo@@@std@@YAPAUtagVidCapNameInfo@@IPAU1@@Z 10051a20 f i dsvidcapman.obj
 0002:0004fab0       ??$_Allocate@UVideoCaptureCapability@@@std@@YAPAUVideoCaptureCapability@@IPAU1@@Z 10051ab0 f i dsvidcapman.obj
 0002:0004fb40       ?construct@?$allocator@UtagVidCapNameInfo@@@std@@QAEXPAUtagVidCapNameInfo@@ABU3@@Z 10051b40 f i dsvidcapman.obj
 0002:0004fb90       ?construct@?$allocator@UVideoCaptureCapability@@@std@@QAEXPAUVideoCaptureCapability@@ABU3@@Z 10051b90 f i dsvidcapman.obj
 0002:0004fbe0       ??$forward@AAUtagVidCapNameInfo@@@std@@YAAAUtagVidCapNameInfo@@AAU1@@Z 10051be0 f i dsvidcapman.obj
 0002:0004fc10       ??$construct@AAUtagVidCapNameInfo@@@?$allocator@UtagVidCapNameInfo@@@std@@QAEXPAUtagVidCapNameInfo@@AAU2@@Z 10051c10 f i dsvidcapman.obj
 0002:0004fce0       ??$forward@ABUtagVidCapNameInfo@@@std@@YAABUtagVidCapNameInfo@@ABU1@@Z 10051ce0 f i dsvidcapman.obj
 0002:0004fd10       ??$forward@AAUVideoCaptureCapability@@@std@@YAAAUVideoCaptureCapability@@AAU1@@Z 10051d10 f i dsvidcapman.obj
 0002:0004fd40       ??$construct@AAUVideoCaptureCapability@@@?$allocator@UVideoCaptureCapability@@@std@@QAEXPAUVideoCaptureCapability@@AAU2@@Z 10051d40 f i dsvidcapman.obj
 0002:0004fe10       ??$forward@ABUVideoCaptureCapability@@@std@@YAABUVideoCaptureCapability@@ABU1@@Z 10051e10 f i dsvidcapman.obj
 0002:0004fe40       ??$_Move@PAUtagVidCapNameInfo@@PAU1@@std@@YAPAUtagVidCapNameInfo@@PAU1@00U_Nonscalar_ptr_iterator_tag@0@@Z 10051e40 f i dsvidcapman.obj
 0002:0004feb0       ??$_Ptr_cat@UVideoCaptureCapability@@U1@@std@@YA?AU_Nonscalar_ptr_iterator_tag@0@PAUVideoCaptureCapability@@0@Z 10051eb0 f i dsvidcapman.obj
 0002:0004ff10       ??$_Move@PAUVideoCaptureCapability@@PAU1@@std@@YAPAUVideoCaptureCapability@@PAU1@00U_Nonscalar_ptr_iterator_tag@0@@Z 10051f10 f i dsvidcapman.obj
 0002:0004ff80       ??$_Uninitialized_move@PAUtagVidCapNameInfo@@PAU1@V?$allocator@UtagVidCapNameInfo@@@std@@@std@@YAPAUtagVidCapNameInfo@@PAU1@00AAV?$allocator@UtagVidCapNameInfo@@@0@@Z 10051f80 f i dsvidcapman.obj
 0002:00050000       ??$_Uninitialized_move@PAUVideoCaptureCapability@@PAU1@V?$allocator@UVideoCaptureCapability@@@std@@@std@@YAPAUVideoCaptureCapability@@PAU1@00AAV?$allocator@UVideoCaptureCapability@@@0@@Z 10052000 f i dsvidcapman.obj
 0002:00050080       ??$_Destroy_range@V?$allocator@UVideoCaptureCapability@@@std@@@std@@YAXPAUVideoCaptureCapability@@0AAV?$allocator@UVideoCaptureCapability@@@0@U_Nonscalar_ptr_iterator_tag@0@@Z 10052080 f i dsvidcapman.obj
 0002:000500e0       ??$_Construct@UtagVidCapNameInfo@@ABU1@@std@@YAXPAUtagVidCapNameInfo@@ABU1@@Z 100520e0 f i dsvidcapman.obj
 0002:000501b0       ??$_Construct@UVideoCaptureCapability@@ABU1@@std@@YAXPAUVideoCaptureCapability@@ABU1@@Z 100521b0 f i dsvidcapman.obj
 0002:00050280       ??0tagVidCapNameInfo@@QAE@ABU0@@Z 10052280 f i dsvidcapman.obj
 0002:00050330       ??$move@AAUtagVidCapNameInfo@@@std@@YA$$QAUtagVidCapNameInfo@@AAU1@@Z 10052330 f i dsvidcapman.obj
 0002:00050360       ??$move@AAUVideoCaptureCapability@@@std@@YA$$QAUVideoCaptureCapability@@AAU1@@Z 10052360 f i dsvidcapman.obj
 0002:00050390       ??$_Val_type@PAUtagVidCapNameInfo@@@std@@YAPAUtagVidCapNameInfo@@PAU1@@Z 10052390 f i dsvidcapman.obj
 0002:000503c0       ??$_Uninit_move@PAUtagVidCapNameInfo@@PAU1@V?$allocator@UtagVidCapNameInfo@@@std@@U1@@std@@YAPAUtagVidCapNameInfo@@PAU1@00AAV?$allocator@UtagVidCapNameInfo@@@0@0U_Nonscalar_ptr_iterator_tag@0@@Z 100523c0 f i dsvidcapman.obj
 0002:000504b0       ??$_Val_type@PAUVideoCaptureCapability@@@std@@YAPAUVideoCaptureCapability@@PAU1@@Z 100524b0 f i dsvidcapman.obj
 0002:000504e0       ??$_Uninit_move@PAUVideoCaptureCapability@@PAU1@V?$allocator@UVideoCaptureCapability@@@std@@U1@@std@@YAPAUVideoCaptureCapability@@PAU1@00AAV?$allocator@UVideoCaptureCapability@@@0@0U_Nonscalar_ptr_iterator_tag@0@@Z 100524e0 f i dsvidcapman.obj
 0002:000505d0       ??$_Dest_val@V?$allocator@UVideoCaptureCapability@@@std@@UVideoCaptureCapability@@@std@@YAXAAV?$allocator@UVideoCaptureCapability@@@0@PAUVideoCaptureCapability@@@Z 100525d0 f i dsvidcapman.obj
 0002:00050610       ?destroy@?$allocator@UVideoCaptureCapability@@@std@@QAEXPAUVideoCaptureCapability@@@Z 10052610 f i dsvidcapman.obj
 0002:00050660       ??$_Cons_val@V?$allocator@UtagVidCapNameInfo@@@std@@UtagVidCapNameInfo@@U3@@std@@YAXAAV?$allocator@UtagVidCapNameInfo@@@0@PAUtagVidCapNameInfo@@$$QAU2@@Z 10052660 f i dsvidcapman.obj
 0002:000506b0       ??$_Cons_val@V?$allocator@UVideoCaptureCapability@@@std@@UVideoCaptureCapability@@U3@@std@@YAXAAV?$allocator@UVideoCaptureCapability@@@0@PAUVideoCaptureCapability@@$$QAU2@@Z 100526b0 f i dsvidcapman.obj
 0002:00050700       ??$_Destroy@UVideoCaptureCapability@@@std@@YAXPAUVideoCaptureCapability@@@Z 10052700 f i dsvidcapman.obj
 0002:00050730       ?construct@?$allocator@UtagVidCapNameInfo@@@std@@QAEXPAUtagVidCapNameInfo@@$$QAU3@@Z 10052730 f i dsvidcapman.obj
 0002:00050800       ?construct@?$allocator@UVideoCaptureCapability@@@std@@QAEXPAUVideoCaptureCapability@@$$QAU3@@Z 10052800 f i dsvidcapman.obj
 0002:000508d0       ??$forward@UtagVidCapNameInfo@@@std@@YA$$QAUtagVidCapNameInfo@@AAU1@@Z 100528d0 f i dsvidcapman.obj
 0002:00050900       ??$forward@UVideoCaptureCapability@@@std@@YA$$QAUVideoCaptureCapability@@AAU1@@Z 10052900 f i dsvidcapman.obj
 0002:00050930       ?BmpNeedSizeChange@CImagetools@@QAEHPAUtagScaleParam@@IPAE@Z 10052930 f   imagetools.obj
 0002:00050f80       ??0CImagetools@@QAE@XZ     10052f80 f   imagetools.obj
 0002:00051010       ??1CImagetools@@QAE@XZ     10053010 f   imagetools.obj
 0002:000510c0       ?BmpLogoSetting@CImagetools@@QAEHPAUTFullLogoParam@@II@Z 100530c0 f   imagetools.obj
 0002:00051de0       ?DrawLogoI420@CImagetools@@QAEXPAEII@Z 10053de0 f   imagetools.obj
 0002:00052120       ?UnInitKdvImgFunc@@YAXXZ   10054120 f   imgunit.obj
 0002:00052180       ?Destroy@CVidScalerImgunit@@QAEGXZ 10054180 f   imgunit.obj
 0002:00052230       ?Process@CVidScalerImgunit@@QAEGAAUtagScalerInOutParam@@0@Z 10054230 f   imgunit.obj
 0002:00052410       ?SetParam@CVidScalerImgunit@@QAEGABUtagScaleParam@@@Z 10054410 f   imgunit.obj
 0002:00052780       ??0CVidScalerImgunit@@QAE@XZ 10054780 f   imgunit.obj
 0002:00052b00       ??1CVidScalerImgunit@@QAE@XZ 10054b00 f   imgunit.obj
 0002:00052b40       ?MergeZoom@CVidScalerImgunit@@QAEHPAEHHH0HHHW4TPicZoomStyle@@@Z 10054b40 f   imgunit.obj
 0002:000530a0       ??0CKdvVideoOut@@QAE@XZ    100550a0 f   kdvvideoout.obj
 0002:00053200       ??_ECKdvVideoOut@@UAEPAXI@Z 10055200 f i kdvvideoout.obj
 0002:00053200       ??_GCKdvVideoOut@@UAEPAXI@Z 10055200 f i kdvvideoout.obj
 0002:00053260       ??1CKdvVideoOut@@UAE@XZ    10055260 f   kdvvideoout.obj
 0002:00053360       ?SetRatio@CKdvVideoOut@@QAEHPAUTEncoderRef@@PAUTEncoderStatus@@HHH@Z 10055360 f   kdvvideoout.obj
 0002:000536c0       ?SetRatio@CKdvVideoOut@@QAEHPAUTDecoderRef@@PAUTDecoderStatus@@HHH@Z 100556c0 f   kdvvideoout.obj
 0002:00053a20       ?DrawDec@CKdvVideoOut@@QAEHPAEH@Z 10055a20 f   kdvvideoout.obj
 0002:00053b00       ?DrawEnc@CKdvVideoOut@@QAEHPAEH@Z 10055b00 f   kdvvideoout.obj
 0002:00053be0       ?ClearWindow@CKdvVideoOut@@QAEHXZ 10055be0 f   kdvvideoout.obj
 0002:00053d10       ?SetPlayHwnd@CKdvVideoOut@@QAEHPAUHWND__@@H@Z 10055d10 f   kdvvideoout.obj
 0002:00053da0       ?SetDrawCallBack@CKdvVideoOut@@QAEHP6AXPAUHDC__@@I@ZI@Z 10055da0 f   kdvvideoout.obj
 0002:00053e80       ?SetVidZoomPolicy@CKdvVideoOut@@QAEXW4TPicZoomStyle@@@Z 10055e80 f   kdvvideoout.obj
 0002:00053ee0       ?SocketThreadProc@@YAXPAUtagFrameHdr@@I@Z 10055ee0 f   viddecoderwrapper.obj
 0002:00054140       ?SetWaitKeyFrame@CVidDecWrapper@@QAEXXZ 10056140 f i viddecoderwrapper.obj
 0002:000541a0       ?SetOnlyKeyFrame@CVidDecWrapper@@QAEXH@Z 100561a0 f   viddecoderwrapper.obj
 0002:00054230       ?InitVidDecWrapper@CVidDecWrapper@@QAEGXZ 10056230 f   viddecoderwrapper.obj
 0002:00054510       ?RealTaskProcess@CVidDecWrapper@@UAEXI@Z 10056510 f   viddecoderwrapper.obj
 0002:00055060       ?GetStreamState@CAsfRecoder@@QAEGAAH0@Z 10057060 f i viddecoderwrapper.obj
 0002:000550b0       ?SetData@CVidDecWrapper@@QAEXPAUtagVidDataStream@@@Z 100570b0 f   viddecoderwrapper.obj
 0002:000552f0       ?SetPlayWnd@CVidDecWrapper@@QAEXPAXH@Z 100572f0 f   viddecoderwrapper.obj
 0002:00055350       ??1CVidDecWrapper@@UAE@XZ  10057350 f   viddecoderwrapper.obj
 0002:00055430       ??_ECVidDecWrapper@@UAEPAXI@Z 10057430 f i viddecoderwrapper.obj
 0002:00055430       ??_GCVidDecWrapper@@UAEPAXI@Z 10057430 f i viddecoderwrapper.obj
 0002:00055490       ??0CVidDecWrapper@@QAE@PAUTDecoderRef@@PAUTDecoderStatus@@@Z 10057490 f   viddecoderwrapper.obj
 0002:00055720       ??0CRecordPakge@@QAE@XZ    10057720 f i viddecoderwrapper.obj
 0002:000557b0       ?DestroyWrap@CVidDecWrapper@@QAEXXZ 100577b0 f   viddecoderwrapper.obj
 0002:00055950       ?StartDec@CVidDecWrapper@@QAEXH@Z 10057950 f   viddecoderwrapper.obj
 0002:00055a10       ?DecodeJudge@CVidDecWrapper@@IAEHPAUtagVidDataStream@@@Z 10057a10 f   viddecoderwrapper.obj
 0002:00055b00       ?SetVideoDecI420CallBack@CVidDecWrapper@@QAEHP6AXPAEHFFI@ZI@Z 10057b00 f   viddecoderwrapper.obj
 0002:00055b80       ?SetDrawCallBack@CVidDecWrapper@@QAEHP6AXPAUHDC__@@I@ZI@Z 10057b80 f   viddecoderwrapper.obj
 0002:00055be0       ?SetVideoActivePT@CVidDecWrapper@@QAEHEE@Z 10057be0 f   viddecoderwrapper.obj
 0002:00055c70       ?SetVideoActivePT@CVidDecWrapper@@QAEHUtagMapSet@@@Z 10057c70 f   viddecoderwrapper.obj
 0002:00055d30       ?SetDecryptKey@CVidDecWrapper@@QAEHPADGE@Z 10057d30 f   viddecoderwrapper.obj
 0002:00055de0       ?StartRcvVideo@CVidDecWrapper@@QAEHXZ 10057de0 f   viddecoderwrapper.obj
 0002:00055e80       ?StopRcvVideo@CVidDecWrapper@@QAEHXZ 10057e80 f   viddecoderwrapper.obj
 0002:00055f80       ?SetNetFeedbackVideoParam@CVidDecWrapper@@QAEHH@Z 10057f80 f   viddecoderwrapper.obj
 0002:00056000       ?SetVideoRcvAddress@CVidDecWrapper@@QAEHPBUtagMnetNetParam@@@Z 10058000 f   viddecoderwrapper.obj
 0002:00056230       ?ResetBwe@CVidDecWrapper@@QAEHH@Z 10058230 f   viddecoderwrapper.obj
 0002:000562c0       ?SetMaxDelay@CVidDecWrapper@@QAEHEII@Z 100582c0 f   viddecoderwrapper.obj
 0002:00056350       ?SetVideoRcvId@CVidDecWrapper@@QAEHPBDII@Z 10058350 f   viddecoderwrapper.obj
 0002:000563e0       ?GetVideoRcvId@CVidDecWrapper@@QAEHPADPAI1@Z 100583e0 f   viddecoderwrapper.obj
 0002:00056470       ?VideoRcvEnableKeepAlive@CVidDecWrapper@@QAEHHPBUtagMnetNetParam@@@Z 10058470 f   viddecoderwrapper.obj
 0002:00056510       ?SetVideoRtcpStatus@CVidDecWrapper@@QAEHW4RTCPSTATUS@@@Z 10058510 f   viddecoderwrapper.obj
 0002:00056590       ?ClearWindow@CVidDecWrapper@@QAEGXZ 10058590 f   viddecoderwrapper.obj
 0002:000565f0       ?SaveAsPic@CVidDecWrapper@@QAEGPB_WE@Z 100585f0 f   viddecoderwrapper.obj
 0002:000566e0       ?GetVidDecoderStatis@CVidDecWrapper@@QAEGAAUKdvDecStatis@@@Z 100586e0 f   viddecoderwrapper.obj
 0002:00056b40       ?PrintStatis@CVidDecWrapper@@QAEXXZ 10058b40 f   viddecoderwrapper.obj
 0002:00056d40       ?GetPakgeCount@CRecordPakge@@QAEIXZ 10058d40 f i viddecoderwrapper.obj
 0002:00056d70       ?PrintStatus@CVidDecWrapper@@QAEXXZ 10058d70 f   viddecoderwrapper.obj
 0002:00056f30       ?SetVidFecEnable@CVidDecWrapper@@QAEHH@Z 10058f30 f   viddecoderwrapper.obj
 0002:00056fe0       ?SetVidDecoderVidZoomPolicy@CVidDecWrapper@@QAEXW4enZoomMode@@@Z 10058fe0 f   viddecoderwrapper.obj
 0002:00057080       ?SetEnableCrypt@CVidDecWrapper@@QAEHHPATTMnetCryptCfg@@@Z 10059080 f   viddecoderwrapper.obj
 0002:00057110       ?SetMnetCryptCfgInit@CVidDecWrapper@@QAEHPATTMnetCryptCfg@@H@Z 10059110 f   viddecoderwrapper.obj
 0002:00057170       ?SetMnetCryptCfgSetCipherAlgorithm@CVidDecWrapper@@QAEHPATTMnetCryptCfg@@W4TMnetCryptDataType@@W4TMnetCryptAlgoType@@@Z 10059170 f   viddecoderwrapper.obj
 0002:000571d0       ?SetMnetCryptCfgSetAuthAlgorithm@CVidDecWrapper@@QAEHPATTMnetCryptCfg@@W4TMnetCryptDataType@@W4TMnetCryptAlgoType@@@Z 100591d0 f   viddecoderwrapper.obj
 0002:00057230       ?SetMnetCryptCfgSetMasterKey@CVidDecWrapper@@QAEHPATTMnetCryptCfg@@W4TMnetCryptDataType@@W4TMnetCryptKeyType@@GPAEW4TMnetCrypKeyLen@@4@Z 10059230 f   viddecoderwrapper.obj
 0002:000572a0       ?SetMnetCryptCfgSetCipherKey@CVidDecWrapper@@QAEHPATTMnetCryptCfg@@W4TMnetCryptDataType@@GPAE@Z 100592a0 f   viddecoderwrapper.obj
 0002:00057300       ?SetMnetCryptCfgSetAuthKey@CVidDecWrapper@@QAEHPATTMnetCryptCfg@@W4TMnetCryptDataType@@GPAE@Z 10059300 f   viddecoderwrapper.obj
 0002:00057360       ?SetMnetCryptCfgSetPkt@CVidDecWrapper@@QAEHPATTMnetCryptCfg@@W4TMnetCryptDataType@@W4TMnetCryptPktType@@@Z 10059360 f   viddecoderwrapper.obj
 0002:000573c0       ?SetMnetCryptCfgSetAuthTag@CVidDecWrapper@@QAEHPATTMnetCryptCfg@@W4TMnetCryptDataType@@W4TMnetCryptTagLen@@@Z 100593c0 f   viddecoderwrapper.obj
 0002:00057420       ??_ECVidDecWrapper@@WBA@AEPAXI@Z 10059420 f i viddecoderwrapper.obj
 0002:00057430       ?DequeData@CDataListExt@@QAEPAXH@Z 10059430 f   videncoderwrapper.obj
 0002:00057500       ?QueFreeData@CDataListExt@@QAEXPAX@Z 10059500 f   videncoderwrapper.obj
 0002:00057580       ?DeQueFullData@CDataListExt@@QAEPAXXZ 10059580 f   videncoderwrapper.obj
 0002:00057610       ?QueFullData@CDataListExt@@QAEXPAX@Z 10059610 f   videncoderwrapper.obj
 0002:00057690       ??0CVidEncWrapper@@QAE@PAUTEncoderRef@@PAUTEncoderStatus@@@Z 10059690 f   videncoderwrapper.obj
 0002:000579d0       ??0CDataListExt@@QAE@XZ    100599d0 f i videncoderwrapper.obj
 0002:00057ab0       ??1CDataListExt@@UAE@XZ    10059ab0 f i videncoderwrapper.obj
 0002:00057b60       ??_GCDataListExt@@UAEPAXI@Z 10059b60 f i videncoderwrapper.obj
 0002:00057b60       ??_ECDataListExt@@UAEPAXI@Z 10059b60 f i videncoderwrapper.obj
 0002:00057bc0       ??_GCVidEncWrapper@@UAEPAXI@Z 10059bc0 f i videncoderwrapper.obj
 0002:00057bc0       ??_ECVidEncWrapper@@UAEPAXI@Z 10059bc0 f i videncoderwrapper.obj
 0002:00057c20       ??1CVidEncWrapper@@UAE@XZ  10059c20 f   videncoderwrapper.obj
 0002:00057d20       ?InitVidEncWrapper@CVidEncWrapper@@QAEGW4em_VidCap_type@@@Z 10059d20 f   videncoderwrapper.obj
 0002:00058040       ?DestroyWrap@CVidEncWrapper@@QAEGXZ 1005a040 f   videncoderwrapper.obj
 0002:00058370       ?RealTaskProcess@CVidEncWrapper@@UAEXI@Z 1005a370 f   videncoderwrapper.obj
 0002:00058c80       ?RecvCapData@CVidEncWrapper@@UAEGPAUtagVidDataRaw@@@Z 1005ac80 f   videncoderwrapper.obj
 0002:000590f0       ?ProcessCapDataToI420@CVidEncWrapper@@IAEGPAUtagVidDataRaw@@0@Z 1005b0f0 f   videncoderwrapper.obj
 0002:000593c0       ?InitMjpegDecoder@CVidEncWrapper@@IAEHII@Z 1005b3c0 f   videncoderwrapper.obj
 0002:00059ad0       ?SetPlayWnd@CVidEncWrapper@@QAEXPAX@Z 1005bad0 f   videncoderwrapper.obj
 0002:00059b30       ?StartEnc@CVidEncWrapper@@QAEXH@Z 1005bb30 f   videncoderwrapper.obj
 0002:00059b70       ?StartCap@CVidEncWrapper@@QAEGH@Z 1005bb70 f   videncoderwrapper.obj
 0002:00059c60       ?CreateNetSnd@CVidEncWrapper@@QAEHEI@Z 1005bc60 f   videncoderwrapper.obj
 0002:0005a160       ?SetNetSndBand@CVidEncWrapper@@QAEHI@Z 1005c160 f   videncoderwrapper.obj
 0002:0005a250       ?SetNetFeedbackVideoParam@CVidEncWrapper@@QAEHGH@Z 1005c250 f   videncoderwrapper.obj
 0002:0005a310       ?SetNetSndVideoParam@CVidEncWrapper@@QAEHPBUtagMnetNetParam@@H@Z 1005c310 f   videncoderwrapper.obj
 0002:0005a630       ?SetVideoSendId@CVidEncWrapper@@QAEHPBDII@Z 1005c630 f   videncoderwrapper.obj
 0002:0005a6e0       ?GetVideoSendId@CVidEncWrapper@@QAEHPADPAI1@Z 1005c6e0 f   videncoderwrapper.obj
 0002:0005a790       ?VideoSendEnableKeepAlive@CVidEncWrapper@@QAEHHPBUtagMnetNetParam@@@Z 1005c790 f   videncoderwrapper.obj
 0002:0005a850       ?VideoEnableRtpExStrip@CVidEncWrapper@@QAEHH@Z 1005c850 f   videncoderwrapper.obj
 0002:0005a900       ?SetVideoRtcpStatus@CVidEncWrapper@@QAEHW4RTCPSTATUS@@@Z 1005c900 f   videncoderwrapper.obj
 0002:0005a9b0       ?SetVideoActivePT@CVidEncWrapper@@QAEGEE@Z 1005c9b0 f   videncoderwrapper.obj
 0002:0005aa70       ?SetVidEncryptKey@CVidEncWrapper@@QAEHPADGE@Z 1005ca70 f   videncoderwrapper.obj
 0002:0005ab30       ?SetVidFecEnable@CVidEncWrapper@@QAEHH@Z 1005cb30 f   videncoderwrapper.obj
 0002:0005abe0       ?SetVidFecPackLen@CVidEncWrapper@@QAEHG@Z 1005cbe0 f   videncoderwrapper.obj
 0002:0005ac20       ?SetVidFecIntraFrame@CVidEncWrapper@@QAEHH@Z 1005cc20 f   videncoderwrapper.obj
 0002:0005ac60       ?SetVidFecMode@CVidEncWrapper@@QAEHE@Z 1005cc60 f   videncoderwrapper.obj
 0002:0005aca0       ?SetVidFecXY@CVidEncWrapper@@QAEHHH@Z 1005cca0 f   videncoderwrapper.obj
 0002:0005ace0       ?StartSendVideo@CVidEncWrapper@@QAEHI@Z 1005cce0 f   videncoderwrapper.obj
 0002:0005adf0       ?StopSendVideo@CVidEncWrapper@@QAEHXZ 1005cdf0 f   videncoderwrapper.obj
 0002:0005ae40       ?SetVideoEncParam@CVidEncWrapper@@UAEGAAUVideoEncParam@@@Z 1005ce40 f   videncoderwrapper.obj
 0002:0005af80       ?FilterImage@CVidEncWrapper@@IAEPAEPAEII@Z 1005cf80 f   videncoderwrapper.obj
 0002:0005b580       ?SetStatic@CVidEncWrapper@@QAEGHHPA_WH@Z 1005d580 f   videncoderwrapper.obj
 0002:0005b660       ?SaveAsPic@CVidEncWrapper@@QAEGPB_WE@Z 1005d660 f   videncoderwrapper.obj
 0002:0005b740       ?GetBweStatus@CVidEncWrapper@@QAEHPAIPAUTBweReceiver@@0@Z 1005d740 f   videncoderwrapper.obj
 0002:0005b810       ?ResetBwe@CVidEncWrapper@@QAEHHIII@Z 1005d810 f   videncoderwrapper.obj
 0002:0005b8d0       ?PrintStatis@CVidEncWrapper@@QAEXXZ 1005d8d0 f   videncoderwrapper.obj
 0002:0005b9d0       ?PrintStatus@CVidEncWrapper@@QAEXXZ 1005d9d0 f   videncoderwrapper.obj
 0002:0005bd70       ?FrameAdjust@CVidEncWrapper@@IAEHII@Z 1005dd70 f   videncoderwrapper.obj
 0002:0005bf40       ?SetVidCapEncZoomPolicy@CVidEncWrapper@@QAEGW4enZoomMode@@@Z 1005df40 f   videncoderwrapper.obj
 0002:0005bfc0       ?SetVidCapEncZoomPolicy@CKdvVidEncCodec@@QAEXW4TPicZoomStyle@@@Z 1005dfc0 f i videncoderwrapper.obj
 0002:0005c000       ?SetEnableCrypt@CVidEncWrapper@@QAEHHPATTMnetCryptCfg@@@Z 1005e000 f   videncoderwrapper.obj
 0002:0005c090       ?SetMnetCryptCfgInit@CVidEncWrapper@@QAEHPATTMnetCryptCfg@@H@Z 1005e090 f   videncoderwrapper.obj
 0002:0005c0f0       ?SetMnetCryptCfgSetCipherAlgorithm@CVidEncWrapper@@QAEHPATTMnetCryptCfg@@W4TMnetCryptDataType@@W4TMnetCryptAlgoType@@@Z 1005e0f0 f   videncoderwrapper.obj
 0002:0005c150       ?SetMnetCryptCfgSetAuthAlgorithm@CVidEncWrapper@@QAEHPATTMnetCryptCfg@@W4TMnetCryptDataType@@W4TMnetCryptAlgoType@@@Z 1005e150 f   videncoderwrapper.obj
 0002:0005c1b0       ?SetMnetCryptCfgSetMasterKey@CVidEncWrapper@@QAEHPATTMnetCryptCfg@@W4TMnetCryptDataType@@W4TMnetCryptKeyType@@GPAEW4TMnetCrypKeyLen@@4@Z 1005e1b0 f   videncoderwrapper.obj
 0002:0005c220       ?SetMnetCryptCfgSetCipherKey@CVidEncWrapper@@QAEHPATTMnetCryptCfg@@W4TMnetCryptDataType@@GPAE@Z 1005e220 f   videncoderwrapper.obj
 0002:0005c280       ?SetMnetCryptCfgSetAuthKey@CVidEncWrapper@@QAEHPATTMnetCryptCfg@@W4TMnetCryptDataType@@GPAE@Z 1005e280 f   videncoderwrapper.obj
 0002:0005c2e0       ?SetMnetCryptCfgSetPkt@CVidEncWrapper@@QAEHPATTMnetCryptCfg@@W4TMnetCryptDataType@@W4TMnetCryptPktType@@@Z 1005e2e0 f   videncoderwrapper.obj
 0002:0005c340       ?SetMnetCryptCfgSetAuthTag@CVidEncWrapper@@QAEHPATTMnetCryptCfg@@W4TMnetCryptDataType@@W4TMnetCryptTagLen@@@Z 1005e340 f   videncoderwrapper.obj
 0002:0005c3a0       ?GetVidTransportOverhead@CVidEncWrapper@@QAEGPAE@Z 1005e3a0 f   videncoderwrapper.obj
 0002:0005c420       ?GetVidSndStatus@CVidEncWrapper@@QAEGAAUtagKdvSndStatus@@@Z 1005e420 f   videncoderwrapper.obj
 0002:0005c4a0       ?EnableSingleSlice@CVidEncWrapper@@QAEHH@Z 1005e4a0 f   videncoderwrapper.obj
 0002:0005c4f0       ?GetSingleSliceStatus@CVidEncWrapper@@QAEXAAH@Z 1005e4f0 f   videncoderwrapper.obj
 0002:0005c530       ?GetVidCapParam@CVidEncWrapper@@QAEXAAI0@Z 1005e530 f   videncoderwrapper.obj
 0002:0005c580       ?SetVideoCapStdCallBack@CVidEncWrapper@@QAEGP6AXIII@ZI@Z 1005e580 f   videncoderwrapper.obj
 0002:0005c5f0       ?SetCapYuvDetcetCB@CVidEncWrapper@@QAEGP6AXHI@ZI@Z 1005e5f0 f   videncoderwrapper.obj
 0002:0005c640       ?GetCapYuvDetectStatus@CVidEncWrapper@@QAEGPAEIIAAH@Z 1005e640 f   videncoderwrapper.obj
 0002:0005c710       ??_ECVidEncWrapper@@WLBM@AEPAXI@Z 1005e710 f i videncoderwrapper.obj
 0002:0005c720       ??_ECVidEncWrapper@@WKKA@AEPAXI@Z 1005e720 f i videncoderwrapper.obj
 0002:0005c730       ??0CVidCapCom@@QAE@XZ      1005e730 f   videocap.obj
 0002:0005c860       ?RecvCapData@CVidCapCom@@UAEGPAUtagVidDataRaw@@@Z 1005e860 f i videocap.obj
 0002:0005c890       ??_ECVidCapCom@@UAEPAXI@Z  1005e890 f i videocap.obj
 0002:0005c890       ??_GCVidCapCom@@UAEPAXI@Z  1005e890 f i videocap.obj
 0002:0005c8f0       ??1CVidCapCom@@UAE@XZ      1005e8f0 f   videocap.obj
 0002:0005c980       ?InitCapType@CVidCapCom@@QAEGW4em_VidCap_type@@@Z 1005e980 f   videocap.obj
 0002:0005ca00       ?DestCap@CVidCapCom@@QAEIXZ 1005ea00 f   videocap.obj
 0002:0005cb90       ?SetDeskDrawHwnd@CVidCapCom@@QAEGPAUHWND__@@@Z 1005eb90 f   videocap.obj
 0002:0005cbe0       ?SelectSource@CVidCapCom@@QAEGPB_W0PAUVideoCaptureCapability@@@Z 1005ebe0 f   videocap.obj
 0002:0005d070       ?GetCurVidCapDev@CVidCapCom@@QAEGAAUtagVidCapNameInfo@@@Z 1005f070 f   videocap.obj
 0002:0005d0d0       ?CameraStart@CVidCapCom@@QAEGH@Z 1005f0d0 f   videocap.obj
 0002:0005d190       ?CaptureDesktop@CVidCapCom@@QAEHXZ 1005f190 f   videocap.obj
 0002:0005e0b0       ?IsMainVidDecoder@@YAHPAVCVidDecWrapper@@@Z 100600b0 f   videocommand.obj
 0002:0005e110       _RegisVidEncoder           10060110 f   videocommand.obj
 0002:0005e160       _UnRegisVidEncoder         10060160 f   videocommand.obj
 0002:0005e250       _RegisVidDecoder           10060250 f   videocommand.obj
 0002:0005e2a0       _UnRegisVidDecoder         100602a0 f   videocommand.obj
 0002:0005e390       _codechelp                 10060390 f   videocommand.obj
 0002:0005e840       _cpustatus                 10060840 f   videocommand.obj
 0002:0005e900       _setconfigpath             10060900 f   videocommand.obj
 0002:0005e9c0       _createviddecwrapper       100609c0 f   videocommand.obj
 0002:0005eac0       _destoryviddecwrapper      10060ac0 f   videocommand.obj
 0002:0005ebd0       _startviddec               10060bd0 f   videocommand.obj
 0002:0005ec50       _savevdec                  10060c50 f   videocommand.obj
 0002:0005eda0       _setvdecplaywnd            10060da0 f   videocommand.obj
 0002:0005ee20       _clearwnd                  10060e20 f   videocommand.obj
 0002:0005eea0       _waitkeyframe              10060ea0 f   videocommand.obj
 0002:0005ef20       _setonlykeyframe           10060f20 f   videocommand.obj
 0002:0005efa0       _vdecsnapshot              10060fa0 f   videocommand.obj
 0002:0005f120       ?swprintf@@YAHPA_WPB_WZZ   10061120 f i videocommand.obj
 0002:0005f190       _setvidrecvparam           10061190 f   videocommand.obj
 0002:0005f6b0       _setvidrecvpayload         100616b0 f   videocommand.obj
 0002:0005f730       _startvidrecv              10061730 f   videocommand.obj
 0002:0005f7c0       _vdecstatis                100617c0 f   videocommand.obj
 0002:0005f840       _vdecstatus                10061840 f   videocommand.obj
 0002:0005f8c0       _setviddecpt               100618c0 f   videocommand.obj
 0002:0005f940       _createvidencwrapper       10061940 f   videocommand.obj
 0002:0005fa40       _destoryvidencwrapper      10061a40 f   videocommand.obj
 0002:0005fb40       _setencplaywnd             10061b40 f   videocommand.obj
 0002:0005fbd0       _setvidsndbwe              10061bd0 f   videocommand.obj
 0002:0005fca0       _setdrawhwd                10061ca0 f   videocommand.obj
 0002:0005fd20       _setencsize                10061d20 f   videocommand.obj
 0002:0005fe40       ?GetVideoEncParam@CKdvVidEncCodec@@QAEXAAUVideoEncParam@@@Z 10061e40 f i videocommand.obj
 0002:0005fe90       _setencframerate           10061e90 f   videocommand.obj
 0002:0005ffa0       _setencbitrate             10061fa0 f   videocommand.obj
 0002:000600c0       _setencmaxkeyinterval      100620c0 f   videocommand.obj
 0002:000601d0       _setencqp                  100621d0 f   videocommand.obj
 0002:000602e0       _setenclevel               100622e0 f   videocommand.obj
 0002:000603f0       _addlogo                   100623f0 f   videocommand.obj
 0002:00060580       _setvenctype               10062580 f   videocommand.obj
 0002:00060690       _setdefaultparam           10062690 f   videocommand.obj
 0002:000609d0       _startvidenc               100629d0 f   videocommand.obj
 0002:00060a50       _setencpt                  10062a50 f   videocommand.obj
 0002:00060ad0       _startvidcap               10062ad0 f   videocommand.obj
 0002:00060b50       _selectcam                 10062b50 f   videocommand.obj
 0002:00060d50       _getdefaultcampa           10062d50 f   videocommand.obj
 0002:00060eb0       _getcurcampa               10062eb0 f   videocommand.obj
 0002:00060fc0       _setcurcampa               10062fc0 f   videocommand.obj
 0002:00061090       _enclogon                  10063090 f   videocommand.obj
 0002:000610c0       _declogon                  100630c0 f   videocommand.obj
 0002:000610f0       _savevenc                  100630f0 f   videocommand.obj
 0002:00061230       _setvidsendparam           10063230 f   videocommand.obj
 0002:00061770       _startvidsend              10063770 f   videocommand.obj
 0002:00061800       _setstaticbmp              10063800 f   videocommand.obj
 0002:00061890       _vencsnapshot              10063890 f   videocommand.obj
 0002:00061a10       _vencstatus                10063a10 f   videocommand.obj
 0002:00061a90       _vencstatis                10063a90 f   videocommand.obj
 0002:00061b10       _deskcapstatus             10063b10 f   videocommand.obj
 0002:00061c00       _fastupdate                10063c00 f   videocommand.obj
 0002:00061c80       _setprewnd                 10063c80 f   videocommand.obj
 0002:00061d00       _startresnd                10063d00 f   videocommand.obj
 0002:00061d80       _setcapzoommode            10063d80 f   videocommand.obj
 0002:00061e00       _enablesingleslice         10063e00 f   videocommand.obj
 0002:00061e80       _getsingleslicestatus      10063e80 f   videocommand.obj
 0002:00061f50       _setprt                    10063f50 f   videocommand.obj
 0002:00061f90       _initmediasdk              10063f90 f   videocommand.obj
 0002:00062000       _initgloble                10064000 f   videocommand.obj
 0002:00062060       _unitglobe                 10064060 f   videocommand.obj
 0002:000620b0       _printallcameras           100640b0 f   videocommand.obj
 0002:000622e0       _getcurviddevice           100642e0 f   videocommand.obj
 0002:000624d0       _setvidencfecenable        100644d0 f   videocommand.obj
 0002:00062570       _setviddecfecenable        10064570 f   videocommand.obj
 0002:00062610       _setVidDecZoomPolicy       10064610 f   videocommand.obj
 0002:000626a0       _getnetpercent             100646a0 f   videocommand.obj
 0002:00062770       _getnetstatus              10064770 f   videocommand.obj
 0002:00062880       ?VideoDeviceChangeTestFunc@@YAXIABV?$vector@UTDevNameInfo@@V?$allocator@UTDevNameInfo@@@std@@@std@@0@Z 10064880 f   videocommand.obj
 0002:00062ae0       ?AudioDeviceChangeTestFunc@@YAXIABV?$vector@UTDevNameInfo@@V?$allocator@UTDevNameInfo@@@std@@@std@@0@Z 10064ae0 f   videocommand.obj
 0002:00062d40       ?InitVideoDriverInst@@YAXXZ 10064d40 f   videocommand.obj
 0002:00062e90       ?DeInitVideoDriverInst@@YAXXZ 10064e90 f   videocommand.obj
 0002:00062f90       _DllMain@12                10064f90 f   videocommand.obj
 0002:00063060       ?MediaSDKInitial@@YAGXZ    10065060 f   videocommand.obj
 0002:000630d0       ?begin@?$vector@PAVCVidEncWrapper@@V?$allocator@PAVCVidEncWrapper@@@std@@@std@@QAE?AV?$_Vector_iterator@V?$_Vector_val@PAVCVidEncWrapper@@V?$allocator@PAVCVidEncWrapper@@@std@@@std@@@2@XZ 100650d0 f i videocommand.obj
 0002:00063120       ?end@?$vector@PAVCVidEncWrapper@@V?$allocator@PAVCVidEncWrapper@@@std@@@std@@QAE?AV?$_Vector_iterator@V?$_Vector_val@PAVCVidEncWrapper@@V?$allocator@PAVCVidEncWrapper@@@std@@@std@@@2@XZ 10065120 f i videocommand.obj
 0002:00063170       ?size@?$vector@PAVCVidEncWrapper@@V?$allocator@PAVCVidEncWrapper@@@std@@@std@@QBEIXZ 10065170 f i videocommand.obj
 0002:000631b0       ??A?$vector@PAVCVidEncWrapper@@V?$allocator@PAVCVidEncWrapper@@@std@@@std@@QAEAAPAVCVidEncWrapper@@I@Z 100651b0 f i videocommand.obj
 0002:000631f0       ?push_back@?$vector@PAVCVidEncWrapper@@V?$allocator@PAVCVidEncWrapper@@@std@@@std@@QAEXABQAVCVidEncWrapper@@@Z 100651f0 f i videocommand.obj
 0002:00063320       ?erase@?$vector@PAVCVidEncWrapper@@V?$allocator@PAVCVidEncWrapper@@@std@@@std@@QAE?AV?$_Vector_iterator@V?$_Vector_val@PAVCVidEncWrapper@@V?$allocator@PAVCVidEncWrapper@@@std@@@std@@@2@V?$_Vector_const_iterator@V?$_Vector_val@PAVCVidEncWrapper@@V?$allocator@PAVCVidEncWrapper@@@std@@@std@@@2@@Z 10065320 f i videocommand.obj
 0002:000633b0       ?begin@?$vector@PAVCVidDecWrapper@@V?$allocator@PAVCVidDecWrapper@@@std@@@std@@QAE?AV?$_Vector_iterator@V?$_Vector_val@PAVCVidDecWrapper@@V?$allocator@PAVCVidDecWrapper@@@std@@@std@@@2@XZ 100653b0 f i videocommand.obj
 0002:00063400       ?end@?$vector@PAVCVidDecWrapper@@V?$allocator@PAVCVidDecWrapper@@@std@@@std@@QAE?AV?$_Vector_iterator@V?$_Vector_val@PAVCVidDecWrapper@@V?$allocator@PAVCVidDecWrapper@@@std@@@std@@@2@XZ 10065400 f i videocommand.obj
 0002:00063450       ?size@?$vector@PAVCVidDecWrapper@@V?$allocator@PAVCVidDecWrapper@@@std@@@std@@QBEIXZ 10065450 f i videocommand.obj
 0002:00063490       ??A?$vector@PAVCVidDecWrapper@@V?$allocator@PAVCVidDecWrapper@@@std@@@std@@QAEAAPAVCVidDecWrapper@@I@Z 10065490 f i videocommand.obj
 0002:000634d0       ?push_back@?$vector@PAVCVidDecWrapper@@V?$allocator@PAVCVidDecWrapper@@@std@@@std@@QAEXABQAVCVidDecWrapper@@@Z 100654d0 f i videocommand.obj
 0002:00063600       ?erase@?$vector@PAVCVidDecWrapper@@V?$allocator@PAVCVidDecWrapper@@@std@@@std@@QAE?AV?$_Vector_iterator@V?$_Vector_val@PAVCVidDecWrapper@@V?$allocator@PAVCVidDecWrapper@@@std@@@std@@@2@V?$_Vector_const_iterator@V?$_Vector_val@PAVCVidDecWrapper@@V?$allocator@PAVCVidDecWrapper@@@std@@@std@@@2@@Z 10065600 f i videocommand.obj
 0002:00063690       ??0?$_Vector_iterator@V?$_Vector_val@PAVCVidEncWrapper@@V?$allocator@PAVCVidEncWrapper@@@std@@@std@@@std@@QAE@XZ 10065690 f i videocommand.obj
 0002:000636e0       ??D?$_Vector_iterator@V?$_Vector_val@PAVCVidEncWrapper@@V?$allocator@PAVCVidEncWrapper@@@std@@@std@@@std@@QBEAAPAVCVidEncWrapper@@XZ 100656e0 f i videocommand.obj
 0002:00063720       ??E?$_Vector_iterator@V?$_Vector_val@PAVCVidEncWrapper@@V?$allocator@PAVCVidEncWrapper@@@std@@@std@@@std@@QAE?AV01@H@Z 10065720 f i videocommand.obj
 0002:000637b0       ??9?$_Vector_const_iterator@V?$_Vector_val@PAVCVidEncWrapper@@V?$allocator@PAVCVidEncWrapper@@@std@@@std@@@std@@QBE_NABV01@@Z 100657b0 f i videocommand.obj
 0002:00063800       ??0?$_Vector_iterator@V?$_Vector_val@PAVCVidDecWrapper@@V?$allocator@PAVCVidDecWrapper@@@std@@@std@@@std@@QAE@XZ 10065800 f i videocommand.obj
 0002:00063850       ??D?$_Vector_iterator@V?$_Vector_val@PAVCVidDecWrapper@@V?$allocator@PAVCVidDecWrapper@@@std@@@std@@@std@@QBEAAPAVCVidDecWrapper@@XZ 10065850 f i videocommand.obj
 0002:00063890       ??E?$_Vector_iterator@V?$_Vector_val@PAVCVidDecWrapper@@V?$allocator@PAVCVidDecWrapper@@@std@@@std@@@std@@QAE?AV01@H@Z 10065890 f i videocommand.obj
 0002:00063920       ??9?$_Vector_const_iterator@V?$_Vector_val@PAVCVidDecWrapper@@V?$allocator@PAVCVidDecWrapper@@@std@@@std@@@std@@QBE_NABV01@@Z 10065920 f i videocommand.obj
 0002:00063970       ??A?$vector@UTDevNameInfo@@V?$allocator@UTDevNameInfo@@@std@@@std@@QBEABUTDevNameInfo@@I@Z 10065970 f i videocommand.obj
 0002:000639b0       ?_Make_iter@?$vector@PAVCVidEncWrapper@@V?$allocator@PAVCVidEncWrapper@@@std@@@std@@QBE?AV?$_Vector_iterator@V?$_Vector_val@PAVCVidEncWrapper@@V?$allocator@PAVCVidEncWrapper@@@std@@@std@@@2@V?$_Vector_const_iterator@V?$_Vector_val@PAVCVidEncWrapper@@V?$allocator@PAVCVidEncWrapper@@@std@@@std@@@2@@Z 100659b0 f i videocommand.obj
 0002:00063a00       ?_Destroy@?$vector@PAVCVidEncWrapper@@V?$allocator@PAVCVidEncWrapper@@@std@@@std@@IAEXPAPAVCVidEncWrapper@@0@Z 10065a00 f i videocommand.obj
 0002:00063a50       ?_Inside@?$vector@PAVCVidEncWrapper@@V?$allocator@PAVCVidEncWrapper@@@std@@@std@@IBE_NPBQAVCVidEncWrapper@@@Z 10065a50 f i videocommand.obj
 0002:00063ab0       ?_Reserve@?$vector@PAVCVidEncWrapper@@V?$allocator@PAVCVidEncWrapper@@@std@@@std@@IAEXI@Z 10065ab0 f i videocommand.obj
 0002:00063b40       ?_Orphan_range@?$vector@PAVCVidEncWrapper@@V?$allocator@PAVCVidEncWrapper@@@std@@@std@@IBEXPAPAVCVidEncWrapper@@0@Z 10065b40 f i videocommand.obj
 0002:00063b70       ?_Make_iter@?$vector@PAVCVidDecWrapper@@V?$allocator@PAVCVidDecWrapper@@@std@@@std@@QBE?AV?$_Vector_iterator@V?$_Vector_val@PAVCVidDecWrapper@@V?$allocator@PAVCVidDecWrapper@@@std@@@std@@@2@V?$_Vector_const_iterator@V?$_Vector_val@PAVCVidDecWrapper@@V?$allocator@PAVCVidDecWrapper@@@std@@@std@@@2@@Z 10065b70 f i videocommand.obj
 0002:00063bc0       ?_Destroy@?$vector@PAVCVidDecWrapper@@V?$allocator@PAVCVidDecWrapper@@@std@@@std@@IAEXPAPAVCVidDecWrapper@@0@Z 10065bc0 f i videocommand.obj
 0002:00063c10       ?_Inside@?$vector@PAVCVidDecWrapper@@V?$allocator@PAVCVidDecWrapper@@@std@@@std@@IBE_NPBQAVCVidDecWrapper@@@Z 10065c10 f i videocommand.obj
 0002:00063c70       ?_Reserve@?$vector@PAVCVidDecWrapper@@V?$allocator@PAVCVidDecWrapper@@@std@@@std@@IAEXI@Z 10065c70 f i videocommand.obj
 0002:00063d00       ?_Orphan_range@?$vector@PAVCVidDecWrapper@@V?$allocator@PAVCVidDecWrapper@@@std@@@std@@IBEXPAPAVCVidDecWrapper@@0@Z 10065d00 f i videocommand.obj
 0002:00063d30       ??0?$_Vector_iterator@V?$_Vector_val@PAVCVidEncWrapper@@V?$allocator@PAVCVidEncWrapper@@@std@@@std@@@std@@QAE@PAPAVCVidEncWrapper@@PBU_Container_base0@1@@Z 10065d30 f i videocommand.obj
 0002:00063d80       ??E?$_Vector_iterator@V?$_Vector_val@PAVCVidEncWrapper@@V?$allocator@PAVCVidEncWrapper@@@std@@@std@@@std@@QAEAAV01@XZ 10065d80 f i videocommand.obj
 0002:00063dd0       ??0?$_Vector_const_iterator@V?$_Vector_val@PAVCVidEncWrapper@@V?$allocator@PAVCVidEncWrapper@@@std@@@std@@@std@@QAE@XZ 10065dd0 f i videocommand.obj
 0002:00063e10       ??D?$_Vector_const_iterator@V?$_Vector_val@PAVCVidEncWrapper@@V?$allocator@PAVCVidEncWrapper@@@std@@@std@@@std@@QBEABQAVCVidEncWrapper@@XZ 10065e10 f i videocommand.obj
 0002:00063e50       ??8?$_Vector_const_iterator@V?$_Vector_val@PAVCVidEncWrapper@@V?$allocator@PAVCVidEncWrapper@@@std@@@std@@@std@@QBE_NABV01@@Z 10065e50 f i videocommand.obj
 0002:00063eb0       ??0?$_Vector_iterator@V?$_Vector_val@PAVCVidDecWrapper@@V?$allocator@PAVCVidDecWrapper@@@std@@@std@@@std@@QAE@PAPAVCVidDecWrapper@@PBU_Container_base0@1@@Z 10065eb0 f i videocommand.obj
 0002:00063f00       ??E?$_Vector_iterator@V?$_Vector_val@PAVCVidDecWrapper@@V?$allocator@PAVCVidDecWrapper@@@std@@@std@@@std@@QAEAAV01@XZ 10065f00 f i videocommand.obj
 0002:00063f50       ??0?$_Vector_const_iterator@V?$_Vector_val@PAVCVidDecWrapper@@V?$allocator@PAVCVidDecWrapper@@@std@@@std@@@std@@QAE@XZ 10065f50 f i videocommand.obj
 0002:00063f90       ??D?$_Vector_const_iterator@V?$_Vector_val@PAVCVidDecWrapper@@V?$allocator@PAVCVidDecWrapper@@@std@@@std@@@std@@QBEABQAVCVidDecWrapper@@XZ 10065f90 f i videocommand.obj
 0002:00063fd0       ??8?$_Vector_const_iterator@V?$_Vector_val@PAVCVidDecWrapper@@V?$allocator@PAVCVidDecWrapper@@@std@@@std@@@std@@QBE_NABV01@@Z 10065fd0 f i videocommand.obj
 0002:00064030       ?reserve@?$vector@PAVCVidEncWrapper@@V?$allocator@PAVCVidEncWrapper@@@std@@@std@@QAEXI@Z 10066030 f i videocommand.obj
 0002:000641b0       ?capacity@?$vector@PAVCVidEncWrapper@@V?$allocator@PAVCVidEncWrapper@@@std@@@std@@QBEIXZ 100661b0 f i videocommand.obj
 0002:000641f0       ?max_size@?$vector@PAVCVidEncWrapper@@V?$allocator@PAVCVidEncWrapper@@@std@@@std@@QBEIXZ 100661f0 f i videocommand.obj
 0002:00064240       ?_Grow_to@?$vector@PAVCVidEncWrapper@@V?$allocator@PAVCVidEncWrapper@@@std@@@std@@IBEII@Z 10066240 f i videocommand.obj
 0002:000642d0       ?_Xlen@?$vector@PAVCVidEncWrapper@@V?$allocator@PAVCVidEncWrapper@@@std@@@std@@IBEXXZ 100662d0 f i videocommand.obj
 0002:00064320       ?deallocate@?$allocator@PAVCVidEncWrapper@@@std@@QAEXPAPAVCVidEncWrapper@@I@Z 10066320 f i videocommand.obj
 0002:00064370       ?reserve@?$vector@PAVCVidDecWrapper@@V?$allocator@PAVCVidDecWrapper@@@std@@@std@@QAEXI@Z 10066370 f i videocommand.obj
 0002:000644f0       ?capacity@?$vector@PAVCVidDecWrapper@@V?$allocator@PAVCVidDecWrapper@@@std@@@std@@QBEIXZ 100664f0 f i videocommand.obj
 0002:00064530       ?max_size@?$vector@PAVCVidDecWrapper@@V?$allocator@PAVCVidDecWrapper@@@std@@@std@@QBEIXZ 10066530 f i videocommand.obj
 0002:00064580       ?_Grow_to@?$vector@PAVCVidDecWrapper@@V?$allocator@PAVCVidDecWrapper@@@std@@@std@@IBEII@Z 10066580 f i videocommand.obj
 0002:00064610       ?_Xlen@?$vector@PAVCVidDecWrapper@@V?$allocator@PAVCVidDecWrapper@@@std@@@std@@IBEXXZ 10066610 f i videocommand.obj
 0002:00064660       ?deallocate@?$allocator@PAVCVidDecWrapper@@@std@@QAEXPAPAVCVidDecWrapper@@I@Z 10066660 f i videocommand.obj
 0002:000646b0       ??0?$_Vector_const_iterator@V?$_Vector_val@PAVCVidEncWrapper@@V?$allocator@PAVCVidEncWrapper@@@std@@@std@@@std@@QAE@PAPAVCVidEncWrapper@@PBU_Container_base0@1@@Z 100666b0 f i videocommand.obj
 0002:00064700       ??E?$_Vector_const_iterator@V?$_Vector_val@PAVCVidEncWrapper@@V?$allocator@PAVCVidEncWrapper@@@std@@@std@@@std@@QAEAAV01@XZ 10066700 f i videocommand.obj
 0002:00064740       ?_Compat@?$_Vector_const_iterator@V?$_Vector_val@PAVCVidEncWrapper@@V?$allocator@PAVCVidEncWrapper@@@std@@@std@@@std@@QBEXABV12@@Z 10066740 f i videocommand.obj
 0002:00064770       ??0?$_Vector_const_iterator@V?$_Vector_val@PAVCVidDecWrapper@@V?$allocator@PAVCVidDecWrapper@@@std@@@std@@@std@@QAE@PAPAVCVidDecWrapper@@PBU_Container_base0@1@@Z 10066770 f i videocommand.obj
 0002:000647c0       ??E?$_Vector_const_iterator@V?$_Vector_val@PAVCVidDecWrapper@@V?$allocator@PAVCVidDecWrapper@@@std@@@std@@@std@@QAEAAV01@XZ 100667c0 f i videocommand.obj
 0002:00064800       ?_Compat@?$_Vector_const_iterator@V?$_Vector_val@PAVCVidDecWrapper@@V?$allocator@PAVCVidDecWrapper@@@std@@@std@@@std@@QBEXABV12@@Z 10066800 f i videocommand.obj
 0002:00064830       ?allocate@?$allocator@PAVCVidEncWrapper@@@std@@QAEPAPAVCVidEncWrapper@@I@Z 10066830 f i videocommand.obj
 0002:00064880       ?max_size@?$allocator@PAVCVidEncWrapper@@@std@@QBEIXZ 10066880 f i videocommand.obj
 0002:000648e0       ?allocate@?$allocator@PAVCVidDecWrapper@@@std@@QAEPAPAVCVidDecWrapper@@I@Z 100668e0 f i videocommand.obj
 0002:00064930       ?max_size@?$allocator@PAVCVidDecWrapper@@@std@@QBEIXZ 10066930 f i videocommand.obj
 0002:00064990       ??$addressof@QAVCVidEncWrapper@@@std@@YAPBQAVCVidEncWrapper@@ABQAV1@@Z 10066990 f i videocommand.obj
 0002:000649c0       ??$_Cons_val@V?$allocator@PAVCVidEncWrapper@@@std@@PAVCVidEncWrapper@@AAPAV3@@std@@YAXAAV?$allocator@PAVCVidEncWrapper@@@0@PAPAVCVidEncWrapper@@AAPAV2@@Z 100669c0 f i videocommand.obj
 0002:00064a10       ??$_Cons_val@V?$allocator@PAVCVidEncWrapper@@@std@@PAVCVidEncWrapper@@ABQAV3@@std@@YAXAAV?$allocator@PAVCVidEncWrapper@@@0@PAPAVCVidEncWrapper@@ABQAV2@@Z 10066a10 f i videocommand.obj
 0002:00064a60       ??$_Move@PAPAVCVidEncWrapper@@PAPAV1@@std@@YAPAPAVCVidEncWrapper@@PAPAV1@00@Z 10066a60 f i videocommand.obj
 0002:00064ad0       ??$addressof@QAVCVidDecWrapper@@@std@@YAPBQAVCVidDecWrapper@@ABQAV1@@Z 10066ad0 f i videocommand.obj
 0002:00064b00       ??$_Cons_val@V?$allocator@PAVCVidDecWrapper@@@std@@PAVCVidDecWrapper@@AAPAV3@@std@@YAXAAV?$allocator@PAVCVidDecWrapper@@@0@PAPAVCVidDecWrapper@@AAPAV2@@Z 10066b00 f i videocommand.obj
 0002:00064b50       ??$_Cons_val@V?$allocator@PAVCVidDecWrapper@@@std@@PAVCVidDecWrapper@@ABQAV3@@std@@YAXAAV?$allocator@PAVCVidDecWrapper@@@0@PAPAVCVidDecWrapper@@ABQAV2@@Z 10066b50 f i videocommand.obj
 0002:00064ba0       ??$_Move@PAPAVCVidDecWrapper@@PAPAV1@@std@@YAPAPAVCVidDecWrapper@@PAPAV1@00@Z 10066ba0 f i videocommand.obj
 0002:00064c10       ??$_Destroy_range@V?$allocator@PAVCVidEncWrapper@@@std@@@std@@YAXPAPAVCVidEncWrapper@@0AAV?$allocator@PAVCVidEncWrapper@@@0@@Z 10066c10 f i videocommand.obj
 0002:00064c80       ??$_Destroy_range@V?$allocator@PAVCVidDecWrapper@@@std@@@std@@YAXPAPAVCVidDecWrapper@@0AAV?$allocator@PAVCVidDecWrapper@@@0@@Z 10066c80 f i videocommand.obj
 0002:00064cf0       ??$_Umove@PAPAVCVidEncWrapper@@@?$vector@PAVCVidEncWrapper@@V?$allocator@PAVCVidEncWrapper@@@std@@@std@@IAEPAPAVCVidEncWrapper@@PAPAV2@00@Z 10066cf0 f i videocommand.obj
 0002:00064d50       ??$_Umove@PAPAVCVidDecWrapper@@@?$vector@PAVCVidDecWrapper@@V?$allocator@PAVCVidDecWrapper@@@std@@@std@@IAEPAPAVCVidDecWrapper@@PAPAV2@00@Z 10066d50 f i videocommand.obj
 0002:00064db0       ??$_Allocate@PAVCVidEncWrapper@@@std@@YAPAPAVCVidEncWrapper@@IPAPAV1@@Z 10066db0 f i videocommand.obj
 0002:00064e40       ??$_Allocate@PAVCVidDecWrapper@@@std@@YAPAPAVCVidDecWrapper@@IPAPAV1@@Z 10066e40 f i videocommand.obj
 0002:00064ed0       ?construct@?$allocator@PAVCVidEncWrapper@@@std@@QAEXPAPAVCVidEncWrapper@@ABQAV3@@Z 10066ed0 f i videocommand.obj
 0002:00064f20       ?construct@?$allocator@PAVCVidDecWrapper@@@std@@QAEXPAPAVCVidDecWrapper@@ABQAV3@@Z 10066f20 f i videocommand.obj
 0002:00064f70       ??$forward@AAPAVCVidEncWrapper@@@std@@YAAAPAVCVidEncWrapper@@AAPAV1@@Z 10066f70 f i videocommand.obj
 0002:00064fa0       ??$construct@AAPAVCVidEncWrapper@@@?$allocator@PAVCVidEncWrapper@@@std@@QAEXPAPAVCVidEncWrapper@@AAPAV2@@Z 10066fa0 f i videocommand.obj
 0002:00065070       ??$forward@ABQAVCVidEncWrapper@@@std@@YAABQAVCVidEncWrapper@@ABQAV1@@Z 10067070 f i videocommand.obj
 0002:000650a0       ??$_Ptr_cat@PAVCVidEncWrapper@@PAV1@@std@@YA?AU_Scalar_ptr_iterator_tag@0@PAPAVCVidEncWrapper@@0@Z 100670a0 f i videocommand.obj
 0002:00065100       ??$_Move@PAPAVCVidEncWrapper@@PAPAV1@@std@@YAPAPAVCVidEncWrapper@@PAPAV1@00U_Scalar_ptr_iterator_tag@0@@Z 10067100 f i videocommand.obj
 0002:00065170       ??$forward@AAPAVCVidDecWrapper@@@std@@YAAAPAVCVidDecWrapper@@AAPAV1@@Z 10067170 f i videocommand.obj
 0002:000651a0       ??$construct@AAPAVCVidDecWrapper@@@?$allocator@PAVCVidDecWrapper@@@std@@QAEXPAPAVCVidDecWrapper@@AAPAV2@@Z 100671a0 f i videocommand.obj
 0002:00065270       ??$forward@ABQAVCVidDecWrapper@@@std@@YAABQAVCVidDecWrapper@@ABQAV1@@Z 10067270 f i videocommand.obj
 0002:000652a0       ??$_Ptr_cat@PAVCVidDecWrapper@@PAV1@@std@@YA?AU_Scalar_ptr_iterator_tag@0@PAPAVCVidDecWrapper@@0@Z 100672a0 f i videocommand.obj
 0002:00065300       ??$_Move@PAPAVCVidDecWrapper@@PAPAV1@@std@@YAPAPAVCVidDecWrapper@@PAPAV1@00U_Scalar_ptr_iterator_tag@0@@Z 10067300 f i videocommand.obj
 0002:00065370       ??$_Destroy_range@V?$allocator@PAVCVidEncWrapper@@@std@@@std@@YAXPAPAVCVidEncWrapper@@0AAV?$allocator@PAVCVidEncWrapper@@@0@U_Scalar_ptr_iterator_tag@0@@Z 10067370 f i videocommand.obj
 0002:000653a0       ??$_Destroy_range@V?$allocator@PAVCVidDecWrapper@@@std@@@std@@YAXPAPAVCVidDecWrapper@@0AAV?$allocator@PAVCVidDecWrapper@@@0@U_Scalar_ptr_iterator_tag@0@@Z 100673a0 f i videocommand.obj
 0002:000653d0       ??$_Uninitialized_move@PAPAVCVidEncWrapper@@PAPAV1@V?$allocator@PAVCVidEncWrapper@@@std@@@std@@YAPAPAVCVidEncWrapper@@PAPAV1@00AAV?$allocator@PAVCVidEncWrapper@@@0@@Z 100673d0 f i videocommand.obj
 0002:00065450       ??$_Uninitialized_move@PAPAVCVidDecWrapper@@PAPAV1@V?$allocator@PAVCVidDecWrapper@@@std@@@std@@YAPAPAVCVidDecWrapper@@PAPAV1@00AAV?$allocator@PAVCVidDecWrapper@@@0@@Z 10067450 f i videocommand.obj
 0002:000654d0       ??$_Construct@PAVCVidEncWrapper@@ABQAV1@@std@@YAXPAPAVCVidEncWrapper@@ABQAV1@@Z 100674d0 f i videocommand.obj
 0002:000655a0       ??$_Construct@PAVCVidDecWrapper@@ABQAV1@@std@@YAXPAPAVCVidDecWrapper@@ABQAV1@@Z 100675a0 f i videocommand.obj
 0002:00065670       ??$_Val_type@PAPAVCVidEncWrapper@@@std@@YAPAPAVCVidEncWrapper@@PAPAV1@@Z 10067670 f i videocommand.obj
 0002:000656a0       ??$_Uninit_move@PAVCVidEncWrapper@@PAV1@PAV1@@std@@YAPAPAVCVidEncWrapper@@PAPAV1@00AAV?$allocator@PAVCVidEncWrapper@@@0@0U_Scalar_ptr_iterator_tag@0@@Z 100676a0 f i videocommand.obj
 0002:00065710       ??$_Val_type@PAPAVCVidDecWrapper@@@std@@YAPAPAVCVidDecWrapper@@PAPAV1@@Z 10067710 f i videocommand.obj
 0002:00065740       ??$_Uninit_move@PAVCVidDecWrapper@@PAV1@PAV1@@std@@YAPAPAVCVidDecWrapper@@PAPAV1@00AAV?$allocator@PAVCVidDecWrapper@@@0@0U_Scalar_ptr_iterator_tag@0@@Z 10067740 f i videocommand.obj
 0002:000657b0       ??0?$vector@PAVCVidEncWrapper@@V?$allocator@PAVCVidEncWrapper@@@std@@@std@@QAE@XZ 100677b0 f i videocommand.obj
 0002:00065800       ??0?$_Vector_val@PAVCVidEncWrapper@@V?$allocator@PAVCVidEncWrapper@@@std@@@std@@QAE@V?$allocator@PAVCVidEncWrapper@@@1@@Z 10067800 f i videocommand.obj
 0002:00065870       ??0?$allocator@PAVCVidEncWrapper@@@std@@QAE@XZ 10067870 f i videocommand.obj
 0002:000658a0       ??0?$allocator@PAVCVidEncWrapper@@@std@@QAE@ABV01@@Z 100678a0 f i videocommand.obj
 0002:000658d0       ??0?$vector@PAVCVidDecWrapper@@V?$allocator@PAVCVidDecWrapper@@@std@@@std@@QAE@XZ 100678d0 f i videocommand.obj
 0002:00065920       ??0?$_Vector_val@PAVCVidDecWrapper@@V?$allocator@PAVCVidDecWrapper@@@std@@@std@@QAE@V?$allocator@PAVCVidDecWrapper@@@1@@Z 10067920 f i videocommand.obj
 0002:00065990       ??0?$allocator@PAVCVidDecWrapper@@@std@@QAE@XZ 10067990 f i videocommand.obj
 0002:000659c0       ??0?$allocator@PAVCVidDecWrapper@@@std@@QAE@ABV01@@Z 100679c0 f i videocommand.obj
 0002:000659f0       ??1?$vector@PAVCVidEncWrapper@@V?$allocator@PAVCVidEncWrapper@@@std@@@std@@QAE@XZ 100679f0 f i videocommand.obj
 0002:00065a70       ?_Tidy@?$vector@PAVCVidEncWrapper@@V?$allocator@PAVCVidEncWrapper@@@std@@@std@@IAEXXZ 10067a70 f i videocommand.obj
 0002:00065b20       ??1?$_Vector_val@PAVCVidEncWrapper@@V?$allocator@PAVCVidEncWrapper@@@std@@@std@@QAE@XZ 10067b20 f i videocommand.obj
 0002:00065b50       ??1?$vector@PAVCVidDecWrapper@@V?$allocator@PAVCVidDecWrapper@@@std@@@std@@QAE@XZ 10067b50 f i videocommand.obj
 0002:00065bd0       ?_Tidy@?$vector@PAVCVidDecWrapper@@V?$allocator@PAVCVidDecWrapper@@@std@@@std@@IAEXXZ 10067bd0 f i videocommand.obj
 0002:00065c80       ??1?$_Vector_val@PAVCVidDecWrapper@@V?$allocator@PAVCVidDecWrapper@@@std@@@std@@QAE@XZ 10067c80 f i videocommand.obj
 0002:00065cb0       ?BmpHeight@@YAIPAE@Z       10067cb0 f   videocommon.obj
 0002:00065d10       ?BmpWidth@@YAIPAE@Z        10067d10 f   videocommon.obj
 0002:00065d70       ?BmpBitCount@@YAIPAE@Z     10067d70 f   videocommon.obj
 0002:00065dc0       ?ReInitRawYuvData@@YAGPAUtagVidDataRaw@@I@Z 10067dc0 f   videocommon.obj
 0002:00065e80       ?ReleaseYuvRaw@@YAGPAUtagVidDataRaw@@@Z 10067e80 f   videocommon.obj
 0002:00065ee0       ?yuyv2yuv@@YAXPAE0II@Z     10067ee0 f   videocommon.obj
 0002:00065fd0       ?LoadRawDataFromFile@@YAGAAUtagVidDataRaw@@PA_W@Z 10067fd0 f   videocommon.obj
 0002:00066210       ?SaveRawDataToFile@@YAGPAUtagVidDataRaw@@PA_WE@Z 10068210 f   videocommon.obj
 0002:00066700       ??0CKdvVidDecCodec@@QAE@XZ 10068700 f   videodec.obj
 0002:00066860       ??_ECKdvVidDecCodec@@UAEPAXI@Z 10068860 f i videodec.obj
 0002:00066860       ??_GCKdvVidDecCodec@@UAEPAXI@Z 10068860 f i videodec.obj
 0002:000668c0       ??1CKdvVidDecCodec@@UAE@XZ 100688c0 f   videodec.obj
 0002:00066a10       ?Convert@CKdvVidDecCodec@@QAEHPAEHPAPAEAAHHH@Z 10068a10 f   videodec.obj
 0002:00066cb0       ?SetRatio@CKdvVidDecCodec@@QAEHPAUTDecoderRef@@PAUTDecoderStatus@@HHHAAHH@Z 10068cb0 f   videodec.obj
 0002:00067410       ?SaveDecData@CKdvVidDecCodec@@QAEHPBDI@Z 10069410 f   videodec.obj
 0002:00067560       ?CalcStatis@CKdvVidDecCodec@@QAEXXZ 10069560 f   videodec.obj
 0002:000676b0       ?InitRMP4Encoder@CKdvVidEncCodec@@IAEHABUVideoEncParam@@@Z 100696b0 f   videoenc.obj
 0002:00067810       ?InitH261Encoder@CKdvVidEncCodec@@IAEHABUVideoEncParam@@@Z 10069810 f   videoenc.obj
 0002:00067930       ?InitH263Encoder@CKdvVidEncCodec@@IAEHABUVideoEncParam@@@Z 10069930 f   videoenc.obj
 0002:00067a30       ?InitH264Encoder@CKdvVidEncCodec@@IAEHABUVideoEncParam@@@Z 10069a30 f   videoenc.obj
 0002:00067e80       ?InitRMP2Encoder@CKdvVidEncCodec@@IAEHABUVideoEncParam@@@Z 10069e80 f   videoenc.obj
 0002:00067f80       ?InitH265Encoder@CKdvVidEncCodec@@IAEHABUVideoEncParam@@@Z 10069f80 f   videoenc.obj
 0002:00068390       ?InitSoftEncoder@CKdvVidEncCodec@@IAEHABUVideoEncParam@@@Z 1006a390 f   videoenc.obj
 0002:00068900       ?ResizeAndEncode@CKdvVidEncCodec@@QAEGAAUtagEncInputStruct@@AAUtagEncOutputStruct@@@Z 1006a900 f   videoenc.obj
 0002:00069470       ?SetVideoEncParam@CKdvVidEncCodec@@UAEGAAUVideoEncParam@@@Z 1006b470 f   videoenc.obj
 0002:00069700       ??0CKdvVidEncCodec@@QAE@XZ 1006b700 f   videoenc.obj
 0002:000699f0       ??_GCKdvVidEncCodec@@UAEPAXI@Z 1006b9f0 f i videoenc.obj
 0002:000699f0       ??_ECKdvVidEncCodec@@UAEPAXI@Z 1006b9f0 f i videoenc.obj
 0002:00069a50       ??1CKdvVidEncCodec@@UAE@XZ 1006ba50 f   videoenc.obj
 0002:00069b60       ?InitCodec@CKdvVidEncCodec@@QAEXPAUTEncoderRef@@PAUTEncoderStatus@@@Z 1006bb60 f   videoenc.obj
 0002:00069cc0       ?DestroyCodec@CKdvVidEncCodec@@QAEXXZ 1006bcc0 f   videoenc.obj
 0002:00069dd0       ?SizeChanged@CKdvVidEncCodec@@IAEHII@Z 1006bdd0 f   videoenc.obj
 0002:00069e50       ?SaveEncData@CKdvVidEncCodec@@QAEXPBDI@Z 1006be50 f   videoenc.obj
 0002:00069fa0       ?CalcStatis@CKdvVidEncCodec@@QAEXXZ 1006bfa0 f   videoenc.obj
 0002:0006a100       ?DrawLogoI420@CKdvVidEncCodec@@QAEXPAEIIW4em_Logo_Place@@@Z 1006c100 f   videoenc.obj
 0002:0006a550       ?BmpLogoSetting@CKdvVidEncCodec@@QAEXPAUTFullLogoParam@@@Z 1006c550 f   videoenc.obj
 0002:0006a920       ?StartBmpLogo@CKdvVidEncCodec@@QAEHIIAAUtagLogoInfo@@@Z 1006c920 f   videoenc.obj
 0002:0006b1d0       ?SetFastUpdate@CKdvVidEncCodec@@QAEXXZ 1006d1d0 f   videoenc.obj
 0002:0006b210       ?InitX264Encoder@CKdvVidEncCodec@@IAEHABUVideoEncParam@@@Z 1006d210 f   videoenc.obj
 0002:0006b400       ?BmpNeedSizeChange@CKdvVidEncCodec@@QAEHPAUtagScaleParam@@IPAE@Z 1006d400 f   videoenc.obj
 0002:0006ba50       ?IsEnableSingleSlice@CKdvVidEncCodec@@QAEXH@Z 1006da50 f   videoenc.obj
 0002:0006ba90       ?SetMediaSdkConfigPath@@YAGPA_W@Z 1006da90 f   videointerfaceimp.obj
 0002:0006bb50       ??0CKdvEncoder@@QAE@XZ     1006db50 f   videointerfaceimp.obj
 0002:0006bc10       ??1CKdvEncoder@@UAE@XZ     1006dc10 f   videointerfaceimp.obj
 0002:0006bcc0       ?GetEncoderStatus@CKdvEncoder@@QAEGAAUKdvEncStatus@@@Z 1006dcc0 f   videointerfaceimp.obj
 0002:0006bd30       ?GetEncoderStatis@CKdvEncoder@@QAEGAAUKdvEncStatis@@@Z 1006dd30 f   videointerfaceimp.obj
 0002:0006bda0       ?GetVidCapParam@CKdvEncoder@@QAEGAAI0@Z 1006dda0 f   videointerfaceimp.obj
 0002:0006be00       ?SetVideoCapStdCB@CKdvEncoder@@QAEGP6AXIII@ZI@Z 1006de00 f   videointerfaceimp.obj
 0002:0006be60       ?SetCapYuvDetectCB@CKdvEncoder@@QAEGP6AXHI@ZI@Z 1006de60 f   videointerfaceimp.obj
 0002:0006bec0       ?InitialVideoEncoder@CKdvEncoder@@QAEGABUtagInitVidEncoder@@@Z 1006dec0 f   videointerfaceimp.obj
 0002:0006c000       ?SetPreviewHwnd@CKdvEncoder@@QAEGPAUHWND__@@@Z 1006e000 f   videointerfaceimp.obj
 0002:0006c0f0       ?SetDeskDrawHwnd@CKdvEncoder@@QAEGPAUHWND__@@@Z 1006e0f0 f   videointerfaceimp.obj
 0002:0006c150       ?DestroyVideoEncoder@CKdvEncoder@@IAEXXZ 1006e150 f   videointerfaceimp.obj
 0002:0006c1f0       ?RefreshVidCapDevList@CKdvEncoder@@QAEXAAV?$vector@UTDevNameInfo@@V?$allocator@UTDevNameInfo@@@std@@@std@@AAI@Z 1006e1f0 f   videointerfaceimp.obj
 0002:0006c3f0       ?GetCurVidCapDev@CKdvEncoder@@QAEGAAUTDevNameInfo@@@Z 1006e3f0 f   videointerfaceimp.obj
 0002:0006c560       ?SelectVideoSource@CKdvEncoder@@QAEGPBUVideoCapParam@@PB_W1@Z 1006e560 f   videointerfaceimp.obj
 0002:0006c6c0       ?ChangeCameraParam@CKdvEncoder@@QAEGEIH@Z 1006e6c0 f   videointerfaceimp.obj
 0002:0006c730       ?GetCameraParam@CKdvEncoder@@QAEGEAAIAAH@Z 1006e730 f   videointerfaceimp.obj
 0002:0006c7a0       ?GetDefaultCameraParam@CKdvEncoder@@QAEGEAAI000@Z 1006e7a0 f   videointerfaceimp.obj
 0002:0006c810       ?SetVideoIcon@CKdvEncoder@@QAEGH@Z 1006e810 f   videointerfaceimp.obj
 0002:0006c850       ?SaveAsPic@CKdvEncoder@@QAEGPB_WE@Z 1006e850 f   videointerfaceimp.obj
 0002:0006c8b0       ?ShowPreview@CKdvEncoder@@QAEGH@Z 1006e8b0 f   videointerfaceimp.obj
 0002:0006c8f0       ?StartVideoCap@CKdvEncoder@@QAEGXZ 1006e8f0 f   videointerfaceimp.obj
 0002:0006c950       ?StopVideoCap@CKdvEncoder@@QAEGXZ 1006e950 f   videointerfaceimp.obj
 0002:0006c9b0       ?SetVideoEncParam@CKdvEncoder@@QAEGPBUVideoEncParam@@@Z 1006e9b0 f   videointerfaceimp.obj
 0002:0006caa0       ?SetVidCapToEncZoomPolicy@CKdvEncoder@@QAEGW4enZoomMode@@@Z 1006eaa0 f   videointerfaceimp.obj
 0002:0006cb00       ?GetVideoEncParam@CKdvEncoder@@QAEGAAUVideoEncParam@@@Z 1006eb00 f   videointerfaceimp.obj
 0002:0006cb60       ?StartVideoEnc@CKdvEncoder@@QAEGXZ 1006eb60 f   videointerfaceimp.obj
 0002:0006cbc0       ?StopVideoEnc@CKdvEncoder@@QAEGXZ 1006ebc0 f   videointerfaceimp.obj
 0002:0006cc20       ?SetNetSndVideoParam@CKdvEncoder@@QAEGPBUtagMnetNetParam@@@Z 1006ec20 f   videointerfaceimp.obj
 0002:0006cc80       ?SetVideoSendId@CKdvEncoder@@QAEGPBDII@Z 1006ec80 f   videointerfaceimp.obj
 0002:0006ccf0       ?GetVideoSendId@CKdvEncoder@@QAEGPADPAI1@Z 1006ecf0 f   videointerfaceimp.obj
 0002:0006cd60       ?VideoSendEnableKeepAlive@CKdvEncoder@@QAEGHPBUtagMnetNetParam@@@Z 1006ed60 f   videointerfaceimp.obj
 0002:0006cdd0       ?VideoEnableRtpExStrip@CKdvEncoder@@QAEGH@Z 1006edd0 f   videointerfaceimp.obj
 0002:0006ce40       ?SetVideoRtcpStatus@CKdvEncoder@@QAEGW4RTCPSTATUS@@@Z 1006ee40 f   videointerfaceimp.obj
 0002:0006ceb0       ?ResetBwe@CKdvEncoder@@QAEGHIII@Z 1006eeb0 f   videointerfaceimp.obj
 0002:0006cf30       ?GetBweStatus@CKdvEncoder@@QAEGPAIPAUTBweReceiver@@0@Z 1006ef30 f   videointerfaceimp.obj
 0002:0006cfa0       ?StartSendVideo@CKdvEncoder@@QAEGH@Z 1006efa0 f   videointerfaceimp.obj
 0002:0006d010       ?StopSendVideo@CKdvEncoder@@QAEGXZ 1006f010 f   videointerfaceimp.obj
 0002:0006d080       ?SetVidFecEnable@CKdvEncoder@@QAEGH@Z 1006f080 f   videointerfaceimp.obj
 0002:0006d0f0       ?SetVidFecPackLen@CKdvEncoder@@QAEGG@Z 1006f0f0 f   videointerfaceimp.obj
 0002:0006d160       ?SetVidFecIntraFrame@CKdvEncoder@@QAEGH@Z 1006f160 f   videointerfaceimp.obj
 0002:0006d1d0       ?SetVidFecMode@CKdvEncoder@@QAEGE@Z 1006f1d0 f   videointerfaceimp.obj
 0002:0006d240       ?SetVidFecXY@CKdvEncoder@@QAEGHH@Z 1006f240 f   videointerfaceimp.obj
 0002:0006d2b0       ?SetFastUpdate@CKdvEncoder@@QAEGH@Z 1006f2b0 f   videointerfaceimp.obj
 0002:0006d310       ?SetVidEncryptKey@CKdvEncoder@@QAEGPADGE@Z 1006f310 f   videointerfaceimp.obj
 0002:0006d390       ?SetVideoActivePT@CKdvEncoder@@QAEGEE@Z 1006f390 f   videointerfaceimp.obj
 0002:0006d3f0       ?SendStaticPicture@CKdvEncoder@@QAEGHPA_W@Z 1006f3f0 f   videointerfaceimp.obj
 0002:0006d460       ?SetVideoDeviceCheckCB@CKdvEncoder@@QAEGP6AXIABV?$vector@UTDevNameInfo@@V?$allocator@UTDevNameInfo@@@std@@@std@@0@ZI@Z 1006f460 f   videointerfaceimp.obj
 0002:0006d4c0       ?SetAddLogoIntoEncStream@CKdvEncoder@@QAEGPAUTFullLogoParam@@@Z 1006f4c0 f   videointerfaceimp.obj
 0002:0006d520       ?SetVidEnableCrypt@CKdvEncoder@@QAEGHPATTMnetCryptCfg@@@Z 1006f520 f   videointerfaceimp.obj
 0002:0006d590       ?SetVidMnetCryptCfgInit@CKdvEncoder@@QAEGPATTMnetCryptCfg@@H@Z 1006f590 f   videointerfaceimp.obj
 0002:0006d600       ?SetVidMnetCryptCfgSetCipherAlgorithm@CKdvEncoder@@QAEGPATTMnetCryptCfg@@W4TMnetCryptDataType@@W4TMnetCryptAlgoType@@@Z 1006f600 f   videointerfaceimp.obj
 0002:0006d670       ?SetVidMnetCryptCfgSetAuthAlgorithm@CKdvEncoder@@QAEGPATTMnetCryptCfg@@W4TMnetCryptDataType@@W4TMnetCryptAlgoType@@@Z 1006f670 f   videointerfaceimp.obj
 0002:0006d6e0       ?SetVidMnetCryptCfgSetMasterKey@CKdvEncoder@@QAEGPATTMnetCryptCfg@@W4TMnetCryptDataType@@W4TMnetCryptKeyType@@GPAEW4TMnetCrypKeyLen@@4@Z 1006f6e0 f   videointerfaceimp.obj
 0002:0006d760       ?SetVidMnetCryptCfgSetCipherKey@CKdvEncoder@@QAEGPATTMnetCryptCfg@@W4TMnetCryptDataType@@GPAE@Z 1006f760 f   videointerfaceimp.obj
 0002:0006d7e0       ?SetVidMnetCryptCfgSetAuthKey@CKdvEncoder@@QAEGPATTMnetCryptCfg@@W4TMnetCryptDataType@@GPAE@Z 1006f7e0 f   videointerfaceimp.obj
 0002:0006d860       ?SetVidMnetCryptCfgSetPkt@CKdvEncoder@@QAEGPATTMnetCryptCfg@@W4TMnetCryptDataType@@W4TMnetCryptPktType@@@Z 1006f860 f   videointerfaceimp.obj
 0002:0006d8d0       ?SetVidMnetCryptCfgSetAuthTag@CKdvEncoder@@QAEGPATTMnetCryptCfg@@W4TMnetCryptDataType@@W4TMnetCryptTagLen@@@Z 1006f8d0 f   videointerfaceimp.obj
 0002:0006d940       ?GetVidTransportOverhead@CKdvEncoder@@QAEGPAE@Z 1006f940 f   videointerfaceimp.obj
 0002:0006d9a0       ?EnableSingleSlice@CKdvEncoder@@QAEGH@Z 1006f9a0 f   videointerfaceimp.obj
 0002:0006da00       ??0CKdvDecoder@@QAE@XZ     1006fa00 f   videointerfaceimp.obj
 0002:0006dac0       ?DestroyVideoDecoder@CKdvDecoder@@IAEXXZ 1006fac0 f   videointerfaceimp.obj
 0002:0006db60       ??1CKdvDecoder@@UAE@XZ     1006fb60 f   videointerfaceimp.obj
 0002:0006dc10       ?InitialVideoDecoder@CKdvDecoder@@QAEGABUtagInitVidDecoder@@@Z 1006fc10 f   videointerfaceimp.obj
 0002:0006dd20       ?GetVidDecoderStatus@CKdvDecoder@@QAEGAAUKdvDecStatus@@@Z 1006fd20 f   videointerfaceimp.obj
 0002:0006dd90       ?GetVidDecoderStatis@CKdvDecoder@@QAEGAAUKdvDecStatis@@@Z 1006fd90 f   videointerfaceimp.obj
 0002:0006ddf0       ?StartVideoDec@CKdvDecoder@@QAEGXZ 1006fdf0 f   videointerfaceimp.obj
 0002:0006de50       ?StopVideoDec@CKdvDecoder@@QAEGXZ 1006fe50 f   videointerfaceimp.obj
 0002:0006deb0       ?StartRcvVideo@CKdvDecoder@@QAEGXZ 1006feb0 f   videointerfaceimp.obj
 0002:0006df10       ?StopRcvVideo@CKdvDecoder@@QAEGXZ 1006ff10 f   videointerfaceimp.obj
 0002:0006df70       ?SetVideoNetRcvParam@CKdvDecoder@@QAEGPBUtagMnetNetParam@@@Z 1006ff70 f   videointerfaceimp.obj
 0002:0006dfe0       ?SetNetFeedbackVideoParam@CKdvDecoder@@QAEGH@Z 1006ffe0 f   videointerfaceimp.obj
 0002:0006e050       ?SetVideoRcvId@CKdvDecoder@@QAEGPBDII@Z 10070050 f   videointerfaceimp.obj
 0002:0006e0c0       ?GetVideoRcvId@CKdvDecoder@@QAEGPADPAI1@Z 100700c0 f   videointerfaceimp.obj
 0002:0006e130       ?VideoRcvEnableKeepAlive@CKdvDecoder@@QAEGHPBUtagMnetNetParam@@@Z 10070130 f   videointerfaceimp.obj
 0002:0006e1a0       ?SetVideoRtcpStatus@CKdvDecoder@@QAEGW4RTCPSTATUS@@@Z 100701a0 f   videointerfaceimp.obj
 0002:0006e210       ?ResetBwe@CKdvDecoder@@QAEGH@Z 10070210 f   videointerfaceimp.obj
 0002:0006e280       ?SetMaxDelay@CKdvDecoder@@QAEGEII@Z 10070280 f   videointerfaceimp.obj
 0002:0006e2f0       ?ClearWindow@CKdvDecoder@@QAEGXZ 100702f0 f   videointerfaceimp.obj
 0002:0006e350       ?FreezeVideo@CKdvDecoder@@QAEGXZ 10070350 f   videointerfaceimp.obj
 0002:0006e3b0       ?UnFreezeVideo@CKdvDecoder@@QAEGXZ 100703b0 f   videointerfaceimp.obj
 0002:0006e410       ?SetVideoActivePT@CKdvDecoder@@QAEGEE@Z 10070410 f   videointerfaceimp.obj
 0002:0006e480       ?SetVideoActivePT@CKdvDecoder@@QAEGUtagMapSet@@@Z 10070480 f   videointerfaceimp.obj
 0002:0006e530       ?SetVidDecryptKey@CKdvDecoder@@QAEGPADGE@Z 10070530 f   videointerfaceimp.obj
 0002:0006e5b0       ?SetVideoDecI420CallBack@CKdvDecoder@@QAEGP6AXPAEHFFI@ZI@Z 100705b0 f   videointerfaceimp.obj
 0002:0006e610       ?SetDrawCallBack@CKdvDecoder@@QAEGP6AXPAUHDC__@@I@ZI@Z 10070610 f   videointerfaceimp.obj
 0002:0006e670       ?SetPlayHwnd@CKdvDecoder@@QAEGPAUHWND__@@H@Z 10070670 f   videointerfaceimp.obj
 0002:0006e760       ?SaveAsPic@CKdvDecoder@@QAEGPB_WE@Z 10070760 f   videointerfaceimp.obj
 0002:0006e7c0       ?SetOnlyKeyFrame@CKdvDecoder@@QAEGH@Z 100707c0 f   videointerfaceimp.obj
 0002:0006e820       ?SetNetFeedbackVideoParam@CKdvEncoder@@QAEGGH@Z 10070820 f   videointerfaceimp.obj
 0002:0006e890       ?GrabPic@CKdvEncoder@@QAEXPAUHWND__@@@Z 10070890 f   videointerfaceimp.obj
 0002:0006e8c0       ?SetVidDecDblSend@CKdvDecoder@@QAEGPBUtagMnetNetParam@@G@Z 100708c0 f   videointerfaceimp.obj
 0002:0006e8f0       ?GrabPic@CKdvDecoder@@QAEXPAUHWND__@@@Z 100708f0 f   videointerfaceimp.obj
 0002:0006e920       ?SetVidFecEnable@CKdvDecoder@@QAEGH@Z 10070920 f   videointerfaceimp.obj
 0002:0006e990       ?SetVidDecZoomPolicy@CKdvDecoder@@QAEGW4enZoomMode@@@Z 10070990 f   videointerfaceimp.obj
 0002:0006e9f0       ?SetVidEnableCrypt@CKdvDecoder@@QAEGHPATTMnetCryptCfg@@@Z 100709f0 f   videointerfaceimp.obj
 0002:0006ea60       ?SetVidMnetCryptCfgInit@CKdvDecoder@@QAEGPATTMnetCryptCfg@@H@Z 10070a60 f   videointerfaceimp.obj
 0002:0006ead0       ?SetVidMnetCryptCfgSetCipherAlgorithm@CKdvDecoder@@QAEGPATTMnetCryptCfg@@W4TMnetCryptDataType@@W4TMnetCryptAlgoType@@@Z 10070ad0 f   videointerfaceimp.obj
 0002:0006eb50       ?SetVidMnetCryptCfgSetAuthAlgorithm@CKdvDecoder@@QAEGPATTMnetCryptCfg@@W4TMnetCryptDataType@@W4TMnetCryptAlgoType@@@Z 10070b50 f   videointerfaceimp.obj
 0002:0006ebd0       ?SetVidMnetCryptCfgSetMasterKey@CKdvDecoder@@QAEGPATTMnetCryptCfg@@W4TMnetCryptDataType@@W4TMnetCryptKeyType@@GPAEW4TMnetCrypKeyLen@@4@Z 10070bd0 f   videointerfaceimp.obj
 0002:0006ec60       ?SetVidMnetCryptCfgSetCipherKey@CKdvDecoder@@QAEGPATTMnetCryptCfg@@W4TMnetCryptDataType@@GPAE@Z 10070c60 f   videointerfaceimp.obj
 0002:0006ece0       ?SetVidMnetCryptCfgSetAuthKey@CKdvDecoder@@QAEGPATTMnetCryptCfg@@W4TMnetCryptDataType@@GPAE@Z 10070ce0 f   videointerfaceimp.obj
 0002:0006ed60       ?SetVidMnetCryptCfgSetPkt@CKdvDecoder@@QAEGPATTMnetCryptCfg@@W4TMnetCryptDataType@@W4TMnetCryptPktType@@@Z 10070d60 f   videointerfaceimp.obj
 0002:0006ede0       ?SetVidMnetCryptCfgSetAuthTag@CKdvDecoder@@QAEGPATTMnetCryptCfg@@W4TMnetCryptDataType@@W4TMnetCryptTagLen@@@Z 10070de0 f   videointerfaceimp.obj
 0002:0006ee60       _CreateMemoryAllocator@4   10070e60 f   strmbase:amfilter.obj
 0002:0006ee80       _IsEqualGUID@8             10070e80 f i strmbase:amfilter.obj
 0002:0006ef00       ?NonDelegatingQueryInterface@CBaseFilter@@UAGJABU_GUID@@PAPAX@Z 10070f00 f   strmbase:amfilter.obj
 0002:0006efd0       ?GetState@CBaseFilter@@UAGJKPAW4_FilterState@@@Z 10070fd0 f   strmbase:amfilter.obj
 0002:0006f000       ?QueryFilterInfo@CBaseFilter@@UAGJPAU_FilterInfo@@@Z 10071000 f   strmbase:amfilter.obj
 0002:0006f060       ?QueryVendorInfo@CBaseFilter@@UAGJPAPA_W@Z 10071060 f   strmbase:amfilter.obj
 0002:0006f070       ?NotifyEvent@CBaseFilter@@QAEJJJJ@Z 10071070 f   strmbase:amfilter.obj
 0002:0006f0b0       ?GetPinVersion@CBaseFilter@@UAEJXZ 100710b0 f   strmbase:amfilter.obj
 0002:0006f0c0       ??1CAutoLock@@QAE@XZ       100710c0 f i strmbase:amfilter.obj
 0002:0006f0d0       ??1CUnknown@@UAE@XZ        100710d0 f i strmbase:amfilter.obj
 0002:0006f0e0       ??1?$CGenericList@VCBasePin@@@@QAE@XZ 100710e0 f i strmbase:amfilter.obj
 0002:0006f0f0       ??1CEnumPins@@UAE@XZ       100710f0 f   strmbase:amfilter.obj
 0002:0006f160       ?QueryInterface@CEnumPins@@UAGJABU_GUID@@PAPAX@Z 10071160 f   strmbase:amfilter.obj
 0002:0006f1c0       ?AddRef@CEnumPins@@UAGKXZ  100711c0 f   strmbase:amfilter.obj
 0002:0006f1e0       ?Release@CEnumPins@@UAGKXZ 100711e0 f   strmbase:amfilter.obj
 0002:0006f210       ?Reset@CEnumPins@@UAGJXZ   10071210 f   strmbase:amfilter.obj
 0002:0006f250       ?Refresh@CEnumPins@@AAGJXZ 10071250 f   strmbase:amfilter.obj
 0002:0006f280       ??1CEnumMediaTypes@@UAE@XZ 10071280 f   strmbase:amfilter.obj
 0002:0006f2a0       ?QueryInterface@CEnumMediaTypes@@UAGJABU_GUID@@PAPAX@Z 100712a0 f   strmbase:amfilter.obj
 0002:0006f300       ?AddRef@CEnumMediaTypes@@UAGKXZ 10071300 f   strmbase:amfilter.obj
 0002:0006f320       ?Release@CEnumMediaTypes@@UAGKXZ 10071320 f   strmbase:amfilter.obj
 0002:0006f350       ?Reset@CEnumMediaTypes@@UAGJXZ 10071350 f   strmbase:amfilter.obj
 0002:0006f380       ??1CBasePin@@UAE@XZ        10071380 f   strmbase:amfilter.obj
 0002:0006f3f0       ?NonDelegatingQueryInterface@CBasePin@@UAGJABU_GUID@@PAPAX@Z 100713f0 f   strmbase:amfilter.obj
 0002:0006f480       ?NonDelegatingAddRef@CBasePin@@UAGKXZ 10071480 f   strmbase:amfilter.obj
 0002:0006f4a0       ?NonDelegatingRelease@CBasePin@@UAGKXZ 100714a0 f   strmbase:amfilter.obj
 0002:0006f4c0       ?CompleteConnect@CBasePin@@UAEJPAUIPin@@@Z 100714c0 f   strmbase:amfilter.obj
 0002:0006f4d0       ?SetMediaType@CBasePin@@UAEJPBVCMediaType@@@Z 100714d0 f   strmbase:amfilter.obj
 0002:0006f4f0       ?CheckConnect@CBasePin@@UAEJPAUIPin@@@Z 100714f0 f   strmbase:amfilter.obj
 0002:0006f520       ?DisconnectInternal@CBasePin@@IAGJXZ 10071520 f   strmbase:amfilter.obj
 0002:0006f560       ?ConnectedTo@CBasePin@@UAGJPAPAUIPin@@@Z 10071560 f   strmbase:amfilter.obj
 0002:0006f5a0       ?QueryPinInfo@CBasePin@@UAGJPAU_PinInfo@@@Z 100715a0 f   strmbase:amfilter.obj
 0002:0006f620       ?QueryDirection@CBasePin@@UAGJPAW4_PinDirection@@@Z 10071620 f   strmbase:amfilter.obj
 0002:0006f650       ?QueryAccept@CBasePin@@UAGJPBU_AMMediaType@@@Z 10071650 f   strmbase:amfilter.obj
 0002:0006f680       ?GetMediaTypeVersion@CBasePin@@UAEJXZ 10071680 f   strmbase:amfilter.obj
 0002:0006f690       ?Active@CBasePin@@UAEJXZ   10071690 f   strmbase:amfilter.obj
 0002:0006f6a0       ?Run@CBasePin@@UAEJ_J@Z    100716a0 f   strmbase:amfilter.obj
 0002:0006f6b0       ?EndOfStream@CBasePin@@UAGJXZ 100716b0 f   strmbase:amfilter.obj
 0002:0006f6c0       ?SetSink@CBasePin@@UAGJPAUIQualityControl@@@Z 100716c0 f   strmbase:amfilter.obj
 0002:0006f6f0       ?NewSegment@CBasePin@@UAGJ_J0N@Z 100716f0 f   strmbase:amfilter.obj
 0002:0006f720       ??1CBaseInputPin@@UAE@XZ   10071720 f   strmbase:amfilter.obj
 0002:0006f790       ?NonDelegatingQueryInterface@CBaseInputPin@@UAGJABU_GUID@@PAPAX@Z 10071790 f   strmbase:amfilter.obj
 0002:0006f7f0       ?GetAllocator@CBaseInputPin@@UAGJPAPAUIMemAllocator@@@Z 100717f0 f   strmbase:amfilter.obj
 0002:0006f8b0       ?NotifyAllocator@CBaseInputPin@@UAGJPAUIMemAllocator@@H@Z 100718b0 f   strmbase:amfilter.obj
 0002:0006f950       ?BreakConnect@CBaseInputPin@@UAEJXZ 10071950 f   strmbase:amfilter.obj
 0002:0006f990       ?Receive@CBaseInputPin@@UAGJPAUIMediaSample@@@Z 10071990 f   strmbase:amfilter.obj
 0002:0006fb00       ?ReceiveMultiple@CBaseInputPin@@UAGJPAPAUIMediaSample@@JPAJ@Z 10071b00 f   strmbase:amfilter.obj
 0002:0006fb50       ?ReceiveCanBlock@CBaseInputPin@@UAGJXZ 10071b50 f   strmbase:amfilter.obj
 0002:0006fc10       ?BeginFlush@CBaseInputPin@@UAGJXZ 10071c10 f   strmbase:amfilter.obj
 0002:0006fc40       ?EndFlush@CBaseInputPin@@UAGJXZ 10071c40 f   strmbase:amfilter.obj
 0002:0006fc70       ?Notify@CBaseInputPin@@UAGJPAUIBaseFilter@@UtagQuality@@@Z 10071c70 f   strmbase:amfilter.obj
 0002:0006fc90       ?Inactive@CBaseInputPin@@UAEJXZ 10071c90 f   strmbase:amfilter.obj
 0002:0006fcc0       ?GetAllocatorRequirements@CBaseInputPin@@UAGJPAU_AllocatorProperties@@@Z 10071cc0 f   strmbase:amfilter.obj
 0002:0006fcd0       ?CheckStreaming@CBaseInputPin@@UAEJXZ 10071cd0 f   strmbase:amfilter.obj
 0002:0006fd00       _AMovieSetupRegisterFilter@12 10071d00 f   strmbase:amfilter.obj
 0002:0006fef0       ??1CBaseFilter@@UAE@XZ     10071ef0 f   strmbase:amfilter.obj
 0002:0006ff70       ?SetSyncSource@CBaseFilter@@UAGJPAUIReferenceClock@@@Z 10071f70 f   strmbase:amfilter.obj
 0002:0006fff0       ?GetSyncSource@CBaseFilter@@UAGJPAPAUIReferenceClock@@@Z 10071ff0 f   strmbase:amfilter.obj
 0002:00070080       ?Run@CBaseFilter@@UAGJ_J@Z 10072080 f   strmbase:amfilter.obj
 0002:000701a0       ?StreamTime@CBaseFilter@@UAEJAAVCRefTime@@@Z 100721a0 f   strmbase:amfilter.obj
 0002:000701e0       ?FindPin@CBaseFilter@@UAGJPB_WPAPAUIPin@@@Z 100721e0 f   strmbase:amfilter.obj
 0002:000702e0       ?JoinFilterGraph@CBaseFilter@@UAGJPAUIFilterGraph@@PB_W@Z 100722e0 f   strmbase:amfilter.obj
 0002:000703c0       ?Register@CBaseFilter@@UAGJXZ 100723c0 f   strmbase:amfilter.obj
 0002:00070430       ?Unregister@CBaseFilter@@UAGJXZ 10072430 f   strmbase:amfilter.obj
 0002:000704b0       ??_GCEnumPins@@UAEPAXI@Z   100724b0 f i strmbase:amfilter.obj
 0002:000704b0       ??_ECEnumPins@@UAEPAXI@Z   100724b0 f i strmbase:amfilter.obj
 0002:000704e0       ?Next@CEnumPins@@UAGJKPAPAUIPin@@PAK@Z 100724e0 f   strmbase:amfilter.obj
 0002:000705f0       ?Skip@CEnumPins@@UAGJK@Z   100725f0 f   strmbase:amfilter.obj
 0002:00070640       ??_GCEnumMediaTypes@@UAEPAXI@Z 10072640 f i strmbase:amfilter.obj
 0002:00070640       ??_ECEnumMediaTypes@@UAEPAXI@Z 10072640 f i strmbase:amfilter.obj
 0002:00070670       ?Next@CEnumMediaTypes@@UAGJKPAPAU_AMMediaType@@PAK@Z 10072670 f   strmbase:amfilter.obj
 0002:000707c0       ?Skip@CEnumMediaTypes@@UAGJK@Z 100727c0 f   strmbase:amfilter.obj
 0002:00070870       ?AttemptConnection@CBasePin@@IAEJPAUIPin@@PBVCMediaType@@@Z 10072870 f   strmbase:amfilter.obj
 0002:00070940       ?TryMediaTypes@CBasePin@@IAEJPAUIPin@@PBVCMediaType@@PAUIEnumMediaTypes@@@Z 10072940 f   strmbase:amfilter.obj
 0002:00070a20       ?AgreeMediaType@CBasePin@@IAEJPAUIPin@@PBVCMediaType@@@Z 10072a20 f   strmbase:amfilter.obj
 0002:00070b00       ?ReceiveConnection@CBasePin@@UAGJPAUIPin@@PBU_AMMediaType@@@Z 10072b00 f   strmbase:amfilter.obj
 0002:00070cb0       ?Disconnect@CBasePin@@UAGJXZ 10072cb0 f   strmbase:amfilter.obj
 0002:00070d40       ?ConnectionMediaType@CBasePin@@UAGJPAU_AMMediaType@@@Z 10072d40 f   strmbase:amfilter.obj
 0002:00070df0       ?QueryId@CBasePin@@UAGJPAPA_W@Z 10072df0 f   strmbase:amfilter.obj
 0002:00070e10       ??0CEnumPins@@QAE@PAVCBaseFilter@@PAV0@@Z 10072e10 f   strmbase:amfilter.obj
 0002:00070ee0       ?Clone@CEnumPins@@UAGJPAPAUIEnumPins@@@Z 10072ee0 f   strmbase:amfilter.obj
 0002:00070f90       ??0CEnumMediaTypes@@QAE@PAVCBasePin@@PAV0@@Z 10072f90 f   strmbase:amfilter.obj
 0002:00070ff0       ?Clone@CEnumMediaTypes@@UAGJPAPAUIEnumMediaTypes@@@Z 10072ff0 f   strmbase:amfilter.obj
 0002:000710a0       ??0CBasePin@@QAE@PA_WPAVCBaseFilter@@PAVCCritSec@@PAJPB_WW4_PinDirection@@@Z 100730a0 f   strmbase:amfilter.obj
 0002:000711a0       ?Connect@CBasePin@@UAGJPAUIPin@@PBU_AMMediaType@@@Z 100731a0 f   strmbase:amfilter.obj
 0002:000712b0       ?EnumMediaTypes@CBasePin@@UAGJPAPAUIEnumMediaTypes@@@Z 100732b0 f   strmbase:amfilter.obj
 0002:00071340       ??0CBaseInputPin@@QAE@PA_WPAVCBaseFilter@@PAVCCritSec@@PAJPB_W@Z 10073340 f   strmbase:amfilter.obj
 0002:00071390       ??0CBaseFilter@@QAE@PB_WPAUIUnknown@@PAVCCritSec@@ABU_GUID@@@Z 10073390 f   strmbase:amfilter.obj
 0002:000713f0       ?EnumPins@CBaseFilter@@UAGJPAPAUIEnumPins@@@Z 100733f0 f   strmbase:amfilter.obj
 0002:00071480       ?SetType@CMediaType@@QAEXPBU_GUID@@@Z 10073480 f   strmbase:mtype.obj
 0002:000714a0       ?SetSubtype@CMediaType@@QAEXPBU_GUID@@@Z 100734a0 f   strmbase:mtype.obj
 0002:000714d0       ?SetVariableSize@CMediaType@@QAEXXZ 100734d0 f   strmbase:mtype.obj
 0002:000714e0       ?SetTemporalCompression@CMediaType@@QAEXH@Z 100734e0 f   strmbase:mtype.obj
 0002:000714f0       ?SetFormatType@CMediaType@@QAEXPBU_GUID@@@Z 100734f0 f   strmbase:mtype.obj
 0002:00071520       ?AllocFormatBuffer@CMediaType@@QAEPAEK@Z 10073520 f   strmbase:mtype.obj
 0002:00071580       ?InitMediaType@CMediaType@@QAEXXZ 10073580 f   strmbase:mtype.obj
 0002:000715a0       ?IsPartiallySpecified@CMediaType@@QBEHXZ 100735a0 f   strmbase:mtype.obj
 0002:000715d0       ?MatchesPartial@CMediaType@@QBEHPBV1@@Z 100735d0 f   strmbase:mtype.obj
 0002:000716a0       ?CopyMediaType@@YGJPAU_AMMediaType@@PBU1@@Z 100736a0 f   strmbase:mtype.obj
 0002:00071710       ?FreeMediaType@@YGXAAU_AMMediaType@@@Z 10073710 f   strmbase:mtype.obj
 0002:00071750       ??1CMediaType@@QAE@XZ      10073750 f   strmbase:mtype.obj
 0002:00071760       ??0CMediaType@@QAE@XZ      10073760 f   strmbase:mtype.obj
 0002:00071770       ?Set@CMediaType@@QAEJABU_AMMediaType@@@Z 10073770 f   strmbase:mtype.obj
 0002:000717b0       ?SetSampleSize@CMediaType@@QAEXK@Z 100737b0 f   strmbase:mtype.obj
 0002:000717e0       ?DeleteMediaType@@YGXPAU_AMMediaType@@@Z 100737e0 f   strmbase:mtype.obj
 0002:00071800       ?Set@CMediaType@@QAEJABV1@@Z 10073800 f   strmbase:mtype.obj
 0002:00071810       ??0CBaseObject@@QAE@PB_W@Z 10073810 f   strmbase:combase.obj
 0002:00071830       ??1CBaseObject@@QAE@XZ     10073830 f   strmbase:combase.obj
 0002:00071860       _GetInterface@8            10073860 f   strmbase:combase.obj
 0002:00071890       ??0CUnknown@@QAE@PB_WPAUIUnknown@@@Z 10073890 f   strmbase:combase.obj
 0002:000718c0       ?NonDelegatingQueryInterface@CUnknown@@UAGJABU_GUID@@PAPAX@Z 100738c0 f   strmbase:combase.obj
 0002:00071910       ?NonDelegatingAddRef@CUnknown@@UAGKXZ 10073910 f   strmbase:combase.obj
 0002:00071940       ?GetHeadPositionI@CBaseList@@QBEPAU__POSITION@@XZ 10073940 f   strmbase:wxlist.obj
 0002:00071950       ??1CNodeCache@CBaseList@@QAE@XZ 10073950 f i strmbase:wxlist.obj
 0002:00071980       ??0CBaseList@@QAE@PA_W@Z   10073980 f   strmbase:wxlist.obj
 0002:000719a0       ?RemoveAll@CBaseList@@QAEXXZ 100739a0 f   strmbase:wxlist.obj
 0002:000719e0       ?GetNextI@CBaseList@@IBEPAXAAPAU__POSITION@@@Z 100739e0 f   strmbase:wxlist.obj
 0002:00071a00       ?GetI@CBaseList@@IBEPAXPAU__POSITION@@@Z 10073a00 f   strmbase:wxlist.obj
 0002:00071a20       ?FindI@CBaseList@@IBEPAU__POSITION@@PAX@Z 10073a20 f   strmbase:wxlist.obj
 0002:00071a60       ?AddTailI@CBaseList@@IAEPAU__POSITION@@PAX@Z 10073a60 f   strmbase:wxlist.obj
 0002:00071ad0       ?AddTail@CBaseList@@QAEHPAV1@@Z 10073ad0 f   strmbase:wxlist.obj
 0002:00071b20       ??1CBaseList@@QAE@XZ       10073b20 f   strmbase:wxlist.obj
 0002:00071b90       _AMGetWideString@8         10073b90 f   strmbase:wxutil.obj
 0002:00071be2       _DirectDrawCreateEx@16     10073be2 f   ddraw:DDRAW.dll
 0002:00071bf0       _preprocess                10073bf0 f   preprocess:preprocess.obj
 0002:00071e40       _yuyv_to_yv12_mmx          10073e40     preprocess:yuyv_to_yv12_mmx.obj
 0002:00071f80       _uyvy_to_yv12_mmx          10073f80     preprocess:yuyv_to_yv12_mmx.obj
 0002:000720b0       _detect_deinterlacing8_mmx 100740b0     preprocess:deinterlacing_mmx.obj
 0002:000721f0       _detect_deinterlacing8_xmm 100741f0     preprocess:deinterlacing_mmx.obj
 0002:00072290       _rgb24_to_yv12_c11         10074290 f   imageprocess:colorspace.obj
 0002:000724e0       _ImageUnitClose            100744e0 f   kdimg:kdimg.DLL
 0002:000724e6       _ImageUnitProcess          100744e6 f   kdimg:kdimg.DLL
 0002:000724ec       _ImageUnitAnalyzeErrorCode 100744ec f   kdimg:kdimg.DLL
 0002:000724f2       _ImageUnitOpen             100744f2 f   kdimg:kdimg.DLL
 0002:00072500       _I420ToRGB24               10074500 f   libyuv:convert_from.obj
 0002:000725f0       _InitCpuFlags              100745f0 f   libyuv:cpu_id.obj
 0002:000727f0       _I422ToRGB24Row_SSSE3      100747f0 f   libyuv:row_win.obj
 0002:000728f0       _I422ToRGB24Row_C          100748f0 f   libyuv:row_common.obj
 0002:00072af0       _I422ToRGB24Row_Any_SSSE3  10074af0 f   libyuv:row_any.obj
 0002:00072b3e       ??_U@YAPAXI@Z              10074b3e f   msvcprt:newaop_s.obj
 0002:00072b49       __RTC_CheckEsp             10074b49 f   MSVCRT:_stack_.obj
 0002:00072b6c       @_RTC_CheckStackVars@8     10074b6c f   MSVCRT:_stack_.obj
 0002:00072bc8       __RTC_InitBase             10074bc8 f   MSVCRT:_init_.obj
 0002:00072bee       __RTC_Shutdown             10074bee f   MSVCRT:_init_.obj
 0002:00072c00       _memcpy                    10074c00 f   MSVCRT:MSVCR100.dll
 0002:00072c06       ??_Etype_info@@UAEPAXI@Z   10074c06 f i MSVCRT:ti_inst.obj
 0002:00072c52       ??3@YAXPAX@Z               10074c52 f   MSVCRT:MSVCR100.dll
 0002:00072c58       ___CxxFrameHandler3        10074c58 f   MSVCRT:MSVCR100.dll
 0002:00072c5e       @__security_check_cookie@4 10074c5e f   MSVCRT:secchk.obj
 0002:00072c6e       ??2@YAPAXI@Z               10074c6e f   MSVCRT:MSVCR100.dll
 0002:00072c74       __purecall                 10074c74 f   MSVCRT:MSVCR100.dll
 0002:00072c7a       ?__ArrayUnwind@@YGXPAXIHP6EX0@Z@Z 10074c7a f   MSVCRT:ehvecdtr.obj
 0002:00072cd8       ??_M@YGXPAXIHP6EX0@Z@Z     10074cd8 f   MSVCRT:ehvecdtr.obj
 0002:00072d3c       _printf                    10074d3c f   MSVCRT:MSVCR100.dll
 0002:00072d42       _memset                    10074d42 f   MSVCRT:MSVCR100.dll
 0002:00072d48       __onexit                   10074d48 f   MSVCRT:atonexit.obj
 0002:00072de9       _atexit                    10074de9 f   MSVCRT:atonexit.obj
 0002:00072e00       ??_V@YAXPAX@Z              10074e00 f   MSVCRT:MSVCR100.dll
 0002:00072e06       _strcat                    10074e06 f   MSVCRT:MSVCR100.dll
 0002:00072e0c       _strlen                    10074e0c f   MSVCRT:MSVCR100.dll
 0002:00072e20       __alloca_probe             10074e20     MSVCRT:chkstk.obj
 0002:00072e20       __chkstk                   10074e20 f   MSVCRT:chkstk.obj
 0002:00072e50       _strcmp                    10074e50 f   MSVCRT:MSVCR100.dll
 0002:00072e56       __CxxThrowException@8      10074e56 f   MSVCRT:MSVCR100.dll
 0002:00072e5c       ??0exception@std@@QAE@ABV01@@Z 10074e5c f   MSVCRT:MSVCR100.dll
 0002:00072e62       ?what@exception@std@@UBEPBDXZ 10074e62 f   MSVCRT:MSVCR100.dll
 0002:00072e68       _log10                     10074e68 f   MSVCRT:MSVCR100.dll
 0002:00072e6e       _memcmp                    10074e6e f   MSVCRT:MSVCR100.dll
 0002:0007312c       ?_RTC_Failure@@YAXPAXH@Z   1007512c f   MSVCRT:_error_.obj
 0002:00073167       ?_RTC_StackFailure@@YAXPAXPBD@Z 10075167 f   MSVCRT:_error_.obj
 0002:0007325a       __RTC_UninitUse            1007525a f   MSVCRT:_error_.obj
 0002:00073340       __ftol2_sse                10075340 f   MSVCRT:ftol2.obj
 0002:00073349       __ftol2_pentium4           10075349 f   MSVCRT:ftol2.obj
 0002:0007335c       __ftol2_sse_excpt          1007535c f   MSVCRT:ftol2.obj
 0002:00073376       __ftol2                    10075376 f   MSVCRT:ftol2.obj
 0002:000733ec       _wmemcpy_s                 100753ec f   MSVCRT:MSVCR100.dll
 0002:000733f2       _strcpy                    100753f2 f   MSVCRT:MSVCR100.dll
 0002:000733f8       _abs                       100753f8 f   MSVCRT:MSVCR100.dll
 0002:00073400       __allshr                   10075400 f   MSVCRT:llshr.obj
 0002:00073422       _labs                      10075422 f   MSVCRT:MSVCR100.dll
 0002:00073428       __except_handler4          10075428 f   MSVCRT:chandler4gs.obj
 0002:00073450       __alldiv                   10075450 f   MSVCRT:lldiv.obj
 0002:00073500       __aulldiv                  10075500 f   MSVCRT:ulldiv.obj
 0002:000735b6       __CRT_INIT@12              100755b6 f   MSVCRT:crtdll.obj
 0002:000738d6       __DllMainCRTStartup@12     100758d6 f   MSVCRT:crtdll.obj
 0002:00073900       __aulldvrm                 10075900 f   MSVCRT:ulldvrm.obj
 0002:000739a0       __allmul                   100759a0 f   MSVCRT:llmul.obj
 0002:000739d4       _getenv                    100759d4 f   MSVCRT:MSVCR100.dll
 0002:000739da       _atoi                      100759da f   MSVCRT:MSVCR100.dll
 0002:000739e0       __RTC_SetErrorFuncW        100759e0 f   MSVCRT:_userapi_.obj
 0002:000739fc       ?_RTC_GetErrorFunc@@YAP6AHHPBDH00ZZPBX@Z 100759fc f   MSVCRT:_userapi_.obj
 0002:00073a02       ?_RTC_GetErrorFuncW@@YAP6AHHPB_WH00ZZPBX@Z 10075a02 f   MSVCRT:_userapi_.obj
 0002:00073a08       __CRT_RTC_INITW            10075a08 f   MSVCRT:MSVCR100.dll
 0002:00073a0e       ___report_gsfailure        10075a0e f   MSVCRT:gs_report.obj
 0002:00073b14       ?terminate@@YAXXZ          10075b14 f   MSVCRT:MSVCR100.dll
 0002:00073b20       __SEH_prolog4              10075b20 f   MSVCRT:sehprolg4.obj
 0002:00073b65       __SEH_epilog4              10075b65 f   MSVCRT:sehprolg4.obj
 0002:00073b7a       __unlock                   10075b7a f   MSVCRT:MSVCR100.dll
 0002:00073b80       ___dllonexit               10075b80 f   MSVCRT:MSVCR100.dll
 0002:00073b86       __lock                     10075b86 f   MSVCRT:MSVCR100.dll
 0002:00073ceb       ?_RTC_GetSrcLine@@YAHPAEPA_WKPAH1K@Z 10075ceb f   MSVCRT:_pdblkup_.obj
 0002:00073f76       ___sse2_available_init     10075f76 f   MSVCRT:cpu_disp.obj
 0002:00073f86       __except_handler4_common   10075f86 f   MSVCRT:MSVCR100.dll
 0002:00073f8c       ___clean_type_info_names   10075f8c f   MSVCRT:tncleanup.obj
 0002:00073f98       __RTC_Initialize           10075f98 f   MSVCRT:_initsect_.obj
 0002:00073fbe       __RTC_Terminate            10075fbe f   MSVCRT:_initsect_.obj
 0002:00073fe4       _free                      10075fe4 f   MSVCRT:MSVCR100.dll
 0002:00073ff0       __ValidateImageBase        10075ff0 f   MSVCRT:pesect.obj
 0002:00074030       __FindPESection            10076030 f   MSVCRT:pesect.obj
 0002:00074080       __IsNonwritableInCurrentImage 10076080 f   MSVCRT:pesect.obj
 0002:0007413c       __initterm                 1007613c f   MSVCRT:MSVCR100.dll
 0002:00074142       __initterm_e               10076142 f   MSVCRT:MSVCR100.dll
 0002:00074148       __amsg_exit                10076148 f   MSVCRT:MSVCR100.dll
 0002:0007414e       ___CppXcptFilter           1007614e f   MSVCRT:MSVCR100.dll
 0002:00074154       ___security_init_cookie    10076154 f   MSVCRT:gs_support.obj
 0002:000741f0       ??1type_info@@UAE@XZ       100761f0 f   MSVCRT:MSVCR100.dll
 0002:000741f0       ?_type_info_dtor_internal_method@type_info@@QAEXXZ 100761f0 f   MSVCRT:MSVCR100.dll
 0002:000741f6       __crt_debugger_hook        100761f6 f   MSVCRT:MSVCR100.dll
 0002:000741fc       ___clean_type_info_names_internal 100761fc f   MSVCRT:MSVCR100.dll
 0002:00074210       _hmpv_inprodadd_ps64_ps16  10076210 f   speech_excit:Speech_Excit.obj
 0002:000742c0       _SpeechExcitInit           100762c0 f   speech_excit:Speech_Excit.obj
 0002:00074300       _SpeechExcitClose          10076300 f   speech_excit:Speech_Excit.obj
 0002:00074310       _SetSeSpLevel              10076310 f   speech_excit:Speech_Excit.obj
 0002:00074340       _SpeechExcitProc           10076340 f   speech_excit:Speech_Excit.obj
 0002:00074530       _SetMp3SpeechFlg           10076530 f   speech_excit:Speech_Excit.obj
 0002:00074560       _acmStreamClose@8          10076560 f   msacm32:MSACM32.dll
 0002:00074566       _acmStreamPrepareHeader@12 10076566 f   msacm32:MSACM32.dll
 0002:0007456c       _acmStreamOpen@32          1007656c f   msacm32:MSACM32.dll
 0002:00074572       _acmDriverOpen@12          10076572 f   msacm32:MSACM32.dll
 0002:00074578       _acmDriverAddW@20          10076578 f   msacm32:MSACM32.dll
 0002:0007457e       _acmStreamUnprepareHeader@12 1007657e f   msacm32:MSACM32.dll
 0002:00074584       _acmStreamConvert@12       10076584 f   msacm32:MSACM32.dll
 0002:0007458a       _DrawDibOpen@0             1007658a f   vfw32:MSVFW32.dll
 0002:00074590       _DrawDibClose@4            10076590 f   vfw32:MSVFW32.dll
 0002:00074596       _DrawDibBegin@32           10076596 f   vfw32:MSVFW32.dll
 0002:0007459c       _DrawDibDraw@52            1007659c f   vfw32:MSVFW32.dll
 0002:000745a2       _ICClose@4                 100765a2 f   vfw32:MSVFW32.dll
 0002:000745a8       _ICSendMessage@16          100765a8 f   vfw32:MSVFW32.dll
 0002:000745ae       _ICDecompress              100765ae f   vfw32:MSVFW32.dll
 0002:000745b4       _ICLocate@20               100765b4 f   vfw32:MSVFW32.dll
 0002:000745ba       _ICOpen@12                 100765ba f   vfw32:MSVFW32.dll
 0002:000745c0       _ICCompress                100765c0 f   vfw32:MSVFW32.dll
 0002:000745c6       ?log@CInstance@@IAAXEPADZZ 100765c6 f   ospdll:OspDll.dll
 0002:000745cc       ?GetAppID@CInstance@@QAEGXZ 100765cc f   ospdll:OspDll.dll
 0002:000745d2       _OspPrintf                 100765d2 f   ospdll:OspDll.dll
 0002:000745d8       _OspPton                   100765d8 f   ospdll:OspDll.dll
 0002:000745de       _OspTaskDelay              100765de f   ospdll:OspDll.dll
 0002:000745e4       _OspGetCpuInfo             100765e4 f   ospdll:OspDll.dll
 0002:000745ea       _OspRegistModule           100765ea f   ospdll:OspDll.dll
 0002:000745f0       _OspInit                   100765f0 f   ospdll:OspDll.dll
 0002:000745f6       _IsOspInitd                100765f6 f   ospdll:OspDll.dll
 0002:000745fc       _OspQuit                   100765fc f   ospdll:OspDll.dll
 0002:00074610       _ConvertBMPToYUV420AndAlpha 10076610 f   logowin:addlogo.obj
 0002:00075fd0       _AddLogo                   10077fd0 f   logowin:addlogo.obj
 0002:00076390       _RGB2JPGFile               10078390 f   jpeg2:main.obj
 0002:00076600       ?jpeg_CreateCompress@@YAXPAUjpeg_compress_struct@@HI@Z 10078600 f   jpeg2:jcapimin.obj
 0002:000766d0       ?jpeg_destroy_compress@@YAXPAUjpeg_compress_struct@@@Z 100786d0 f   jpeg2:jcapimin.obj
 0002:000766e0       ?jpeg_suppress_tables@@YAXPAUjpeg_compress_struct@@E@Z 100786e0 f   jpeg2:jcapimin.obj
 0002:00076730       ?jpeg_finish_compress@@YAXPAUjpeg_compress_struct@@@Z 10078730 f   jpeg2:jcapimin.obj
 0002:00076840       ?jpeg_start_compress@@YAXPAUjpeg_compress_struct@@E@Z 10078840 f   jpeg2:jcapistd.obj
 0002:000768c0       ?jpeg_write_scanlines@@YAIPAUjpeg_compress_struct@@PAPAEI@Z 100788c0 f   jpeg2:jcapistd.obj
 0002:00076990       ?jpeg_add_quant_table@@YAXPAUjpeg_compress_struct@@HPBIHE@Z 10078990 f   jpeg2:jcparam.obj
 0002:00076a70       ?jpeg_set_linear_quality@@YAXPAUjpeg_compress_struct@@HE@Z 10078a70 f   jpeg2:jcparam.obj
 0002:00076ab0       ?jpeg_quality_scaling@@YAHH@Z 10078ab0 f   jpeg2:jcparam.obj
 0002:00076af0       ?jpeg_set_quality@@YAXPAUjpeg_compress_struct@@HE@Z 10078af0 f   jpeg2:jcparam.obj
 0002:00076b10       ?jpeg_set_defaults@@YAXPAUjpeg_compress_struct@@@Z 10078b10 f   jpeg2:jcparam.obj
 0002:00076d10       ?jpeg_default_colorspace@@YAXPAUjpeg_compress_struct@@@Z 10078d10 f   jpeg2:jcparam.obj
 0002:00076d90       ?jpeg_set_colorspace@@YAXPAUjpeg_compress_struct@@W4J_COLOR_SPACE@@@Z 10078d90 f   jpeg2:jcparam.obj
 0002:00077090       ?jpeg_stdio_dest@@YAXPAUjpeg_compress_struct@@PAU_iobuf@@@Z 10079090 f   jpeg2:jdatadst.obj
 0002:000771c0       ?jpeg_std_error@@YAPAUjpeg_error_mgr@@PAU1@@Z 100791c0 f   jpeg2:jerror.obj
 0002:00077380       ?jinit_memory_mgr@@YAXPAUjpeg_common_struct@@@Z 10079380 f   jpeg2:jmemmgr.obj
 0002:00077fa0       ?jpeg_abort@@YAXPAUjpeg_common_struct@@@Z 10079fa0 f   jpeg2:jcomapi.obj
 0002:00077fe0       ?jpeg_destroy@@YAXPAUjpeg_common_struct@@@Z 10079fe0 f   jpeg2:jcomapi.obj
 0002:00078000       ?jpeg_alloc_quant_table@@YAPAUJQUANT_TBL@@PAUjpeg_common_struct@@@Z 1007a000 f   jpeg2:jcomapi.obj
 0002:00078020       ?jpeg_alloc_huff_table@@YAPAUJHUFF_TBL@@PAUjpeg_common_struct@@@Z 1007a020 f   jpeg2:jcomapi.obj
 0002:00078040       ?jinit_marker_writer@@YAXPAUjpeg_compress_struct@@@Z 1007a040 f   jpeg2:jcmarker.obj
 0002:00078930       ?jinit_compress_master@@YAXPAUjpeg_compress_struct@@@Z 1007a930 f   jpeg2:jcinit.obj
 0002:000789f0       ?jpeg_get_small@@YAPAXPAUjpeg_common_struct@@I@Z 1007a9f0 f   jpeg2:jmemnobs.obj
 0002:00078a00       ?jpeg_free_small@@YAXPAUjpeg_common_struct@@PAXI@Z 1007aa00 f   jpeg2:jmemnobs.obj
 0002:00078a10       ?jpeg_get_large@@YAPAXPAUjpeg_common_struct@@I@Z 1007aa10 f   jpeg2:jmemnobs.obj
 0002:00078a20       ?jpeg_free_large@@YAXPAUjpeg_common_struct@@PAXI@Z 1007aa20 f   jpeg2:jmemnobs.obj
 0002:00078a30       ?jpeg_mem_available@@YAJPAUjpeg_common_struct@@JJJ@Z 1007aa30 f   jpeg2:jmemnobs.obj
 0002:00078a40       ?jpeg_open_backing_store@@YAXPAUjpeg_common_struct@@PAUbacking_store_struct@@J@Z 1007aa40 f   jpeg2:jmemnobs.obj
 0002:00078a60       ?jpeg_mem_init@@YAJPAUjpeg_common_struct@@@Z 1007aa60 f   jpeg2:jmemnobs.obj
 0002:00078a70       ?jpeg_mem_term@@YAXPAUjpeg_common_struct@@@Z 1007aa70 f   jpeg2:jmemnobs.obj
 0002:00078a80       ?jdiv_round_up@@YAJJJ@Z    1007aa80 f   jpeg2:jutils.obj
 0002:00078a90       ?jround_up@@YAJJJ@Z        1007aa90 f   jpeg2:jutils.obj
 0002:00078ab0       ?jcopy_sample_rows@@YAXPAPAEH0HHI@Z 1007aab0 f   jpeg2:jutils.obj
 0002:00078b00       ?jzero_far@@YAXPAXI@Z      1007ab00 f   jpeg2:jutils.obj
 0002:00078b20       ?jinit_c_main_controller@@YAXPAUjpeg_compress_struct@@E@Z 1007ab20 f   jpeg2:jcmainct.obj
 0002:00078cb0       ?jinit_c_coef_controller@@YAXPAUjpeg_compress_struct@@E@Z 1007acb0 f   jpeg2:jccoefct.obj
 0002:00079520       ?jpeg_make_c_derived_tbl@@YAXPAUjpeg_compress_struct@@EHPAPAUc_derived_tbl@@@Z 1007b520 f   jpeg2:jchuff.obj
 0002:00079730       ?jpeg_gen_optimal_table@@YAXPAUjpeg_compress_struct@@PAUJHUFF_TBL@@QAJ@Z 1007b730 f   jpeg2:jchuff.obj
 0002:00079960       ?jinit_huff_encoder@@YAXPAUjpeg_compress_struct@@@Z 1007b960 f   jpeg2:jchuff.obj
 0002:0007a2c0       ?jinit_phuff_encoder@@YAXPAUjpeg_compress_struct@@@Z 1007c2c0 f   jpeg2:jcphuff.obj
 0002:0007aed0       ?jinit_forward_dct@@YAXPAUjpeg_compress_struct@@@Z 1007ced0 f   jpeg2:jcdctmgr.obj
 0002:0007b4a0       ?jinit_c_prep_controller@@YAXPAUjpeg_compress_struct@@E@Z 1007d4a0 f   jpeg2:jcprepct.obj
 0002:0007ba60       ?jinit_downsampler@@YAXPAUjpeg_compress_struct@@@Z 1007da60 f   jpeg2:jcsample.obj
 0002:0007c480       ?jinit_color_converter@@YAXPAUjpeg_compress_struct@@@Z 1007e480 f   jpeg2:jccolor.obj
 0002:0007cc10       ?jinit_c_master_control@@YAXPAUjpeg_compress_struct@@E@Z 1007ec10 f   jpeg2:jcmaster.obj
 0002:0007d770       ?jpeg_fdct_islow@@YAXPAH@Z 1007f770 f   jpeg2:jfdctint.obj
 0002:0007db70       ?jpeg_fdct_ifast@@YAXPAH@Z 1007fb70 f   jpeg2:jfdctfst.obj
 0002:0007ddc0       ?jpeg_fdct_float@@YAXPAM@Z 1007fdc0 f   jpeg2:jfdctflt.obj
 0002:0007e030       _VadClose                  10080030 f   vadlib:audio_vad.obj
 0002:0007e0b0       _VadReset                  100800b0 f   vadlib:audio_vad.obj
 0002:0007e180       _VadProcess                10080180 f   vadlib:audio_vad.obj
 0002:0007e220       _VadOpen                   10080220 f   vadlib:audio_vad.obj
 0002:0007e3e0       _SubVad_Process            100803e0 f   vadlib:webrtc_vad.obj
 0002:0007e4b0       _Vad_set_mode              100804b0 f   vadlib:webrtc_vad.obj
 0002:0007e4e0       _Vad_Init                  100804e0 f   vadlib:webrtc_vad.obj
 0002:0007e4f0       _AdjustInParaFd            100804f0 f   vadlib:vad_core.obj
 0002:0007e5a0       _Vad_CalcVad16khz          100805a0 f   vadlib:vad_core.obj
 0002:0007e610       _Vad_CalcVad8khz           10080610 f   vadlib:vad_core.obj
 0002:0007e61c       _Vad_CalcVad8khz.          1008061c f   vadlib:vad_core.obj
 0002:0007f0f0       _Vad_CalcVad32khz          100810f0 f   vadlib:vad_core.obj
 0002:0007f180       _Vad_CalcVad48khz          10081180 f   vadlib:vad_core.obj
 0002:0007f1f0       _Vad_set_mode_core         100811f0 f   vadlib:vad_core.obj
 0002:0007f1f8       _Vad_set_mode_core.        100811f8 f   vadlib:vad_core.obj
 0002:0007f3d0       _Vad_InitCore              100813d0 f   vadlib:vad_core.obj
 0002:0007f630       _Vad_FindMinimum           10081630 f   vadlib:vad_sp.obj
 0002:0007f940       _Vad_Downsampling          10081940 f   vadlib:vad_sp.obj
 0002:0007f9d0       _Vad_CalculateFeatures     100819d0 f   vadlib:vad_filterbank.obj
 0002:0007ff80       _Vad_GaussianProbability   10081f80 f   vadlib:vad_gmm.obj
 0002:00080030       _VadSpl_DivW32W16          10082030 f   vadlib:division_operations.obj
 0002:00080050       _ResampleTrans48KTo8K      10082050 f   vadlib:vad_resample.obj
 0002:00080390       _VadSpl_Energy             10082390 f   vadlib:energy.obj
 0002:000803e0       _VadSpl_GetScalingSquare   100823e0 f   vadlib:get_scaling_square.obj
 0002:00080520       _SpeOpen                   10082520 f   spe_win32:spe_nsx.obj
 0002:000806c0       _SpeProcess                100826c0 f   spe_win32:spe_nsx.obj
 0002:00080880       _SpeClose                  10082880 f   spe_win32:spe_nsx.obj
 0002:000811b0       _WebRtcNsx_CalcParametricNoiseEstimate 100831b0 f   spe_win32:nsx_core.obj
 0002:00081280       _WebRtcNsx_set_policy_core 10083280 f   spe_win32:nsx_core.obj
 0002:00081370       _WebRtcNsx_FeatureParameterExtraction 10083370 f   spe_win32:nsx_core.obj
 0002:00081710       _WebRtcNsx_ComputeSpectralFlatness 10083710 f   spe_win32:nsx_core.obj
 0002:00081910       _WebRtcNsx_ComputeSpectralDifference 10083910 f   spe_win32:nsx_core.obj
 0002:00081bc0       _WebRtcNsx_SpeechNoiseProb 10083bc0 f   spe_win32:nsx_core.obj
 0002:00082200       _WebRtcNsx_DataAnalysis    10084200 f   spe_win32:nsx_core.obj
 0002:000827d0       _WebRtcNsx_DataSynthesis   100847d0 f   spe_win32:nsx_core.obj
 0002:000829e0       _WebRtcNsx_ProcessCore     100849e0 f   spe_win32:nsx_core.obj
 0002:00083730       _WebRtcNsx_InitCore        10085730 f   spe_win32:nsx_core.obj
 0002:00083aa0       _WriteLoopBuf              10085aa0 f   spe_win32:read_write_buf.obj
 0002:00083b10       _ReadLoopBuf               10085b10 f   spe_win32:read_write_buf.obj
 0002:00083b80       _WebRtcSpl_AllPassQMF      10085b80 f   spe_win32:splitting_filter.obj
 0002:00083e10       _WebRtcSpl_AnalysisQMF     10085e10 f   spe_win32:splitting_filter.obj
 0002:00084110       _WebRtcSpl_SynthesisQMF    10086110 f   spe_win32:splitting_filter.obj
 0002:00084270       _WebRtcSpl_MemSetW16       10086270 f   spe_win32:copy_set_operations.obj
 0002:000842a0       _WebRtcSpl_ZerosArrayW16   100862a0 f   spe_win32:copy_set_operations.obj
 0002:000842c0       _WebRtcSpl_DivU32U16       100862c0 f   spe_win32:division_operations.obj
 0002:000842e0       _SpeWebRtcSpl_DivW32W16    100862e0 f   spe_win32:division_operations.obj
 0002:00084300       _SpeWebRtcSpl_DivW32W16ResW16 10086300 f   spe_win32:division_operations.obj
 0002:00084320       _WebRtcSpl_SqrtFloor       10086320 f   spe_win32:spl_sqrt_floor.obj
 0002:00084450       _WebRtcSpl_Energy          10086450 f   spe_win32:energy.obj
 0002:000844a0       _WebRtcSpl_RealForwardFFTC 100864a0 f   spe_win32:real_fft.obj
 0002:000844e0       _WebRtcSpl_RealInverseFFTC 100864e0 f   spe_win32:real_fft.obj
 0002:00084520       _WebRtcSpl_MaxAbsValueW16C 10086520 f   spe_win32:min_max_operations.obj
 0002:00084580       _WebRtcSpl_MaxValueW16C    10086580 f   spe_win32:min_max_operations.obj
 0002:00084610       _WebRtcSpl_GetScalingSquare 10086610 f   spe_win32:get_scaling_square.obj
 0002:000846c0       _WebRtcSpl_ComplexFFT      100866c0 f   spe_win32:complex_fft.obj
 0002:00084970       _WebRtcSpl_ComplexIFFT     10086970 f   spe_win32:complex_fft.obj
 0002:00084c70       _WebRtcSpl_ComplexBitReverse 10086c70 f   spe_win32:complex_bit_reverse.obj
 0002:00084d1c       _MoFreeMediaType@4         10086d1c f   Msdmo:msdmo.dll
 0002:00084d22       _MoInitMediaType@8         10086d22 f   Msdmo:msdmo.dll
 0002:00084d28       _VerQueryValueW@16         10086d28 f   version:VERSION.dll
 0002:00084d2e       _GetFileVersionInfoW@16    10086d2e f   version:VERSION.dll
 0002:00084d34       _GetFileVersionInfoSizeW@8 10086d34 f   version:VERSION.dll
 0002:00084d40       __intel_fast_memset        10086d40 f   libirc:fastmemset.obj
 0002:00084d80       __intel_fast_memset.H      10086d80 f   libirc:fastmemset.obj
 0002:00084d90       __intel_fast_memset.J      10086d90 f   libirc:fastmemset.obj
 0002:00084da0       __intel_fast_memset.A      10086da0 f   libirc:fastmemset.obj
 0002:00084dc0       __intel_fast_memcpy        10086dc0 f   libirc:fastmemcpy.obj
 0002:00084e00       __intel_fast_memcpy.H      10086e00 f   libirc:fastmemcpy.obj
 0002:00084e10       __intel_fast_memcpy.J      10086e10 f   libirc:fastmemcpy.obj
 0002:00084e20       __intel_fast_memcpy.A      10086e20 f   libirc:fastmemcpy.obj
 0002:00084e40       ___intel_cpu_indicator_init 10086e40 f   libirc:cpu_disp.obj
 0002:00084fe0       ___intel_new_memset        10086fe0 f   libirc:fast_memset.obj
 0002:00085a60       ___intel_new_memcpy        10087a60 f   libirc:fast_memcpy.obj
 0002:00086ce0       ___intel_new_proc_init.A   10088ce0 f   libirc:proc_init.obj
 0002:00086cf0       ___intel_new_proc_init.H   10088cf0 f   libirc:proc_init.obj
 0002:00086dd0       ___intel_new_proc_init     10088dd0 f   libirc:proc_init.obj
 0002:00086e00       _init_mem_ops_method       10088e00 f   libirc:fast_mem_ops.obj
 0002:00086fd0       __aullshr                  10088fd0 f   MSVCRT:ullshr.obj
 0002:00086ff0       _malloc                    10088ff0 f   MSVCRT:MSVCR100.dll
 0002:00086ff6       __ftol                     10088ff6 f   MSVCRT:MSVCR100.dll
 0002:00087230       _VideoMemMalloc_c          10089230 f   videomanage_win32:mm_dbg_c.obj
 0002:000872d0       _VideoMemFree_c            100892d0 f   videomanage_win32:mm_dbg_c.obj
 0002:00087390       _VideoMemClose_c           10089390 f   videomanage_win32:mm_dbg_c.obj
 0002:000873d0       _VideoMalloc               100893d0 f   videomanage_win32:res_videomanage_c.obj
 0002:00087430       _VideoMemInitial_c         10089430 f   videomanage_win32:res_videomanage_c.obj
 0002:00087550       _VideoMemMalloc_inner_c    10089550 f   videomanage_win32:res_videomanage_c.obj
 0002:000875a0       _VideoMemFree_inner_c      100895a0 f   videomanage_win32:res_videomanage_c.obj
 0002:000875b0       _VideoMemClose_inner_c     100895b0 f   videomanage_win32:res_videomanage_c.obj
 0003:00000000       __imp__RegQueryValueExA@24 1008d000     advapi32:ADVAPI32.dll
 0003:00000004       __imp__RegOpenKeyExW@20    1008d004     advapi32:ADVAPI32.dll
 0003:00000008       __imp__RegQueryValueExW@24 1008d008     advapi32:ADVAPI32.dll
 0003:0000000c       __imp__RegOpenKeyExA@20    1008d00c     advapi32:ADVAPI32.dll
 0003:00000010       __imp__RegCloseKey@4       1008d010     advapi32:ADVAPI32.dll
 0003:00000014       \177ADVAPI32_NULL_THUNK_DATA 1008d014     advapi32:ADVAPI32.dll
 0003:00000018       __imp__DirectDrawCreateEx@16 1008d018     ddraw:DDRAW.dll
 0003:0000001c       \177DDRAW_NULL_THUNK_DATA  1008d01c     ddraw:DDRAW.dll
 0003:00000020       __imp__SelectObject@8      1008d020     gdi32:GDI32.dll
 0003:00000024       __imp__CreatePen@12        1008d024     gdi32:GDI32.dll
 0003:00000028       __imp__DeleteObject@4      1008d028     gdi32:GDI32.dll
 0003:0000002c       __imp__MoveToEx@16         1008d02c     gdi32:GDI32.dll
 0003:00000030       __imp__BitBlt@36           1008d030     gdi32:GDI32.dll
 0003:00000034       __imp__CreateCompatibleBitmap@12 1008d034     gdi32:GDI32.dll
 0003:00000038       __imp__CreateCompatibleDC@4 1008d038     gdi32:GDI32.dll
 0003:0000003c       __imp__GetDIBits@28        1008d03c     gdi32:GDI32.dll
 0003:00000040       __imp__StretchBlt@44       1008d040     gdi32:GDI32.dll
 0003:00000044       __imp__SetStretchBltMode@8 1008d044     gdi32:GDI32.dll
 0003:00000048       __imp__SetDIBits@28        1008d048     gdi32:GDI32.dll
 0003:0000004c       __imp__CreateSolidBrush@4  1008d04c     gdi32:GDI32.dll
 0003:00000050       __imp__DeleteDC@4          1008d050     gdi32:GDI32.dll
 0003:00000054       __imp__LineTo@12           1008d054     gdi32:GDI32.dll
 0003:00000058       \177GDI32_NULL_THUNK_DATA  1008d058     gdi32:GDI32.dll
 0003:0000005c       __imp__FormatMessageW@28   1008d05c     kernel32:KERNEL32.dll
 0003:00000060       __imp__GetLastError@0      1008d060     kernel32:KERNEL32.dll
 0003:00000064       __imp__FreeLibrary@4       1008d064     kernel32:KERNEL32.dll
 0003:00000068       __imp__GetCurrentProcess@0 1008d068     kernel32:KERNEL32.dll
 0003:0000006c       __imp__GetSystemInfo@4     1008d06c     kernel32:KERNEL32.dll
 0003:00000070       __imp__VerifyVersionInfoW@16 1008d070     kernel32:KERNEL32.dll
 0003:00000074       __imp__VerSetConditionMask@16 1008d074     kernel32:KERNEL32.dll
 0003:00000078       __imp__GetModuleFileNameW@12 1008d078     kernel32:KERNEL32.dll
 0003:0000007c       __imp__LoadLibraryW@4      1008d07c     kernel32:KERNEL32.dll
 0003:00000080       __imp__FormatMessageA@28   1008d080     kernel32:KERNEL32.dll
 0003:00000084       __imp__GetTickCount@0      1008d084     kernel32:KERNEL32.dll
 0003:00000088       __imp__GetPrivateProfileStringW@24 1008d088     kernel32:KERNEL32.dll
 0003:0000008c       __imp__GetModuleHandleW@4  1008d08c     kernel32:KERNEL32.dll
 0003:00000090       __imp__WritePrivateProfileStringW@16 1008d090     kernel32:KERNEL32.dll
 0003:00000094       __imp__InterlockedIncrement@4 1008d094     kernel32:KERNEL32.dll
 0003:00000098       __imp__InterlockedDecrement@4 1008d098     kernel32:KERNEL32.dll
 0003:0000009c       __imp__WideCharToMultiByte@32 1008d09c     kernel32:KERNEL32.dll
 0003:000000a0       __imp__GetFileAttributesA@4 1008d0a0     kernel32:KERNEL32.dll
 0003:000000a4       __imp__QueryPerformanceCounter@4 1008d0a4     kernel32:KERNEL32.dll
 0003:000000a8       __imp__GetLocalTime@4      1008d0a8     kernel32:KERNEL32.dll
 0003:000000ac       __imp__lstrlenW@4          1008d0ac     kernel32:KERNEL32.dll
 0003:000000b0       __imp__CreateDirectoryW@8  1008d0b0     kernel32:KERNEL32.dll
 0003:000000b4       __imp__DeleteFileW@4       1008d0b4     kernel32:KERNEL32.dll
 0003:000000b8       __imp__GetFileAttributesW@4 1008d0b8     kernel32:KERNEL32.dll
 0003:000000bc       __imp__GetProcAddress@8    1008d0bc     kernel32:KERNEL32.dll
 0003:000000c0       __imp__TryEnterCriticalSection@4 1008d0c0     kernel32:KERNEL32.dll
 0003:000000c4       __imp__GetCurrentThreadId@0 1008d0c4     kernel32:KERNEL32.dll
 0003:000000c8       __imp__RaiseException@16   1008d0c8     kernel32:KERNEL32.dll
 0003:000000cc       __imp__GetCurrentThread@0  1008d0cc     kernel32:KERNEL32.dll
 0003:000000d0       __imp__GetCurrentProcessId@0 1008d0d0     kernel32:KERNEL32.dll
 0003:000000d4       __imp__WriteFile@20        1008d0d4     kernel32:KERNEL32.dll
 0003:000000d8       __imp__CreateFileA@28      1008d0d8     kernel32:KERNEL32.dll
 0003:000000dc       __imp__MultiByteToWideChar@24 1008d0dc     kernel32:KERNEL32.dll
 0003:000000e0       __imp__lstrcpynW@12        1008d0e0     kernel32:KERNEL32.dll
 0003:000000e4       __imp__lstrcmpW@8          1008d0e4     kernel32:KERNEL32.dll
 0003:000000e8       __imp__InterlockedExchange@8 1008d0e8     kernel32:KERNEL32.dll
 0003:000000ec       __imp__LoadLibraryA@4      1008d0ec     kernel32:KERNEL32.dll
 0003:000000f0       __imp__GetModuleFileNameA@12 1008d0f0     kernel32:KERNEL32.dll
 0003:000000f4       __imp__SetThreadPriority@8 1008d0f4     kernel32:KERNEL32.dll
 0003:000000f8       __imp__GetSystemTimeAsFileTime@4 1008d0f8     kernel32:KERNEL32.dll
 0003:000000fc       __imp__IsProcessorFeaturePresent@4 1008d0fc     kernel32:KERNEL32.dll
 0003:00000100       __imp__VirtualQuery@12     1008d100     kernel32:KERNEL32.dll
 0003:00000104       __imp__GetProcessHeap@0    1008d104     kernel32:KERNEL32.dll
 0003:00000108       __imp__HeapAlloc@12        1008d108     kernel32:KERNEL32.dll
 0003:0000010c       __imp__HeapFree@12         1008d10c     kernel32:KERNEL32.dll
 0003:00000110       __imp__SetUnhandledExceptionFilter@4 1008d110     kernel32:KERNEL32.dll
 0003:00000114       __imp__UnhandledExceptionFilter@4 1008d114     kernel32:KERNEL32.dll
 0003:00000118       __imp__TerminateProcess@8  1008d118     kernel32:KERNEL32.dll
 0003:0000011c       __imp__InterlockedCompareExchange@12 1008d11c     kernel32:KERNEL32.dll
 0003:00000120       __imp__IsDebuggerPresent@0 1008d120     kernel32:KERNEL32.dll
 0003:00000124       __imp__DecodePointer@4     1008d124     kernel32:KERNEL32.dll
 0003:00000128       __imp__EncodePointer@4     1008d128     kernel32:KERNEL32.dll
 0003:0000012c       __imp__Sleep@4             1008d12c     kernel32:KERNEL32.dll
 0003:00000130       __imp__SetThreadAffinityMask@8 1008d130     kernel32:KERNEL32.dll
 0003:00000134       __imp__WaitForSingleObject@8 1008d134     kernel32:KERNEL32.dll
 0003:00000138       __imp__ResetEvent@4        1008d138     kernel32:KERNEL32.dll
 0003:0000013c       __imp__SetEvent@4          1008d13c     kernel32:KERNEL32.dll
 0003:00000140       __imp__CloseHandle@4       1008d140     kernel32:KERNEL32.dll
 0003:00000144       __imp__CreateEventW@16     1008d144     kernel32:KERNEL32.dll
 0003:00000148       __imp__EnterCriticalSection@4 1008d148     kernel32:KERNEL32.dll
 0003:0000014c       __imp__LeaveCriticalSection@4 1008d14c     kernel32:KERNEL32.dll
 0003:00000150       __imp__DeleteCriticalSection@4 1008d150     kernel32:KERNEL32.dll
 0003:00000154       __imp__InitializeCriticalSection@4 1008d154     kernel32:KERNEL32.dll
 0003:00000158       __imp__GetDiskFreeSpaceW@20 1008d158     kernel32:KERNEL32.dll
 0003:0000015c       \177KERNEL32_NULL_THUNK_DATA 1008d15c     kernel32:KERNEL32.dll
 0003:00000160       __imp_?GetMediaRcv@CKdvMediaRcv@@SAPAV1@XZ 1008d160     kdvmedianetdll:KdvMediaNetDll.dll
 0003:00000164       __imp_?GetMediaSnd@CKdvMediaSnd@@SAPAV1@XZ 1008d164     kdvmedianetdll:KdvMediaNetDll.dll
 0003:00000168       __imp_?PutMediaSnd@CKdvMediaSnd@@SAXPAV1@@Z 1008d168     kdvmedianetdll:KdvMediaNetDll.dll
 0003:0000016c       __imp_?PutMediaRcv@CKdvMediaRcv@@SAXPAV1@@Z 1008d16c     kdvmedianetdll:KdvMediaNetDll.dll
 0003:00000170       __imp__MnetCryptCfgInit    1008d170     kdvmedianetdll:KdvMediaNetDll.dll
 0003:00000174       __imp__MnetCryptCfgSetCipherAlgorithm 1008d174     kdvmedianetdll:KdvMediaNetDll.dll
 0003:00000178       __imp__MnetCryptCfgSetAuthAlgorithm 1008d178     kdvmedianetdll:KdvMediaNetDll.dll
 0003:0000017c       __imp__MnetCryptCfgSetMasterKey 1008d17c     kdvmedianetdll:KdvMediaNetDll.dll
 0003:00000180       __imp__MnetCryptCfgSetCipherKey 1008d180     kdvmedianetdll:KdvMediaNetDll.dll
 0003:00000184       __imp__MnetCryptCfgSetAuthKey 1008d184     kdvmedianetdll:KdvMediaNetDll.dll
 0003:00000188       __imp__MnetCryptCfgSetPkt  1008d188     kdvmedianetdll:KdvMediaNetDll.dll
 0003:0000018c       __imp__MnetCryptCfgSetAuthTag 1008d18c     kdvmedianetdll:KdvMediaNetDll.dll
 0003:00000190       \177KdvMediaNetDll_NULL_THUNK_DATA 1008d190     kdvmedianetdll:KdvMediaNetDll.dll
 0003:00000194       __imp__acmStreamConvert@12 1008d194     msacm32:MSACM32.dll
 0003:00000198       __imp__acmStreamClose@8    1008d198     msacm32:MSACM32.dll
 0003:0000019c       __imp__acmStreamPrepareHeader@12 1008d19c     msacm32:MSACM32.dll
 0003:000001a0       __imp__acmStreamOpen@32    1008d1a0     msacm32:MSACM32.dll
 0003:000001a4       __imp__acmDriverOpen@12    1008d1a4     msacm32:MSACM32.dll
 0003:000001a8       __imp__acmDriverAddW@20    1008d1a8     msacm32:MSACM32.dll
 0003:000001ac       __imp__acmStreamUnprepareHeader@12 1008d1ac     msacm32:MSACM32.dll
 0003:000001b0       \177MSACM32_NULL_THUNK_DATA 1008d1b0     msacm32:MSACM32.dll
 0003:000001b4       __imp_?_Orphan_all@_Container_base0@std@@QAEXXZ 1008d1b4     msvcprt:MSVCP100.dll
 0003:000001b8       __imp_?_Swap_all@_Container_base0@std@@QAEXAAU12@@Z 1008d1b8     msvcprt:MSVCP100.dll
 0003:000001bc       __imp_?_Xinvalid_argument@std@@YAXPBD@Z 1008d1bc     msvcprt:MSVCP100.dll
 0003:000001c0       __imp_?_Xlength_error@std@@YAXPBD@Z 1008d1c0     msvcprt:MSVCP100.dll
 0003:000001c4       __imp_?_Xout_of_range@std@@YAXPBD@Z 1008d1c4     msvcprt:MSVCP100.dll
 0003:000001c8       __imp_??1_Winit@std@@QAE@XZ 1008d1c8     msvcprt:MSVCP100.dll
 0003:000001cc       __imp_??0_Winit@std@@QAE@XZ 1008d1cc     msvcprt:MSVCP100.dll
 0003:000001d0       __imp_??1Init@ios_base@std@@QAE@XZ 1008d1d0     msvcprt:MSVCP100.dll
 0003:000001d4       __imp_??0Init@ios_base@std@@QAE@XZ 1008d1d4     msvcprt:MSVCP100.dll
 0003:000001d8       \177MSVCP100_NULL_THUNK_DATA 1008d1d8     msvcprt:MSVCP100.dll
 0003:000001dc       __imp___crt_debugger_hook  1008d1dc     MSVCRT:MSVCR100.dll
 0003:000001e0       __imp_?_type_info_dtor_internal_method@type_info@@QAEXXZ 1008d1e0     MSVCRT:MSVCR100.dll
 0003:000001e4       __imp____CppXcptFilter     1008d1e4     MSVCRT:MSVCR100.dll
 0003:000001e8       __imp___amsg_exit          1008d1e8     MSVCRT:MSVCR100.dll
 0003:000001ec       __imp___initterm_e         1008d1ec     MSVCRT:MSVCR100.dll
 0003:000001f0       __imp___initterm           1008d1f0     MSVCRT:MSVCR100.dll
 0003:000001f4       __imp___encoded_null       1008d1f4     MSVCRT:MSVCR100.dll
 0003:000001f8       __imp__free                1008d1f8     MSVCRT:MSVCR100.dll
 0003:000001fc       __imp___malloc_crt         1008d1fc     MSVCRT:MSVCR100.dll
 0003:00000200       __imp__malloc              1008d200     MSVCRT:MSVCR100.dll
 0003:00000204       __imp__exit                1008d204     MSVCRT:MSVCR100.dll
 0003:00000208       __imp___iob                1008d208     MSVCRT:MSVCR100.dll
 0003:0000020c       __imp__sscanf              1008d20c     MSVCRT:MSVCR100.dll
 0003:00000210       __imp___ftol               1008d210     MSVCRT:MSVCR100.dll
 0003:00000214       __imp____clean_type_info_names_internal 1008d214     MSVCRT:MSVCR100.dll
 0003:00000218       __imp__memcpy              1008d218     MSVCRT:MSVCR100.dll
 0003:0000021c       __imp_??3@YAXPAX@Z         1008d21c     MSVCRT:MSVCR100.dll
 0003:00000220       __imp____CxxFrameHandler3  1008d220     MSVCRT:MSVCR100.dll
 0003:00000224       __imp_??2@YAPAXI@Z         1008d224     MSVCRT:MSVCR100.dll
 0003:00000228       __imp___purecall           1008d228     MSVCRT:MSVCR100.dll
 0003:0000022c       __imp__printf              1008d22c     MSVCRT:MSVCR100.dll
 0003:00000230       __imp__strrchr             1008d230     MSVCRT:MSVCR100.dll
 0003:00000234       __imp__memset              1008d234     MSVCRT:MSVCR100.dll
 0003:00000238       __imp_??_V@YAXPAX@Z        1008d238     MSVCRT:MSVCR100.dll
 0003:0000023c       __imp__strcat              1008d23c     MSVCRT:MSVCR100.dll
 0003:00000240       __imp__strncpy             1008d240     MSVCRT:MSVCR100.dll
 0003:00000244       __imp__strlen              1008d244     MSVCRT:MSVCR100.dll
 0003:00000248       __imp__fclose              1008d248     MSVCRT:MSVCR100.dll
 0003:0000024c       __imp__fprintf             1008d24c     MSVCRT:MSVCR100.dll
 0003:00000250       __imp__fflush              1008d250     MSVCRT:MSVCR100.dll
 0003:00000254       __imp__fwrite              1008d254     MSVCRT:MSVCR100.dll
 0003:00000258       __imp__fopen               1008d258     MSVCRT:MSVCR100.dll
 0003:0000025c       __imp__fread               1008d25c     MSVCRT:MSVCR100.dll
 0003:00000260       __imp__fscanf              1008d260     MSVCRT:MSVCR100.dll
 0003:00000264       __imp__feof                1008d264     MSVCRT:MSVCR100.dll
 0003:00000268       __imp___beginthreadex      1008d268     MSVCRT:MSVCR100.dll
 0003:0000026c       __imp__sprintf             1008d26c     MSVCRT:MSVCR100.dll
 0003:00000270       __imp__strcmp              1008d270     MSVCRT:MSVCR100.dll
 0003:00000274       __imp__isspace             1008d274     MSVCRT:MSVCR100.dll
 0003:00000278       __imp__memmove             1008d278     MSVCRT:MSVCR100.dll
 0003:0000027c       __imp___CxxThrowException@8 1008d27c     MSVCRT:MSVCR100.dll
 0003:00000280       __imp_??0exception@std@@QAE@ABV01@@Z 1008d280     MSVCRT:MSVCR100.dll
 0003:00000284       __imp_??0exception@std@@QAE@ABQBD@Z 1008d284     MSVCRT:MSVCR100.dll
 0003:00000288       __imp_?what@exception@std@@UBEPBDXZ 1008d288     MSVCRT:MSVCR100.dll
 0003:0000028c       __imp_??1exception@std@@UAE@XZ 1008d28c     MSVCRT:MSVCR100.dll
 0003:00000290       __imp__wcscmp              1008d290     MSVCRT:MSVCR100.dll
 0003:00000294       __imp___wtoi               1008d294     MSVCRT:MSVCR100.dll
 0003:00000298       __imp__sprintf_s           1008d298     MSVCRT:MSVCR100.dll
 0003:0000029c       __imp__ftell               1008d29c     MSVCRT:MSVCR100.dll
 0003:000002a0       __imp__fseek               1008d2a0     MSVCRT:MSVCR100.dll
 0003:000002a4       __imp___wfopen             1008d2a4     MSVCRT:MSVCR100.dll
 0003:000002a8       __imp__wcscat              1008d2a8     MSVCRT:MSVCR100.dll
 0003:000002ac       __imp__wcsrchr             1008d2ac     MSVCRT:MSVCR100.dll
 0003:000002b0       __imp__log10               1008d2b0     MSVCRT:MSVCR100.dll
 0003:000002b4       __imp__wcslen              1008d2b4     MSVCRT:MSVCR100.dll
 0003:000002b8       __imp___itow_s             1008d2b8     MSVCRT:MSVCR100.dll
 0003:000002bc       __imp__rand                1008d2bc     MSVCRT:MSVCR100.dll
 0003:000002c0       __imp__wcsstr              1008d2c0     MSVCRT:MSVCR100.dll
 0003:000002c4       __imp__memcmp              1008d2c4     MSVCRT:MSVCR100.dll
 0003:000002c8       __imp__wcsncpy_s           1008d2c8     MSVCRT:MSVCR100.dll
 0003:000002cc       __imp___stricmp            1008d2cc     MSVCRT:MSVCR100.dll
 0003:000002d0       __imp__wmemcpy_s           1008d2d0     MSVCRT:MSVCR100.dll
 0003:000002d4       __imp__strcpy              1008d2d4     MSVCRT:MSVCR100.dll
 0003:000002d8       __imp__abs                 1008d2d8     MSVCRT:MSVCR100.dll
 0003:000002dc       __imp__wcscpy              1008d2dc     MSVCRT:MSVCR100.dll
 0003:000002e0       __imp__vsprintf_s          1008d2e0     MSVCRT:MSVCR100.dll
 0003:000002e4       __imp__strcat_s            1008d2e4     MSVCRT:MSVCR100.dll
 0003:000002e8       __imp__labs                1008d2e8     MSVCRT:MSVCR100.dll
 0003:000002ec       __imp___wcsnicmp           1008d2ec     MSVCRT:MSVCR100.dll
 0003:000002f0       __imp__memchr              1008d2f0     MSVCRT:MSVCR100.dll
 0003:000002f4       __imp___vswprintf          1008d2f4     MSVCRT:MSVCR100.dll
 0003:000002f8       __imp__getenv              1008d2f8     MSVCRT:MSVCR100.dll
 0003:000002fc       __imp__atoi                1008d2fc     MSVCRT:MSVCR100.dll
 0003:00000300       __imp___CRT_RTC_INITW      1008d300     MSVCRT:MSVCR100.dll
 0003:00000304       __imp_?terminate@@YAXXZ    1008d304     MSVCRT:MSVCR100.dll
 0003:00000308       __imp__vsnprintf_s         1008d308     MSVCRT:MSVCR100.dll
 0003:00000308       __imp___vsnprintf_s        1008d308     MSVCRT:MSVCR100.dll
 0003:0000030c       __imp___unlock             1008d30c     MSVCRT:MSVCR100.dll
 0003:00000310       __imp____dllonexit         1008d310     MSVCRT:MSVCR100.dll
 0003:00000314       __imp___lock               1008d314     MSVCRT:MSVCR100.dll
 0003:00000318       __imp___onexit             1008d318     MSVCRT:MSVCR100.dll
 0003:0000031c       __imp___except_handler4_common 1008d31c     MSVCRT:MSVCR100.dll
 0003:00000320       \177MSVCR100_NULL_THUNK_DATA 1008d320     MSVCRT:MSVCR100.dll
 0003:00000324       __imp__DrawDibClose@4      1008d324     vfw32:MSVFW32.dll
 0003:00000328       __imp__DrawDibBegin@32     1008d328     vfw32:MSVFW32.dll
 0003:0000032c       __imp__DrawDibDraw@52      1008d32c     vfw32:MSVFW32.dll
 0003:00000330       __imp__ICClose@4           1008d330     vfw32:MSVFW32.dll
 0003:00000334       __imp__ICSendMessage@16    1008d334     vfw32:MSVFW32.dll
 0003:00000338       __imp__ICCompress          1008d338     vfw32:MSVFW32.dll
 0003:0000033c       __imp__ICOpen@12           1008d33c     vfw32:MSVFW32.dll
 0003:00000340       __imp__ICLocate@20         1008d340     vfw32:MSVFW32.dll
 0003:00000344       __imp__ICDecompress        1008d344     vfw32:MSVFW32.dll
 0003:00000348       __imp__DrawDibOpen@0       1008d348     vfw32:MSVFW32.dll
 0003:0000034c       \177MSVFW32_NULL_THUNK_DATA 1008d34c     vfw32:MSVFW32.dll
 0003:00000350       __imp__VariantInit@4       1008d350     oleaut32:OLEAUT32.dll
 0003:00000354       __imp__VariantClear@4      1008d354     oleaut32:OLEAUT32.dll
 0003:00000358       \177OLEAUT32_NULL_THUNK_DATA 1008d358     oleaut32:OLEAUT32.dll
 0003:0000035c       __imp__OspGetCpuInfo       1008d35c     ospdll:OspDll.dll
 0003:00000360       __imp__OspQuit             1008d360     ospdll:OspDll.dll
 0003:00000364       __imp__IsOspInitd          1008d364     ospdll:OspDll.dll
 0003:00000368       __imp__OspInit             1008d368     ospdll:OspDll.dll
 0003:0000036c       __imp__OspRegistModule     1008d36c     ospdll:OspDll.dll
 0003:00000370       __imp__OspTaskDelay        1008d370     ospdll:OspDll.dll
 0003:00000374       __imp__OspPton             1008d374     ospdll:OspDll.dll
 0003:00000378       __imp__OspPrintf           1008d378     ospdll:OspDll.dll
 0003:0000037c       __imp_?GetAppID@CInstance@@QAEGXZ 1008d37c     ospdll:OspDll.dll
 0003:00000380       __imp_?log@CInstance@@IAAXEPADZZ 1008d380     ospdll:OspDll.dll
 0003:00000384       \177OspDll_NULL_THUNK_DATA 1008d384     ospdll:OspDll.dll
 0003:00000388       __imp__SetRectEmpty@4      1008d388     user32:USER32.dll
 0003:0000038c       __imp__GetIconInfo@8       1008d38c     user32:USER32.dll
 0003:00000390       __imp__DrawIcon@16         1008d390     user32:USER32.dll
 0003:00000394       __imp__FillRect@12         1008d394     user32:USER32.dll
 0003:00000398       __imp__GetDC@4             1008d398     user32:USER32.dll
 0003:0000039c       __imp__GetCursorPos@4      1008d39c     user32:USER32.dll
 0003:000003a0       __imp__GetCursorInfo@4     1008d3a0     user32:USER32.dll
 0003:000003a4       __imp__IsIconic@4          1008d3a4     user32:USER32.dll
 0003:000003a8       __imp__IsWindowVisible@4   1008d3a8     user32:USER32.dll
 0003:000003ac       __imp__IsRectEmpty@4       1008d3ac     user32:USER32.dll
 0003:000003b0       __imp__GetForegroundWindow@0 1008d3b0     user32:USER32.dll
 0003:000003b4       __imp__SystemParametersInfoW@16 1008d3b4     user32:USER32.dll
 0003:000003b8       __imp__EnumDisplaySettingsW@12 1008d3b8     user32:USER32.dll
 0003:000003bc       __imp__InvalidateRect@12   1008d3bc     user32:USER32.dll
 0003:000003c0       __imp__GetClientRect@8     1008d3c0     user32:USER32.dll
 0003:000003c4       __imp__BeginPaint@8        1008d3c4     user32:USER32.dll
 0003:000003c8       __imp__EndPaint@8          1008d3c8     user32:USER32.dll
 0003:000003cc       __imp__UpdateWindow@4      1008d3cc     user32:USER32.dll
 0003:000003d0       __imp__GetDesktopWindow@0  1008d3d0     user32:USER32.dll
 0003:000003d4       __imp__GetWindowRect@8     1008d3d4     user32:USER32.dll
 0003:000003d8       __imp__GetSystemMetrics@4  1008d3d8     user32:USER32.dll
 0003:000003dc       __imp__SetWindowPos@28     1008d3dc     user32:USER32.dll
 0003:000003e0       __imp__SetRect@20          1008d3e0     user32:USER32.dll
 0003:000003e4       __imp__ReleaseDC@8         1008d3e4     user32:USER32.dll
 0003:000003e8       __imp__wsprintfW           1008d3e8     user32:USER32.dll
 0003:000003ec       \177USER32_NULL_THUNK_DATA 1008d3ec     user32:USER32.dll
 0003:000003f0       __imp__GetFileVersionInfoW@16 1008d3f0     version:VERSION.dll
 0003:000003f4       __imp__GetFileVersionInfoSizeW@8 1008d3f4     version:VERSION.dll
 0003:000003f8       __imp__VerQueryValueW@16   1008d3f8     version:VERSION.dll
 0003:000003fc       \177VERSION_NULL_THUNK_DATA 1008d3fc     version:VERSION.dll
 0003:00000400       __imp__mixerOpen@20        1008d400     winmm:WINMM.dll
 0003:00000404       __imp__mixerClose@4        1008d404     winmm:WINMM.dll
 0003:00000408       __imp__mixerGetLineInfoW@12 1008d408     winmm:WINMM.dll
 0003:0000040c       __imp__waveOutGetPosition@12 1008d40c     winmm:WINMM.dll
 0003:00000410       __imp__waveOutWrite@12     1008d410     winmm:WINMM.dll
 0003:00000414       __imp__waveOutClose@4      1008d414     winmm:WINMM.dll
 0003:00000418       __imp__waveOutOpen@24      1008d418     winmm:WINMM.dll
 0003:0000041c       __imp__waveOutPrepareHeader@12 1008d41c     winmm:WINMM.dll
 0003:00000420       __imp__waveOutReset@4      1008d420     winmm:WINMM.dll
 0003:00000424       __imp__waveOutUnprepareHeader@12 1008d424     winmm:WINMM.dll
 0003:00000428       __imp__waveOutGetDevCapsW@12 1008d428     winmm:WINMM.dll
 0003:0000042c       __imp__waveOutMessage@16   1008d42c     winmm:WINMM.dll
 0003:00000430       __imp__waveOutGetNumDevs@0 1008d430     winmm:WINMM.dll
 0003:00000434       __imp__waveOutGetErrorTextA@12 1008d434     winmm:WINMM.dll
 0003:00000438       __imp__OpenDriver@12       1008d438     winmm:WINMM.dll
 0003:0000043c       __imp__mixerGetNumDevs@0   1008d43c     winmm:WINMM.dll
 0003:00000440       __imp__waveInGetPosition@12 1008d440     winmm:WINMM.dll
 0003:00000444       __imp__waveInMessage@16    1008d444     winmm:WINMM.dll
 0003:00000448       __imp__waveInGetNumDevs@0  1008d448     winmm:WINMM.dll
 0003:0000044c       __imp__waveInGetErrorTextA@12 1008d44c     winmm:WINMM.dll
 0003:00000450       __imp__timeGetTime@0       1008d450     winmm:WINMM.dll
 0003:00000454       __imp__waveInPrepareHeader@12 1008d454     winmm:WINMM.dll
 0003:00000458       __imp__timeSetEvent@20     1008d458     winmm:WINMM.dll
 0003:0000045c       __imp__timeKillEvent@4     1008d45c     winmm:WINMM.dll
 0003:00000460       __imp__waveInAddBuffer@12  1008d460     winmm:WINMM.dll
 0003:00000464       __imp__waveInStart@4       1008d464     winmm:WINMM.dll
 0003:00000468       __imp__waveInClose@4       1008d468     winmm:WINMM.dll
 0003:0000046c       __imp__waveInOpen@24       1008d46c     winmm:WINMM.dll
 0003:00000470       __imp__waveInGetDevCapsW@12 1008d470     winmm:WINMM.dll
 0003:00000474       __imp__waveInStop@4        1008d474     winmm:WINMM.dll
 0003:00000478       __imp__mixerGetLineControlsW@12 1008d478     winmm:WINMM.dll
 0003:0000047c       __imp__mixerSetControlDetails@12 1008d47c     winmm:WINMM.dll
 0003:00000480       __imp__mixerGetControlDetailsW@12 1008d480     winmm:WINMM.dll
 0003:00000484       __imp__GetDriverModuleHandle@4 1008d484     winmm:WINMM.dll
 0003:00000488       __imp__waveInReset@4       1008d488     winmm:WINMM.dll
 0003:0000048c       __imp__waveInUnprepareHeader@12 1008d48c     winmm:WINMM.dll
 0003:00000490       \177WINMM_NULL_THUNK_DATA  1008d490     winmm:WINMM.dll
 0003:00000494       __imp__htons@4             1008d494     Ws2_32:WS2_32.dll
 0003:00000498       \177WS2_32_NULL_THUNK_DATA 1008d498     Ws2_32:WS2_32.dll
 0003:0000049c       __imp_?Open@CKdvASFFileWriter@@QAEGPB_W@Z 1008d49c     asflib:asflib.dll
 0003:000004a0       __imp_?WriteSample@CKdvASFFileWriter@@QAEGEPAEIHIGPAI@Z 1008d4a0     asflib:asflib.dll
 0003:000004a4       __imp_?EndWriting@CKdvASFFileWriter@@QAEGXZ 1008d4a4     asflib:asflib.dll
 0003:000004a8       __imp_?Close@CKdvASFFileWriter@@QAEGXZ 1008d4a8     asflib:asflib.dll
 0003:000004ac       __imp_?AddStream@CKdvASFFileWriter@@QAEGPAUtagStreamProperty@@@Z 1008d4ac     asflib:asflib.dll
 0003:000004b0       __imp_??0CKdvASFFileWriter@@QAE@XZ 1008d4b0     asflib:asflib.dll
 0003:000004b4       __imp_?SetASFFileProperty@CKdvASFFileWriter@@QAEGPAUtagASFFileProperty@@@Z 1008d4b4     asflib:asflib.dll
 0003:000004b8       __imp_?SetContentProperty@CKdvASFFileWriter@@QAEGPAUtagContentDescriptionProperty@@@Z 1008d4b8     asflib:asflib.dll
 0003:000004bc       __imp_?BeginWriting@CKdvASFFileWriter@@QAEGXZ 1008d4bc     asflib:asflib.dll
 0003:000004c0       \177asflib_NULL_THUNK_DATA 1008d4c0     asflib:asflib.dll
 0003:000004c4       __imp__H264EncoderProcess_x 1008d4c4     h264enc_x:h264enc_x.dll
 0003:000004c8       __imp__H264EncoderClose_x  1008d4c8     h264enc_x:h264enc_x.dll
 0003:000004cc       __imp__H264EncoderOpen_x   1008d4cc     h264enc_x:h264enc_x.dll
 0003:000004d0       __imp__H264EncoderSetParams_x 1008d4d0     h264enc_x:h264enc_x.dll
 0003:000004d4       \177h264enc_x_NULL_THUNK_DATA 1008d4d4     h264enc_x:h264enc_x.dll
 0003:000004d8       __imp__ImageUnitOpen       1008d4d8     kdimg:kdimg.DLL
 0003:000004dc       __imp__ImageUnitProcess    1008d4dc     kdimg:kdimg.DLL
 0003:000004e0       __imp__ImageUnitClose      1008d4e0     kdimg:kdimg.DLL
 0003:000004e4       __imp__ImageUnitAnalyzeErrorCode 1008d4e4     kdimg:kdimg.DLL
 0003:000004e8       \177kdimg_NULL_THUNK_DATA  1008d4e8     kdimg:kdimg.DLL
 0003:000004ec       __imp_?noise_suppression@CAudioProcWrapper@@QBEPAVNoiseSuppression@mediawrapper@@XZ 1008d4ec     mediawrapper:mediawrapper.dll
 0003:000004f0       __imp_?Create@CAudioCodecWrapper@@QAEHH@Z 1008d4f0     mediawrapper:mediawrapper.dll
 0003:000004f4       __imp_?high_pass_filter@CAudioProcWrapper@@QBEPAVHighPassFilter@mediawrapper@@XZ 1008d4f4     mediawrapper:mediawrapper.dll
 0003:000004f8       __imp_?gain_control@CAudioProcWrapper@@QBEPAVGainControl@mediawrapper@@XZ 1008d4f8     mediawrapper:mediawrapper.dll
 0003:000004fc       __imp_?level_estimator@CAudioProcWrapper@@QBEPAVLevelEstimator@mediawrapper@@XZ 1008d4fc     mediawrapper:mediawrapper.dll
 0003:00000500       __imp_?echo_cancellation@CAudioProcWrapper@@QBEPAVEchoCancellation@mediawrapper@@XZ 1008d500     mediawrapper:mediawrapper.dll
 0003:00000504       __imp_?set_num_reverse_channels@CAudioProcWrapper@@QAEHH@Z 1008d504     mediawrapper:mediawrapper.dll
 0003:00000508       __imp_?Add10MsData@CAudioCodecWrapper@@QAEHABVAudioFrame@mediawrapper@@@Z 1008d508     mediawrapper:mediawrapper.dll
 0003:0000050c       __imp_?set_num_channels@CAudioProcWrapper@@QAEHHH@Z 1008d50c     mediawrapper:mediawrapper.dll
 0003:00000510       __imp_?set_sample_rate_hz@CAudioProcWrapper@@QAEHH@Z 1008d510     mediawrapper:mediawrapper.dll
 0003:00000514       __imp_??1CAudioProcWrapper@@QAE@XZ 1008d514     mediawrapper:mediawrapper.dll
 0003:00000518       __imp_?AnalyzeReverseStream@CAudioProcWrapper@@QAEHPAVAudioFrame@mediawrapper@@@Z 1008d518     mediawrapper:mediawrapper.dll
 0003:0000051c       __imp_?NumberOfCodecs@CAudioCodecWrapper@@QAEEXZ 1008d51c     mediawrapper:mediawrapper.dll
 0003:00000520       __imp_?Codec@CAudioCodecWrapper@@QAEHEPAUCodecInst@mediawrapper@@@Z 1008d520     mediawrapper:mediawrapper.dll
 0003:00000524       __imp_?RegisterReceiveCodec@CAudioCodecWrapper@@QAEHABUCodecInst@mediawrapper@@@Z 1008d524     mediawrapper:mediawrapper.dll
 0003:00000528       __imp_?RegisterSendCodec@CAudioCodecWrapper@@QAEHABUCodecInst@mediawrapper@@@Z 1008d528     mediawrapper:mediawrapper.dll
 0003:0000052c       __imp_?SendCodec@CAudioCodecWrapper@@QBEHPAUCodecInst@mediawrapper@@@Z 1008d52c     mediawrapper:mediawrapper.dll
 0003:00000530       __imp_?SetFECStatus@CAudioCodecWrapper@@QAEH_N@Z 1008d530     mediawrapper:mediawrapper.dll
 0003:00000534       __imp_?SetPlayoutMode@CAudioCodecWrapper@@QAEHW4AudioPlayoutMode@mediawrapper@@@Z 1008d534     mediawrapper:mediawrapper.dll
 0003:00000538       __imp_?SetBackgroundNoiseMode@CAudioCodecWrapper@@QAEHW4ACMBackgroundNoiseMode@mediawrapper@@@Z 1008d538     mediawrapper:mediawrapper.dll
 0003:0000053c       __imp_?PlayoutData10Ms@CAudioCodecWrapper@@QAEHHPAVAudioFrame@mediawrapper@@@Z 1008d53c     mediawrapper:mediawrapper.dll
 0003:00000540       __imp_?set_stream_delay_ms@CAudioProcWrapper@@QAEHH@Z 1008d540     mediawrapper:mediawrapper.dll
 0003:00000544       __imp_?Process@CAudioCodecWrapper@@QAEHXZ 1008d544     mediawrapper:mediawrapper.dll
 0003:00000548       __imp_??0CAudioCodecWrapper@@QAE@XZ 1008d548     mediawrapper:mediawrapper.dll
 0003:0000054c       __imp_?ProcessStream@CAudioProcWrapper@@QAEHPAVAudioFrame@mediawrapper@@@Z 1008d54c     mediawrapper:mediawrapper.dll
 0003:00000550       __imp_??0CAudioProcWrapper@@QAE@XZ 1008d550     mediawrapper:mediawrapper.dll
 0003:00000554       __imp_?IncomingPacket@CAudioCodecWrapper@@QAEHPBEHABUWebRtcRTPHeader@mediawrapper@@@Z 1008d554     mediawrapper:mediawrapper.dll
 0003:00000558       __imp_?Initialize@CAudioProcWrapper@@QAEHXZ 1008d558     mediawrapper:mediawrapper.dll
 0003:0000055c       __imp_?RegisterTransportCallback@CAudioCodecWrapper@@QAEHPAVAudioPacketizationCallback@mediawrapper@@@Z 1008d55c     mediawrapper:mediawrapper.dll
 0003:00000560       \177mediawrapper_NULL_THUNK_DATA 1008d560     mediawrapper:mediawrapper.dll
 0003:00000564       __imp__MoInitMediaType@8   1008d564     Msdmo:msdmo.dll
 0003:00000568       __imp__MoFreeMediaType@4   1008d568     Msdmo:msdmo.dll
 0003:0000056c       \177msdmo_NULL_THUNK_DATA  1008d56c     Msdmo:msdmo.dll
 0003:00000570       __imp__CoFreeUnusedLibraries@0 1008d570     ole32:ole32.dll
 0003:00000574       __imp__StringFromGUID2@12  1008d574     ole32:ole32.dll
 0003:00000578       __imp__CoTaskMemAlloc@4    1008d578     ole32:ole32.dll
 0003:0000057c       __imp__CoTaskMemFree@4     1008d57c     ole32:ole32.dll
 0003:00000580       __imp__PropVariantClear@4  1008d580     ole32:ole32.dll
 0003:00000584       __imp__CoCreateInstance@20 1008d584     ole32:ole32.dll
 0003:00000588       __imp__CoInitializeEx@8    1008d588     ole32:ole32.dll
 0003:0000058c       __imp__CoInitialize@4      1008d58c     ole32:ole32.dll
 0003:00000590       __imp__CoUninitialize@0    1008d590     ole32:ole32.dll
 0003:00000594       \177ole32_NULL_THUNK_DATA  1008d594     ole32:ole32.dll
 0003:00000598       ___xc_a                    1008d598     MSVCRT:cinitexe.obj
 0003:000005c4       ___xc_z                    1008d5c4     MSVCRT:cinitexe.obj
 0003:000005c8       ___xi_a                    1008d5c8     MSVCRT:cinitexe.obj
 0003:000005d4       ___xi_z                    1008d5d4     MSVCRT:cinitexe.obj
 0003:00000600       ??_7CEventWindows@@6B@     1008d600     eventwindows.obj
 0003:00000620       ??_7CApp@@6B@              1008d620     logbase.obj
 0003:00000640       ??_C@_0GH@LFFLPCJB@Osp?3?5message?5received?5in?5default@ 1008d640     logbase.obj
 0003:000006ac       ??_7CInstance@@6B@         1008d6ac     logbase.obj
 0003:000006c0       ??_C@_0BO@ECOPFELP@?$DN?$DN?$DN?$DN?$DN?$DN?$DN?$DN?$DN?$DN?$DN?$DN?$DN?$DN?$DN?$DN?$DN?$DN?$DN?$DN?$DN?$DN?$DN?$DN?$DN?$DN?$DN?$DN?6?$AA@ 1008d6c0     logbase.obj
 0003:000006e0       ??_C@_0L@GIDHBCDK@?$LC?N?J?$PN?C?h?J?v?3?6?$AA@ 1008d6e0     logbase.obj
 0003:000006ec       ??_C@_0BC@IPPHIPEA@?$LF?$LB?G?$LA?$LE?r?S?$KB?$LG?K?$LP?Z?5?3?$CFd?6?$AA@ 1008d6ec     logbase.obj
 0003:00000700       ??_C@_0CN@JGOGNHN@?5?5?5?5?5?5?5?5?5?52?5?5?9?9?5?T?ZOspInit?I?h?$LG?$KI?$LF?D?$LG@ 1008d700     logbase.obj
 0003:00000730       ??_C@_0BL@KIMOOOPB@?7?5?5?5?51?5?5?9?9?5?T?Z?$LE?$KO?$LP?Z?$LE?r?S?$KB?H?U?V?$LO?6?$AA@ 1008d730     logbase.obj
 0003:0000074c       ??_C@_0CA@FGLAAMEI@?5?5dwport?3?50?5?9?9?$LJ?X?$LB?U?K?y?R?T?$LG?K?$LP?Z?$LE?r?S?$KB?6?$AA@ 1008d74c     logbase.obj
 0003:0000076c       ??_C@_0BJ@HHLPGPIJ@?$LJ?$KG?5?5?5?5?D?$NM?3?I?h?V?C?$LE?r?S?$KB?$LF?D?$LG?K?$LP?Z?6?$AA@ 1008d76c     logbase.obj
 0003:00000788       ??_C@_0M@BMGDMBLG@?$FL?$CFs?3?$CFd?$FN?5?$CFs?6?$AA@ 1008d788     logbase.obj
 0003:00000798       ??_C@_0FE@DGEKDFDH@k?3?2cbb?2media?2mediacontrol_sky?240@ 1008d798     record_pakage.obj
 0003:000007ec       ??_C@_03OFAPEBGM@?$CFs?6?$AA@ 1008d7ec     record_pakage.obj
 0003:000007f0       ??_C@_0O@MGCGMCMP@0?5?$CB?$DN?5dwMemLen?$AA@ 1008d7f0     record_pakage.obj
 0003:00000800       ??_C@_0N@DMDKDILN@NULL?5?$CB?$DN?5pMem?$AA@ 1008d800     record_pakage.obj
 0003:00000810       ??_C@_0O@LABGCBGD@Get?5sem?5fail?6?$AA@ 1008d810     record_pakage.obj
 0003:00000820       ??_C@_0P@OPJPBKEF@0?5?$CB?$DN?5dwHeadLen?$AA@ 1008d820     record_pakage.obj
 0003:00000830       ??_C@_0BC@LCDPKDBM@NULL?5?$CB?$DN?5pDataHead?$AA@ 1008d830     record_pakage.obj
 0003:00000844       ??_C@_0BE@KOKNNAPH@NULL?5?$CB?$DN?5m_ptMemHead?$AA@ 1008d844     record_pakage.obj
 0003:00000858       ??_C@_0BG@JEDFKIJF@return?5data?5len?5fail?6?$AA@ 1008d858     record_pakage.obj
 0003:00000870       ??_C@_0BG@DJAILLKF@return?5data?5ptr?5fail?6?$AA@ 1008d870     record_pakage.obj
 0003:00000888       ??_C@_0L@LIHDGPL@0?5?$CB?$DN?5dwLen?$AA@ 1008d888     record_pakage.obj
 0003:00000894       ??_C@_09LHGEHAOE@NULL?5?$CB?$DN?5p?$AA@ 1008d894     record_pakage.obj
 0003:000008a0       ??_C@_04LCMACLFG@?4txt?$AA@ 1008d8a0     savefilecomponent.obj
 0003:000008a8       ??_C@_0P@POOBKKAN@Save?5?3?$CFs?5over?6?$AA@ 1008d8a8     savefilecomponent.obj
 0003:000008b8       ??_C@_03PMGGPEJJ@?$CFd?6?$AA@ 1008d8b8     savefilecomponent.obj
 0003:000008bc       ??_C@_0CA@MOKDHADE@SaveToFile?5Null?5m_pLenName?5err?6?$AA@ 1008d8bc     savefilecomponent.obj
 0003:000008e0       ??_C@_0FI@INGLPIIJ@k?3?2cbb?2media?2mediacontrol_sky?240@ 1008d8e0     savefilecomponent.obj
 0003:00000938       ??_C@_0CB@JBDNLGOE@SaveToFile?5Null?5m_pDataName?5err?6@ 1008d938     savefilecomponent.obj
 0003:0000095c       ??_C@_03BFHAFKOB@wb?$CL?$AA@ 1008d95c     savefilecomponent.obj
 0003:00000960       ??_C@_01KDCPPGHE@r?$AA@    1008d960     savefilecomponent.obj
 0003:00000964       ??_C@_0N@CCINFJKP@?$CFs?5open?5err?6?$AA@ 1008d964     savefilecomponent.obj
 0003:00000974       ??_C@_02JDPG@rb?$AA@       1008d974     savefilecomponent.obj
 0003:00000978       ??_C@_02DPKJAMEF@?$CFd?$AA@ 1008d978     savefilecomponent.obj
 0003:00000980       ??_7CTaskCreate@@6B@       1008d980     taskcomponent.obj
 0003:00000988       ??_C@_0BN@BFIKPKID@?$BL?$FL36mcreate?5task?5name?3?$CFs?$BL?$FLm?6?$AA@ 1008d988     taskcomponent.obj
 0003:000009a8       ??_C@_08IAEAMBAJ@FPU?5busy?$AA@ 1008d9a8     win32common.obj
 0003:000009b4       ??_C@_0BF@GDAHOOEF@Error?5summary?5status?$AA@ 1008d9b4     win32common.obj
 0003:000009cc       ??_C@_0M@LEEDKLOB@Stack?5fault?$AA@ 1008d9cc     win32common.obj
 0003:000009d8       ??_C@_0BC@LHEDHHJL@Round?5toward?5zero?$AA@ 1008d9d8     win32common.obj
 0003:000009ec       ??_C@_08HBLCAMOO@Round?5up?$AA@ 1008d9ec     win32common.obj
 0003:000009f8       ??_C@_0L@DGHBCCPM@Round?5down?$AA@ 1008d9f8     win32common.obj
 0003:00000a04       ??_C@_0BB@BKNJHCHB@Round?5to?5nearest?$AA@ 1008da04     win32common.obj
 0003:00000a18       ??_C@_0CE@DLMIMDEC@Double?5Extended?5Precision?5?$CI64?9bi@ 1008da18     win32common.obj
 0003:00000a3c       ??_C@_0BL@IKJLOCNC@Double?5Precision?5?$CI53?9bits?$CJ?$AA@ 1008da3c     win32common.obj
 0003:00000a58       ??_C@_08NKCLJDKG@Reserved?$AA@ 1008da58     win32common.obj
 0003:00000a64       ??_C@_0BL@POJCEPJC@Single?5Precision?5?$CI24?9bits?$CJ?$AA@ 1008da64     win32common.obj
 0003:00000a7f       ??_C@_00CNPNBAHC@?$AA@     1008da7f     win32common.obj
 0003:00000a80       ??_C@_0BB@IABHILBI@Infinity?5control?$AA@ 1008da80     win32common.obj
 0003:00000a94       ??_C@_0BL@MPFLDDOK@Inexact?5result?5?$CIprecision?$CJ?$AA@ 1008da94     win32common.obj
 0003:00000ab0       ??_C@_0BC@LKKIAODK@Numeric?5underflow?$AA@ 1008dab0     win32common.obj
 0003:00000ac4       ??_C@_0BB@OCMNPHKL@Numeric?5overflow?$AA@ 1008dac4     win32common.obj
 0003:00000ad8       ??_C@_0P@BLDBDIAK@Divide?9by?9zero?$AA@ 1008dad8     win32common.obj
 0003:00000ae8       ??_C@_0BF@KNOJJAKO@Denormalized?5operand?$AA@ 1008dae8     win32common.obj
 0003:00000b00       ??_C@_0BC@BPINLOPL@Invalid?5operation?$AA@ 1008db00     win32common.obj
 0003:00000b18       ??_C@_0FC@FEDCDNKB@k?3?2cbb?2media?2mediacontrol_sky?240@ 1008db18     win32common.obj
 0003:00000b6c       ??_C@_0CF@FJBMKAJA@LoadLibrary?5?8?$CFs?8?5wants?5to?5load?5?8@ 1008db6c     win32common.obj
 0003:00000b94       ??_C@_0BF@JKFPAHLO@cant?5find?5symbol?5?$CFs?6?$AA@ 1008db94     win32common.obj
 0003:00000bac       ??_C@_0CN@PFAMJPCE@Sys_DLL_Unload?3?5FreeLibrary?5fail@ 1008dbac     win32common.obj
 0003:00000be0       __real@412e848000000000    1008dbe0     win32common.obj
 0003:00000be8       ??_C@_04CFGHHCHG@?$HOmhz?$AA@ 1008dbe8     win32common.obj
 0003:00000bf0       ??_C@_04IFFFNNEI@?$HOMhz?$AA@ 1008dbf0     win32common.obj
 0003:00000bf8       ??_C@_04LNBIJLKI@?$HOMHz?$AA@ 1008dbf8     win32common.obj
 0003:00000c00       ??_C@_0CP@JONMPIIP@HARDWARE?2DESCRIPTION?2System?2Cent@ 1008dc00     win32common.obj
 0003:00000c30       __real@0000000000000000    1008dc30     win32common.obj
 0003:00000c38       ??_C@_13FPGAJAPJ@?$AA?2?$AA?$AA@ 1008dc38     win32common.obj
 0003:00000c3c       ??_C@_0N@MDJJJHMB@kernel32?4dll?$AA@ 1008dc3c     win32common.obj
 0003:00000c4c       ??_C@_1BK@MGMFAEKH@?$AAk?$AAe?$AAr?$AAn?$AAe?$AAl?$AA3?$AA2?$AA?4?$AAd?$AAl?$AAl?$AA?$AA@ 1008dc4c     win32common.obj
 0003:00000c68       ??_C@_0N@IIFGDKON@?5hr?5?$CFd?5?3?5?$CFs?6?$AA@ 1008dc68     win32common.obj
 0003:00000c78       ?npos@?$basic_string@DU?$char_traits@D@std@@V?$allocator@D@2@@std@@2IB 1008dc78     win32common.obj
 0003:00000c7c       ??_C@_0BI@CFPLBAOH@invalid?5string?5position?$AA@ 1008dc7c     win32common.obj
 0003:00000c94       ??_C@_0BA@JFNIOLAK@string?5too?5long?$AA@ 1008dc94     win32common.obj
 0003:00000ca8       ??_7bad_alloc@std@@6B@     1008dca8     win32common.obj
 0003:00000cb4       ??_7CKdvAudioAec@@6B@      1008dcb4     aec.obj
 0003:00000cb8       ??_C@_08FEDHJCBA@far_end_?$AA@ 1008dcb8     aec.obj
 0003:00000cc4       ??_C@_09KHBHOGMO@near_end_?$AA@ 1008dcc4     aec.obj
 0003:00000cd0       ??_C@_04OGMFGFMM@aec_?$AA@ 1008dcd0     aec.obj
 0003:00000cd8       ??_C@_0BF@GDLKGEAH@AEC?5SetRefSig?5error?6?$AA@ 1008dcd8     aec.obj
 0003:00000cf0       ??_C@_0BD@IPGLIAC@aec?5process?5error?6?$AA@ 1008dcf0     aec.obj
 0003:00000d08       ??_C@_0EG@FBDEMJHG@k?3?2cbb?2media?2mediacontrol_sky?240@ 1008dd08     aec.obj
 0003:00000d50       ??_C@_05PLJIFKAG@?5?$CFs?5?6?$AA@ 1008dd50     aec.obj
 0003:00000d58       ??_C@_0BH@IOJOFHMF@far?5end?5resample?5error?$AA@ 1008dd58     aec.obj
 0003:00000d70       ??_C@_0BJ@CAMHMLHJ@near?5end?5resample?5error?5?$AA@ 1008dd70     aec.obj
 0003:00000d8c       ??_C@_0BI@LMAGDFJJ@process?5failed?5cnt?5?$CFd?5?6?$AA@ 1008dd8c     aec.obj
 0003:00000da4       ??_C@_0N@HGADNMFA@rest?5cnt?5?$CFd?6?$AA@ 1008dda4     aec.obj
 0003:00000db4       ??_C@_0N@OFJIALOK@delay?5?$CFd?5ms?6?$AA@ 1008ddb4     aec.obj
 0003:00000dc4       ??_C@_0BD@KPDHIPFJ@ref?5?9?5proc?5cnt?5?$CFd?6?$AA@ 1008ddc4     aec.obj
 0003:00000dd8       ??_C@_0BB@FOMEBBOD@set?5ref?5cnt?5?$CFd?5?6?$AA@ 1008ddd8     aec.obj
 0003:00000dec       ??_C@_0BB@LOIDNOEI@?5process?5cnt?5?$CFd?6?$AA@ 1008ddec     aec.obj
 0003:00000e00       ??_C@_0CA@POOGKJLO@aec?5status?5?9?9?9?9?9?9?9?9?9?9?9?9?9?9?9?9?9?9?9?6?$AA@ 1008de00     aec.obj
 0003:00000e20       ??_C@_0P@HGHEEKFC@aectestout?4pcm?$AA@ 1008de20     aec.obj
 0003:00000e30       ??_C@_0BL@GAICMLDM@There?5is?5an?5unknown?5Error?$CB?$AA@ 1008de30     auddecoderwrapper.obj
 0003:00000e4c       ??_C@_0N@GKKJENJL@to?5file?5end?$CB?$AA@ 1008de4c     auddecoderwrapper.obj
 0003:00000e5c       ??_C@_0DJ@NEEOJKMC@not?5supported?5codec?5format?5id?0?5c@ 1008de5c     auddecoderwrapper.obj
 0003:00000e98       ??_C@_0CK@GEOFEFKK@there?5is?5too?5much?5stream?5or?5vide@ 1008de98     auddecoderwrapper.obj
 0003:00000ec4       ??_C@_0BH@OFDNDPIN@Input?5pointer?5is?5NULL?$CB?$AA@ 1008dec4     auddecoderwrapper.obj
 0003:00000edc       ??_C@_0BF@IJNDDEF@Create?5thread?5ERROR?$CB?$AA@ 1008dedc     auddecoderwrapper.obj
 0003:00000ef4       ??_C@_0BE@EJOBLLJG@Create?5file?5ERROR?5?$CB?$AA@ 1008def4     auddecoderwrapper.obj
 0003:00000f08       ??_C@_0BC@BMKJGNFF@Seek?5file?5ERROR?5?$CB?$AA@ 1008df08     auddecoderwrapper.obj
 0003:00000f20       ??_C@_0EM@LLDNEFNP@Write?5file?5ERROR?5for?5the?5put?5byt@ 1008df20     auddecoderwrapper.obj
 0003:00000f70       ??_C@_0EL@KHOKDJNB@Read?5file?5ERROR?5for?5the?5get?5byte@ 1008df70     auddecoderwrapper.obj
 0003:00000fbc       ??_C@_0CE@PCPHMPJH@Failed?5in?5newing?5space?5for?5point@ 1008dfbc     auddecoderwrapper.obj
 0003:00000fe0       ??_C@_0CM@DONOLCAN@There?5is?5not?5enough?5space?5for?5wr@ 1008dfe0     auddecoderwrapper.obj
 0003:0000100c       ??_C@_0BO@PNAIMLJB@The?5file?5is?5only?5for?5reading?$CB?$AA@ 1008e00c     auddecoderwrapper.obj
 0003:00001030       ??_C@_0FN@IBBOEOCC@The?5input?5parameter?5is?5illegal?0f@ 1008e030     auddecoderwrapper.obj
 0003:00001090       ??_C@_0CF@EFHMHMCE@Cannot?5get?5value?5by?5the?5given?5in@ 1008e090     auddecoderwrapper.obj
 0003:000010b8       ??_C@_0BP@KJGOPHNH@It?5is?5a?5wrong?5index?5of?5Object?$CB?$AA@ 1008e0b8     auddecoderwrapper.obj
 0003:000010d8       ??_C@_0CH@BDMGKNOD@Cannot?5find?5Object?5by?5the?5given?5@ 1008e0d8     auddecoderwrapper.obj
 0003:00001100       ??_C@_0HA@FIHMBLEE@The?5opened?5file?5is?5invalid?0?5it?5m@ 1008e100     auddecoderwrapper.obj
 0003:00001170       ??_C@_0FM@DGLEEBDB@Open?5the?5file?5FAILED?5for?5ASF?5fil@ 1008e170     auddecoderwrapper.obj
 0003:000011cc       ??_C@_0BF@BFCBBKJK@No?5Error?0?5return?5OK?$CB?$AA@ 1008e1cc     auddecoderwrapper.obj
 0003:000011e4       ??_C@_1BM@ICGOKEHJ@?$AA_?$AAD?$AAE?$AAF?$AAA?$AAU?$AAL?$AAT?$AAC?$AAR?$AAI?$AAS?$AAP?$AA?$AA@ 1008e1e4     auddecoderwrapper.obj
 0003:00001200       ??_C@_1CG@BLFMNCNP@?$AA_?$AAP?$AAA?$AAS?$AAS?$AAE?$AAS?$AAR?$AAE?$AAC?$AAO?$AAM?$AAM?$AAE?$AAN?$AAD?$AAE?$AAD?$AA?$AA@ 1008e200     auddecoderwrapper.obj
 0003:00001228       ??_C@_1BI@GEAJCKEC@?$AA_?$AAV?$AAB?$AAR?$AAQ?$AAU?$AAA?$AAL?$AAI?$AAT?$AAY?$AA?$AA@ 1008e228     auddecoderwrapper.obj
 0003:00001240       ??_C@_1BI@EDEFDPHB@?$AA_?$AAV?$AAB?$AAR?$AAE?$AAN?$AAA?$AAB?$AAL?$AAE?$AAD?$AA?$AA@ 1008e240     auddecoderwrapper.obj
 0003:00001258       ??_C@_1CG@LBHBEAMI@?$AA_?$AAS?$AAU?$AAP?$AAP?$AAO?$AAR?$AAT?$AAE?$AAD?$AAV?$AAB?$AAR?$AAM?$AAO?$AAD?$AAE?$AAS?$AA?$AA@ 1008e258     auddecoderwrapper.obj
 0003:00001280       ??_C@_1BG@DMLGAEDB@?$AA_?$AAC?$AAO?$AAD?$AAE?$AAC?$AAN?$AAA?$AAM?$AAE?$AA?$AA@ 1008e280     auddecoderwrapper.obj
 0003:00001298       ??_C@_1CA@OPNPHBEF@?$AAS?$AAp?$AAe?$AAe?$AAc?$AAh?$AAF?$AAo?$AAr?$AAm?$AAa?$AAt?$AAC?$AAa?$AAp?$AA?$AA@ 1008e298     auddecoderwrapper.obj
 0003:000012bc       ??_7CKdvEncoder@@6B@       1008e2bc     auddecoderwrapper.obj
 0003:000012c4       ??_7CKdvDecoder@@6B@       1008e2c4     auddecoderwrapper.obj
 0003:000012cc       ??_7CAudDecWrapper@@6B@    1008e2cc     auddecoderwrapper.obj
 0003:000012d4       ??_C@_0CF@GPGPHKND@?$DO?$DO?$DO?$DO?$DO?$DO?$DO?$DO?$DO?$DO?$DO?$DO?$DO?$DOAud?5Rcv?5Framerate?3@ 1008e2d4     auddecoderwrapper.obj
 0003:00001300       __real@411e74e000000000    1008e300     auddecoderwrapper.obj
 0003:00001308       ??_C@_11LOCGONAA@?$AA?$AA@ 1008e308     auddecoderwrapper.obj
 0003:0000130c       ??_C@_1CC@NEJFDFBO@?$AAA?$AAu?$AAd?$AAD?$AAe?$AAc?$AAS?$AAp?$AAe?$AAP?$AAr?$AAo?$AAf?$AAi?$AAl?$AAe?$AA?$AA@ 1008e30c     auddecoderwrapper.obj
 0003:00001330       ??_C@_1CC@GJGBIGLO@?$AAA?$AAu?$AAd?$AAi?$AAo?$AAD?$AAe?$AAc?$AAS?$AAp?$AAe?$AAL?$AAe?$AAv?$AAe?$AAl?$AA?$AA@ 1008e330     auddecoderwrapper.obj
 0003:00001358       ??_C@_0FE@KDBBIMCM@k?3?2cbb?2media?2mediacontrol_sky?240@ 1008e358     auddecoderwrapper.obj
 0003:000013ac       ??_C@_0CI@LLENIIOK@SPE?5ERROR?3?5memory?5initial?5error?$CB@ 1008e3ac     auddecoderwrapper.obj
 0003:000013d4       ??_C@_0BJ@JFNFGAOA@?$FLCKdvAudioDec?3?3Create?$FN?5?6?$AA@ 1008e3d4     auddecoderwrapper.obj
 0003:000013f0       ??_C@_0L@PINHAAJI@aftdec?4pcm?$AA@ 1008e3f0     auddecoderwrapper.obj
 0003:000013fc       ??_C@_0O@GGCGBAAP@audiodec?4data?$AA@ 1008e3fc     auddecoderwrapper.obj
 0003:0000140c       ??_C@_0L@CGMAHCAK@?$CFdK?$CFdbit?$CFs?$AA@ 1008e40c     auddecoderwrapper.obj
 0003:00001418       ??_C@_07PACIMHHK@Stereo_?$AA@ 1008e418     auddecoderwrapper.obj
 0003:00001420       ??_C@_05EDMIOKME@Mono_?$AA@ 1008e420     auddecoderwrapper.obj
 0003:00001428       ??_C@_0CD@FMANPMOD@Audio?5recv?5data?5type?5not?5suporte@ 1008e428     auddecoderwrapper.obj
 0003:0000144c       ??_C@_0CK@KDIPPEHJ@MediaSdk?$DN?$DN?$DN?$DNaudiodec?5SetTatioOpu@ 1008e44c     auddecoderwrapper.obj
 0003:00001478       ??_C@_0BC@LPHKDKHB@audio?5dec?5error?5?6?$AA@ 1008e478     auddecoderwrapper.obj
 0003:00001490       ??_C@_0FB@BLNOGHAM@aud?5dec?5pcm?5write?5not?5complete?5?0@ 1008e490     auddecoderwrapper.obj
 0003:000014e4       ??_C@_08DNDNKAGG@decpost_?$AA@ 1008e4e4     auddecoderwrapper.obj
 0003:000014f0       ??_C@_0DD@OAIABPJC@Cur?5Audio?5DecBuf?5Frame?3?5?$CFd?0?5Hist@ 1008e4f0     auddecoderwrapper.obj
 0003:00001524       ??_C@_0CJ@DKHMFAKI@?$DN?$DN?$DN?$DNm_cPreDecDataLoopBuf?5LoopBuf@ 1008e524     auddecoderwrapper.obj
 0003:00001550       ??_C@_0FA@BDGBPGIP@audio?5data?5write?5not?5complete?5?0?5@ 1008e550     auddecoderwrapper.obj
 0003:000015a0       ??_C@_0CB@PNNFLJPE@audio?5recv?5indexlose?5?3?5?$CFd?5?9?$DO?5?$CFd?6@ 1008e5a0     auddecoderwrapper.obj
 0003:000015c4       ??_C@_0BG@CIBLNIEG@Audio?5recv?5data?5NULL?6?$AA@ 1008e5c4     auddecoderwrapper.obj
 0003:000015dc       ??_C@_0CI@IMPJHIFJ@Set?5audio?5recv?5addr?5?5medianet?5er@ 1008e5dc     auddecoderwrapper.obj
 0003:00001604       ??_C@_0CF@OPJKDMFO@Dec?5Volume?5is?5the?5same?5as?5last?5o@ 1008e604     auddecoderwrapper.obj
 0003:0000162c       ??_C@_0BJ@FOOLOBNP@m_pDecPostProc?5is?5null?$CB?6?$AA@ 1008e62c     auddecoderwrapper.obj
 0003:00001648       ??_C@_0BG@IIGLPBPP@m_pAudMixer?5is?5null?$CB?6?$AA@ 1008e648     auddecoderwrapper.obj
 0003:00001660       ??_C@_0DD@KBLOJBFM@AudioRcvEnableKeepAlive?5ptKeepAl@ 1008e660     auddecoderwrapper.obj
 0003:00001694       ??_C@_0BL@LBJCLLBK@?6Read?5Audio?5File?5Failed5?$CB?6?$AA@ 1008e694     auddecoderwrapper.obj
 0003:000016b0       ??_C@_0BL@JCONMHP@?6Read?5Audio?5File?5Failed4?$CB?6?$AA@ 1008e6b0     auddecoderwrapper.obj
 0003:000016cc       ??_C@_0BL@GMOCAHIG@?6Seek?5Audio?5File?5Failed3?$CB?6?$AA@ 1008e6cc     auddecoderwrapper.obj
 0003:000016e8       ??_C@_0BL@CMEFIDKD@?6Read?5Audio?5File?5Failed2?$CB?6?$AA@ 1008e6e8     auddecoderwrapper.obj
 0003:00001704       ??_C@_0BL@MGOLMPAN@?6Seek?5Audio?5File?5Failed1?$CB?6?$AA@ 1008e704     auddecoderwrapper.obj
 0003:00001720       ??_C@_15JJPIMNBO@?$AAr?$AAb?$AA?$AA@ 1008e720     auddecoderwrapper.obj
 0003:00001728       ??_C@_1BK@OJICGIIP@?$AA?2?$AAp?$AAl?$AAa?$AAy?$AA_?$AA3?$AA2?$AA?4?$AAp?$AAc?$AAm?$AA?$AA@ 1008e728     auddecoderwrapper.obj
 0003:00001744       ??_C@_1BI@JPCFONCN@?$AAm?$AAe?$AAd?$AAi?$AAa?$AAs?$AAd?$AAk?$AAv?$AA1?$AA0?$AA?$AA@ 1008e744     auddecoderwrapper.obj
 0003:00001760       __real@4024000000000000    1008e760     auddecoderwrapper.obj
 0003:00001768       __real@41d0000000000000    1008e768     auddecoderwrapper.obj
 0003:00001770       ??_C@_09KMLHGPCD@Playtest_?$AA@ 1008e770     auddecoderwrapper.obj
 0003:0000177c       ??_C@_0CA@CJNNMIDD@?$DO?$DO?$DO?$DO?$DO?$DO?$DO?$DO?$DO?$DO?$DO?$DO?$DO?$DO?5m_bSpe?5?$DN?$DN?5false?6?$AA@ 1008e77c     auddecoderwrapper.obj
 0003:0000179c       ??_C@_0CF@KPGJJBPC@?$DO?$DO?$DO?$DO?$DO?$DO?$DO?$DO?$DO?$DO?$DO?$DO?$DO?$DOm_ptSpeHandle?5?$DN?$DN?5N@ 1008e79c     auddecoderwrapper.obj
 0003:000017c4       ??_C@_0BE@OOBMNPPL@c?3?2yuv?2SpeAfter?4pcm?$AA@ 1008e7c4     auddecoderwrapper.obj
 0003:000017d8       ??_C@_02GMLFBBN@wb?$AA@    1008e7d8     auddecoderwrapper.obj
 0003:000017dc       ??_C@_0CE@JEEODMEN@?$DO?$DO?$DO?$DO?$DO?$DO?$DO?$DO?$DO?$DO?$DO?$DO?$DO?$DOSpe?5process?5wRet?3?5@ 1008e7dc     auddecoderwrapper.obj
 0003:00001800       ??_C@_0BG@CKGOKPPF@Spe?5PROCESS?5error?3?$CFx?6?$AA@ 1008e800     auddecoderwrapper.obj
 0003:00001818       ??_C@_0BA@JPOCKKPL@convert?5error?$CB?6?$AA@ 1008e818     auddecoderwrapper.obj
 0003:00001828       ??_C@_0DK@ICAKIIOC@mediasdk?3?5for?5opus?5Recorder?5GetW@ 1008e828     auddecoderwrapper.obj
 0003:00001864       ??_C@_0DG@KPCCBPAG@Cur?5Audio?5Play?5Save?5Frame?3?5?$CFd?0?5H@ 1008e864     auddecoderwrapper.obj
 0003:0000189c       ??_C@_0CJ@IINHONJB@?$DN?$DN?$DN?$DNm_cPostDecPcmLoopBuf?5LoopBuf@ 1008e89c     auddecoderwrapper.obj
 0003:000018cc       ??_7AudioFrame@mediawrapper@@6B@ 1008e8cc     auddecoderwrapper.obj
 0003:000018d0       ??_C@_1CK@FBBKBHCK@?$AAA?$AAu?$AAd?$AAi?$AAo?$AAP?$AAl?$AAa?$AAy?$AAD?$AAe?$AAv?$AAi?$AAc?$AAe?$AA?5?$AAN?$AAA?$AAM?$AAE?$AA?$AA@ 1008e8d0     auddecoderwrapper.obj
 0003:000018fc       ??_C@_1BC@CIJOCPCG@?$AAM?$AAe?$AAd?$AAi?$AAa?$AAS?$AAd?$AAk?$AA?$AA@ 1008e8fc     auddecoderwrapper.obj
 0003:00001910       ??_C@_1CK@HGNDCGEC@?$AAA?$AAu?$AAd?$AAi?$AAo?$AAP?$AAl?$AAa?$AAy?$AAD?$AAe?$AAv?$AAi?$AAc?$AAe?$AA?5?$AAG?$AAU?$AAI?$AAD?$AA?$AA@ 1008e910     auddecoderwrapper.obj
 0003:0000193c       ??_C@_0BE@DHFPFHAP@?R?t?F?$LF?$LC?$KF?$LH?E?I?y?$LF?$MA?J?$PN?3?5?$CFd?6?$AA@ 1008e93c     auddecoderwrapper.obj
 0003:00001950       ??_C@_0BB@MHBIJDEL@?R?t?F?$LF?$LC?$KF?$LH?E?J?$LB?$LD?$KE?5?$CFd?6?$AA@ 1008e950     auddecoderwrapper.obj
 0003:00001964       ??_C@_0BE@KOFCGLAD@?R?t?F?$LF?$LC?$KF?$LH?E?$LC?I?Q?y?B?J?3?5?$CFd?6?$AA@ 1008e964     auddecoderwrapper.obj
 0003:00001978       ??_C@_0BC@KJDBAPP@?R?t?F?$LF?$LC?$KF?$LH?E?N?$LL?$LP?m?3?5?$CFd?6?$AA@ 1008e978     auddecoderwrapper.obj
 0003:0000198c       ??_C@_0BI@DONMNHJE@?R?t?F?$LF?$LC?$KF?$LH?E?I?h?$LB?$LIID?3?5?5?5?5?5?$CFd?6?$AA@ 1008e98c     auddecoderwrapper.obj
 0003:000019a4       ??_C@_0BG@EOAGLODH@?R?t?F?$LF?J?G?$LH?q?$LC?$KF?$LH?E?3?5?5?5?5?5?$CFd?6?$AA@ 1008e9a4     auddecoderwrapper.obj
 0003:000019bc       ??_C@_0CF@BHDECHOM@?9?9?9?9?9?9?9?9?9?9?9audio?5play?5info?9?9?9?9?9?9@ 1008e9bc     auddecoderwrapper.obj
 0003:000019e4       ??_C@_0BG@MOPPBBOK@?R?t?F?$LF?$LC?$KF?$LH?E?$LL?X?$LF?w?$LE?N?J?$PN?3?5?$CFd?6?$AA@ 1008e9e4     auddecoderwrapper.obj
 0003:000019fc       ??_C@_0BK@MHACEICO@?R?t?F?$LF?$LN?b?B?k?$LE?$PN?$LC?$KF?$LH?E?W?V?$LN?Z?J?$PN?3?5?$CFd?6?$AA@ 1008e9fc     auddecoderwrapper.obj
 0003:00001a18       ??_C@_0BJ@PALBCJLI@?R?t?F?$LF?$LN?b?B?k?F?$LN?$LO?y?B?k?B?J?3?5?$CFdKPS?6?$AA@ 1008ea18     auddecoderwrapper.obj
 0003:00001a34       ??_C@_0BN@FEHGOOK@?R?t?F?$LF?$LN?b?B?k?V?X?$LE?$KL?$LK?s?$LG?$KK?$LA?$PM?B?J?3?5?$CFd?5?$CF?$CF?6?$AA@ 1008ea34     auddecoderwrapper.obj
 0003:00001a54       ??_C@_0BN@HEPLEBID@?R?t?F?$LF?$LN?b?B?k?V?X?$LE?$KL?G?$LA?$LG?$KK?$LA?$PM?B?J?3?5?$CFd?5?$CF?$CF?6?$AA@ 1008ea54     auddecoderwrapper.obj
 0003:00001a74       ??_C@_0BJ@KDPOJBDP@?R?t?F?$LF?$LN?b?B?k?$LG?$KK?J?$KH?V?$KB?B?J?3?5?$CFd?5?$CF?$CF?6?$AA@ 1008ea74     auddecoderwrapper.obj
 0003:00001a90       ??_C@_0BG@JACHAENE@?R?t?F?$LF?$LN?b?B?k?$LG?$KK?J?$KH?V?$KB?J?$PN?3?5?$CFd?6?$AA@ 1008ea90     auddecoderwrapper.obj
 0003:00001aa8       ??_C@_0BG@EEDAKCGH@?R?t?F?$LF?$LN?b?B?k?$LN?S?J?U?V?$KB?J?$PN?3?5?$CFd?6?$AA@ 1008eaa8     auddecoderwrapper.obj
 0003:00001ac0       ??_C@_0BJ@ILLDAEAB@?R?t?F?$LF?$LN?b?B?k?B?k?B?J?3?5?5?5?5?5?$CFdKPS?6?$AA@ 1008eac0     auddecoderwrapper.obj
 0003:00001adc       ??_C@_0BE@NOOFMGDO@?6?6?R?t?F?$LF?$LN?b?B?k?M?$LD?$LM?F?P?E?O?$KC?6?$AA@ 1008eadc     auddecoderwrapper.obj
 0003:00001af0       ??_C@_0DD@HCGHEHEP@?6?$CK?$CK?$CK?$CK?$CK?$CK?$CK?$CK?$CK?$CK?$CK?$CK?$CK?$CK?R?t?F?$LF?$LN?b?B?k?M?$LD?$LM?F?P?E?O?$KC?$CK@ 1008eaf0     auddecoderwrapper.obj
 0003:00001b24       ??_C@_0BC@KAEAIDOB@?R?t?F?$LF?J?G?$LH?q?$LN?S?J?U?3?5?$CFd?6?$AA@ 1008eb24     auddecoderwrapper.obj
 0003:00001b38       ??_C@_0BC@LCLDJCMK@?R?t?F?$LF?J?G?$LH?q?$LN?b?B?k?3?5?$CFd?6?$AA@ 1008eb38     auddecoderwrapper.obj
 0003:00001b4c       ??_C@_0N@MNBMIHFB@?N?$LE?V?$KK?$MA?$OA?P?M?3?$CFd?6?$AA@ 1008eb4c     auddecoderwrapper.obj
 0003:00001b5c       ??_C@_04MCMHBIAO@Red?6?$AA@ 1008eb5c     auddecoderwrapper.obj
 0003:00001b64       ??_C@_08FOADHKAG@ISAC_32?6?$AA@ 1008eb64     auddecoderwrapper.obj
 0003:00001b70       ??_C@_05LJFIGIAH@Opus?6?$AA@ 1008eb70     auddecoderwrapper.obj
 0003:00001b78       ??_C@_06FEFKMCPH@G?4719?6?$AA@ 1008eb78     auddecoderwrapper.obj
 0003:00001b80       ??_C@_06EKLKICPI@G?4722?6?$AA@ 1008eb80     auddecoderwrapper.obj
 0003:00001b88       ??_C@_06HAGIPAP@AACLD?6?$AA@ 1008eb88     auddecoderwrapper.obj
 0003:00001b90       ??_C@_06CEJJJIK@AACLC?6?$AA@ 1008eb90     auddecoderwrapper.obj
 0003:00001b98       ??_C@_04IOHBCIPL@MP3?6?$AA@ 1008eb98     auddecoderwrapper.obj
 0003:00001ba0       ??_C@_06EGOPGNBJ@G?4729?6?$AA@ 1008eba0     auddecoderwrapper.obj
 0003:00001ba8       ??_C@_06EHCNAHCO@G?4728?6?$AA@ 1008eba8     auddecoderwrapper.obj
 0003:00001bb0       ??_C@_07EDHLNCHF@G?4711u?6?$AA@ 1008ebb0     auddecoderwrapper.obj
 0003:00001bb8       ??_C@_07FIFENJNJ@G?4711a?6?$AA@ 1008ebb8     auddecoderwrapper.obj
 0003:00001bc0       ??_C@_0L@NJKPIMPC@G?4722?41?4c?6?$AA@ 1008ebc0     auddecoderwrapper.obj
 0003:00001bcc       ??_C@_0BA@CEAPAKBD@?6?R?t?F?$LF?$LB?$OA?B?k?$MA?$OA?P?M?3?5?$AA@ 1008ebcc     auddecoderwrapper.obj
 0003:00001bdc       ??_C@_0DD@ODBKCOOO@?6?$CK?$CK?$CK?$CK?$CK?$CK?$CK?$CK?$CK?$CK?$CK?$CK?$CK?$CK?R?t?F?$LF?$LN?b?B?k?W?$LE?L?$KM?P?E?O?$KC?$CK@ 1008ebdc     auddecoderwrapper.obj
 0003:00001c10       ??_C@_0CJ@LHNNJCAK@?$DO?$DO?$DO?$DO?$DO?$DOEnableSpe?3?5?$CFd?0?5AudDecSpeLe@ 1008ec10     auddecoderwrapper.obj
 0003:00001c3c       ??_C@_0CF@JCDFBDDH@set?5current?5aud?5reduce?5to?5radio?5@ 1008ec3c     auddecoderwrapper.obj
 0003:00001c64       ??_C@_0CB@BDGJIIJB@current?5aud?5reduce?5to?5radio?5?3?$CFd?6@ 1008ec64     auddecoderwrapper.obj
 0003:00001c88       ?npos@?$basic_string@_WU?$char_traits@_W@std@@V?$allocator@_W@2@@std@@2IB 1008ec88     auddecoderwrapper.obj
 0003:00001c90       ??_7CAudEncWrapper@@6B@    1008ec90     audencoderwrapper.obj
 0003:00001c98       ??_C@_0FE@IJCEHPBK@k?3?2cbb?2media?2mediacontrol_sky?240@ 1008ec98     audencoderwrapper.obj
 0003:00001cec       ??_C@_0BP@GPPEHOPD@no?5captruing?5or?5enc?5stuck?$CB?$CB?$CB?$CB?6?$AA@ 1008ecec     audencoderwrapper.obj
 0003:00001d0c       ??_C@_0BP@NOLLOCDD@SetNetSndAudioParam?5error?3?$CFd?5?6?$AA@ 1008ed0c     audencoderwrapper.obj
 0003:00001d2c       ??_C@_0CB@EIJLBGNP@mediasdk?5audSnd?5create?5error?3?$CFd?6@ 1008ed2c     audencoderwrapper.obj
 0003:00001d50       ??_C@_0DC@GBAEMHGA@mediasdk?5aud?5enc?5bufferpcmforenc@ 1008ed50     audencoderwrapper.obj
 0003:00001d84       ??_C@_0CF@HLCKOBJB@Enc?5Volume?5is?5the?5same?5as?5last?5o@ 1008ed84     audencoderwrapper.obj
 0003:00001dac       ??_C@_0BI@MBALKEAD@m_pEncPreProc?5is?5null?$CB?6?$AA@ 1008edac     audencoderwrapper.obj
 0003:00001dc4       ??_C@_0BJ@PKAODDLC@?5cant?5open?5audio?5codec?5?6?$AA@ 1008edc4     audencoderwrapper.obj
 0003:00001de0       ??_C@_0CB@GOKGLMMF@?5audio?5mode?5Encoder?5Reinited?5?$CFd?6@ 1008ede0     audencoderwrapper.obj
 0003:00001e04       ??_C@_0CP@GKDHHNBO@mediasdk?5aud?5enc?5setRatioOpus?5en@ 1008ee04     audencoderwrapper.obj
 0003:00001e34       ??_C@_0DA@MMNDLBOE@mediasdk?5aud?5enc?5init?5G722?41?4c?5e@ 1008ee34     audencoderwrapper.obj
 0003:00001e64       ??_C@_0N@PIICBJHJ@enc_preproc_?$AA@ 1008ee64     audencoderwrapper.obj
 0003:00001e74       ??_C@_0CC@FCJJBLOE@Vad?5ERROR?3?5VadReset?5error?$CB?50x?$CFx?4@ 1008ee74     audencoderwrapper.obj
 0003:00001e98       ??_C@_0CI@ODEGLOJI@Vad?5ERROR?3?5memory?5initial?5error?$CB@ 1008ee98     audencoderwrapper.obj
 0003:00001ec0       ??_C@_0BN@OAIMEMBF@audio?5wav?5head?5no?5exist?5?$CFd?$DL?6?$AA@ 1008eec0     audencoderwrapper.obj
 0003:00001ee0       ??_C@_0BJ@IFBKNHHI@audio?5mode?5is?5error?5?$CFd?$DL?6?$AA@ 1008eee0     audencoderwrapper.obj
 0003:00001efc       ??_C@_1M@OBKONMOP@?$AAM?$AAi?$AAx?$AAe?$AAr?$AA?$AA@ 1008eefc     audencoderwrapper.obj
 0003:00001f08       ??_C@_15ELIHNDDN@m?w?$JH?s?$AA?$AA@ 1008ef08     audencoderwrapper.obj
 0003:00001f10       ??_C@_17EBHJCIPM@z?KOSX?p?$AA?$AA@ 1008ef10     audencoderwrapper.obj
 0003:00001f18       ??_C@_1CI@DLMFGGFB@?$AAA?$AAu?$AAd?$AAi?$AAo?$AAC?$AAa?$AAp?$AAD?$AAe?$AAv?$AAi?$AAc?$AAe?$AA?5?$AAN?$AAA?$AAM?$AAE?$AA?$AA@ 1008ef18     audencoderwrapper.obj
 0003:00001f40       ??_C@_1CI@BMAMFHDJ@?$AAA?$AAu?$AAd?$AAi?$AAo?$AAC?$AAa?$AAp?$AAD?$AAe?$AAv?$AAi?$AAc?$AAe?$AA?5?$AAG?$AAU?$AAI?$AAD?$AA?$AA@ 1008ef40     audencoderwrapper.obj
 0003:00001f68       ??_C@_0P@LBEIHKPF@send?5error?5?$CFd?6?$AA@ 1008ef68     audencoderwrapper.obj
 0003:00001f78       ??_C@_0BD@PHGFHPFK@cap?5pcm?5not?5match?6?$AA@ 1008ef78     audencoderwrapper.obj
 0003:00001f8c       ??_C@_0BD@GKGCBKE@cap?5pcm?5data?5NULL?6?$AA@ 1008ef8c     audencoderwrapper.obj
 0003:00001fa0       ??_C@_0BG@FHOIDNPN@?R?t?F?$LF?$LC?I?$LM?$KP?$LL?X?$LF?w?$LE?N?J?$PN?3?5?$CFd?6?$AA@ 1008efa0     audencoderwrapper.obj
 0003:00001fb8       ??_C@_0BE@ELAADMJN@?R?t?F?$LF?$LC?I?$LM?$KP?I?y?$LF?$MA?J?$PN?3?5?$CFd?6?$AA@ 1008efb8     audencoderwrapper.obj
 0003:00001fcc       ??_C@_0BE@JBGEEMND@?R?t?F?$LF?$LC?I?$LM?$KP?J?$LB?$LD?$KE?5?$CFd?5?$CF?$CF?6?$AA@ 1008efcc     audencoderwrapper.obj
 0003:00001fe0       ??_C@_0BE@NCANAAJB@?R?t?F?$LF?$LC?I?$LM?$KP?$LC?I?Q?y?B?J?3?5?$CFd?6?$AA@ 1008efe0     audencoderwrapper.obj
 0003:00001ff4       ??_C@_0BC@FNDDBJOI@?R?t?F?$LF?$LC?I?$LM?$KP?N?$LL?$LP?m?3?5?$CFd?6?$AA@ 1008eff4     audencoderwrapper.obj
 0003:00002008       ??_C@_0BI@JIHKGPG@?R?t?F?$LF?$LC?I?$LM?$KP?I?h?$LB?$LIID?3?5?5?5?5?5?$CFd?6?$AA@ 1008f008     audencoderwrapper.obj
 0003:00002020       ??_C@_0BG@BJKGLHCA@?R?t?F?$LF?J?G?$LH?q?$LC?I?$LM?$KP?3?5?5?5?5?5?$CFd?6?$AA@ 1008f020     audencoderwrapper.obj
 0003:00002038       ??_C@_0CE@OPCJJNCJ@?9?9?9?9?9?9?9?9?9?9?9audio?5cap?5info?9?9?9?9?9?9?9@ 1008f038     audencoderwrapper.obj
 0003:0000205c       ??_C@_0BJ@OHEDAIIJ@?R?t?F?$LF?F?$LN?$LO?y?B?k?B?J?3?5?5?5?5?5?$CFdKPS?6?$AA@ 1008f05c     audencoderwrapper.obj
 0003:00002078       ??_C@_0BJ@HGHGHPEA@?R?t?F?$LF?$LB?$OA?B?k?B?k?B?J?3?5?5?5?5?5?$CFdKPS?6?$AA@ 1008f078     audencoderwrapper.obj
 0003:00002094       ??_C@_0BB@EHHBKFBG@?R?t?F?$LF?$LE?m?V?$KB?J?$PN?7?7?5?$CFd?6?$AA@ 1008f094     audencoderwrapper.obj
 0003:000020a8       ??_C@_0BD@DMEEAHID@?R?t?F?$LF?R?Q?$LH?$KC?$LA?$PM?J?$PN?7?7?5?$CFd?6?$AA@ 1008f0a8     audencoderwrapper.obj
 0003:000020bc       ??_C@_0BD@HOGKEPCL@?R?t?F?$LF?J?G?$LH?q?$LH?$KC?K?M?7?7?5?$CFd?6?$AA@ 1008f0bc     audencoderwrapper.obj
 0003:000020d0       ??_C@_0BA@NIBPEICM@?R?t?F?$LF?$LB?$OA?B?k?M?$LD?$LM?F?$KD?$LK?6?$AA@ 1008f0d0     audencoderwrapper.obj
 0003:000020e0       ??_C@_0BB@CPCIIOKD@?R?t?F?$LF?$LB?$OA?B?k?N?$LL?$LP?m?5?$CFd?6?$AA@ 1008f0e0     audencoderwrapper.obj
 0003:000020f4       ??_C@_0BB@MPDPCLH@?R?t?F?$LF?$LB?$OA?B?k?J?$LB?$LD?$KE?5?$CFd?6?$AA@ 1008f0f4     audencoderwrapper.obj
 0003:00002108       ??_C@_0BD@HCKNPMKO@?R?t?F?$LF?$LB?$OA?B?k?I?y?$LF?$MA?J?$PN?5?$CFd?6?$AA@ 1008f108     audencoderwrapper.obj
 0003:0000211c       ??_C@_0BD@HGMAEKKN@?R?t?F?$LF?$LB?$OA?B?k?$LC?I?Q?y?B?J?5?$CFd?6?$AA@ 1008f11c     audencoderwrapper.obj
 0003:00002130       ??_C@_0N@BFBEDLND@?R?t?F?$LFmode?3?$CFd?6?$AA@ 1008f130     audencoderwrapper.obj
 0003:00002140       ??_C@_0BF@JDMENMON@?9?9?9?R?t?F?$LF?$LB?$OA?B?k?$LC?N?J?$PN?9?9?9?9?6?$AA@ 1008f140     audencoderwrapper.obj
 0003:00002158       ??_C@_0L@MMPMDIFH@preenc?4pcm?$AA@ 1008f158     audencoderwrapper.obj
 0003:00002164       ??_C@_0O@CMDHBIBK@audioenc?4data?$AA@ 1008f164     audencoderwrapper.obj
 0003:00002174       ??_C@_0BB@MDCODBIE@encoder?5failed?5?6?$AA@ 1008f174     audencoderwrapper.obj
 0003:00002188       ??_C@_0CL@CNKEMDKP@?$DO?$DO?$DO?$DO?$DO?$DO?$DO?$DOreduece?5Volume?3?5?$CFd?0?5Adju@ 1008f188     audencoderwrapper.obj
 0003:000021b4       ??_C@_0BG@FNIKIHNC@VAD?5PROCESS?5error?3?$CFx?6?$AA@ 1008f1b4     audencoderwrapper.obj
 0003:000021cc       ??_C@_0BA@MBPOMKLN@?5loop?5buf?5full?6?$AA@ 1008f1cc     audencoderwrapper.obj
 0003:00002258       ??_C@_0EO@CJGMGDHO@k?3?2cbb?2media?2mediacontrol_sky?240@ 1008f258     audiocapdmo.obj
 0003:000022a8       ??_C@_0DA@BLGBGCIC@?5CoInitializeEx?$CINULL?0?5COINIT_MUL@ 1008f2a8     audiocapdmo.obj
 0003:000022dc       ??_7CAudioCapDmo@@6BCTaskCreate@@@ 1008f2dc     audiocapdmo.obj
 0003:000022e8       ??_7CAudioCapDmo@@6BCAudioCapCom@@@ 1008f2e8     audiocapdmo.obj
 0003:00002304       ??_7CAudioCapCom@@6B@      1008f304     audiocapdmo.obj
 0003:0000231c       ??_C@_0BG@GJMNKFJG@create?5thread?5failed?6?$AA@ 1008f31c     audiocapdmo.obj
 0003:00002334       ??_C@_0M@PKFODKD@audiocapdmo?$AA@ 1008f334     audiocapdmo.obj
 0003:00002340       __GUID_bcde0395_e52f_467c_8e3d_c4579291692e 1008f340     audiocapdmo.obj
 0003:00002350       __GUID_a95664d2_9614_4f35_a746_de8db63617e6 1008f350     audiocapdmo.obj
 0003:00002360       ??_C@_0BL@JBHFGKBB@CWMAudioAEC?5error8?$CB?5hr?3?$CFx?6?$AA@ 1008f360     audiocapdmo.obj
 0003:0000237c       ??_C@_0BL@GAHODBJM@CWMAudioAEC?5error7?$CB?5hr?3?$CFx?6?$AA@ 1008f37c     audiocapdmo.obj
 0003:00002398       ??_C@_0BL@IPLMFKKC@CWMAudioAEC?5error6?$CB?5hr?3?$CFx?6?$AA@ 1008f398     audiocapdmo.obj
 0003:000023b4       ??_C@_0BL@GEILOBKB@CWMAudioAEC?5error5?$CB?5hr?3?$CFx?6?$AA@ 1008f3b4     audiocapdmo.obj
 0003:000023d0       ??_C@_0BL@ILEJIKJP@CWMAudioAEC?5error4?$CB?5hr?3?$CFx?6?$AA@ 1008f3d0     audiocapdmo.obj
 0003:000023ec       ??_C@_0BL@GJJFJBOG@CWMAudioAEC?5error3?$CB?5hr?3?$CFx?6?$AA@ 1008f3ec     audiocapdmo.obj
 0003:00002408       ??_C@_0BL@JBCMOOJL@CWMAudioAEC?5error2?5?5hr?3?$CFx?6?$AA@ 1008f408     audiocapdmo.obj
 0003:00002424       ??_C@_0BC@BIHDPABE@audio?5captruing?5?6?$AA@ 1008f424     audiocapdmo.obj
 0003:0000243c       ??_7MediaBufferImpl@@6B@   1008f43c     audiocapdmo.obj
 0003:00002454       ??_C@_0BO@OMGDDFP@Com?5interface?5failed?3?5Cap?5API?$AA@ 1008f454     audiocapdmo.obj
 0003:00002474       ??_C@_0BM@CMALAFFF@wave?5in?5start?5thread?5error?6?$AA@ 1008f474     audiocapdmo.obj
 0003:00002490       ??_C@_0BO@BBGEPNCN@failed?5to?5activate?5recording?6?$AA@ 1008f490     audiocapdmo.obj
 0003:000024b0       ??_C@_0BI@PIEDLAJD@SetLength?5error?$CB?5hr?3?$CFx?6?$AA@ 1008f4b0     audiocapdmo.obj
 0003:000024c8       ??_C@_0CB@NAIPBNOK@GetBufferAndLength?5error?$CB?5hr?3?$CFx?6@ 1008f4c8     audiocapdmo.obj
 0003:000024ec       ??_C@_0BM@IMLPHJGM@ProcessOutput?5error?$CB?5hr?3?$CFx?6?$AA@ 1008f4ec     audiocapdmo.obj
 0003:00002508       ??_C@_0DA@DJNEBOHC@EventWrapper?3?3Wait?$CI?$CJ?5failed?5?$DN?$DO?5r@ 1008f508     audiocapdmo.obj
 0003:00002538       ??_C@_0FB@GEELJOOF@k?3?2cbb?2media?2mediacontrol_sky?240@ 1008f538     audiocapwasapi.obj
 0003:00002590       ??_7CAudioCapWasapi@@6BCTaskCreate@@@ 1008f590     audiocapwasapi.obj
 0003:0000259c       ??_7CAudioCapWasapi@@6BCAudioCapCom@@@ 1008f59c     audiocapwasapi.obj
 0003:000025b4       ??_C@_0BO@MGAKBLDO@m_cCapStopEvent?5wait?5timeout?6?$AA@ 1008f5b4     audiocapwasapi.obj
 0003:000025d4       ??_C@_0BK@NAFJAON@m_cCapStopEvent?5wait?5err?6?$AA@ 1008f5d4     audiocapwasapi.obj
 0003:000025f0       ??_C@_0BF@MHAJHNPE@client?5stop?5success?6?$AA@ 1008f5f0     audiocapwasapi.obj
 0003:00002608       ??_C@_0P@OPGBAAAN@audiocapwasapi?$AA@ 1008f608     audiocapwasapi.obj
 0003:00002618       ??_C@_0CM@MPNDELDC@audio?5cap?5date?5error?5framesize?5n@ 1008f618     audiocapwasapi.obj
 0003:00002644       ??_C@_0BL@GOJDEIPK@AUDCLNT_BUFFERFLAGS_SILENT?$AA@ 1008f644     audiocapwasapi.obj
 0003:00002660       __GUID_c8adbd64_e71e_48a0_a4de_185c395cd317 1008f660     audiocapwasapi.obj
 0003:00002670       ??_C@_0BP@LHFFJING@client?5in?5cap?5buffer?5count?5?$CFd?6?$AA@ 1008f670     audiocapwasapi.obj
 0003:00002690       ??_C@_0BE@FMGOELPK@we?5got?5waveformat?3?6?$AA@ 1008f690     audiocapwasapi.obj
 0003:000026a4       ??_C@_0CC@EAABGPBC@audio?5device?5format?5not?5suported@ 1008f6a4     audiocapwasapi.obj
 0003:000026c8       ??_C@_0BH@FMMMLGGN@cbSize?5?5?5?5?5?5?5?5?5?5?5?5?3?5?$CFd?$AA@ 1008f6c8     audiocapwasapi.obj
 0003:000026e0       ??_C@_0BH@JIDBKHOM@wBitsPerSample?5?5?5?5?3?5?$CFd?$AA@ 1008f6e0     audiocapwasapi.obj
 0003:000026f8       ??_C@_0BH@CNHKKIBJ@nBlockAlign?5?5?5?5?5?5?5?3?5?$CFd?$AA@ 1008f6f8     audiocapwasapi.obj
 0003:00002710       ??_C@_0BH@OLIOPBMH@nAvgBytesPerSec?5?5?5?3?5?$CFd?$AA@ 1008f710     audiocapwasapi.obj
 0003:00002728       ??_C@_0BH@GBKGLCCJ@nSamplesPerSec?5?5?5?5?3?5?$CFd?$AA@ 1008f728     audiocapwasapi.obj
 0003:00002740       ??_C@_0BH@PPFLEFJL@nChannels?5?5?5?5?5?5?5?5?5?3?5?$CFd?$AA@ 1008f740     audiocapwasapi.obj
 0003:00002758       ??_C@_0BO@CAHJGMOK@wFormatTag?5?5?5?5?5?5?5?5?3?50x?$CFX?5?$CI?$CFu?$CJ?$AA@ 1008f758     audiocapwasapi.obj
 0003:00002778       ??_C@_0BF@MNFCICBH@we?5need?5waveformat?3?6?$AA@ 1008f778     audiocapwasapi.obj
 0003:00002790       __GUID_1cb9ad4c_dbfa_4c32_b178_c2f568a703b2 1008f790     audiocapwasapi.obj
 0003:000027a0       ??_C@_0EO@DICBGMJB@k?3?2cbb?2media?2mediacontrol_sky?240@ 1008f7a0     audiocapwav.obj
 0003:000027f0       ??_C@_0DL@CEKFKHGC@waveInMessage?$CIDRV_QUERYFUNCTIONI@ 1008f7f0     audiocapwav.obj
 0003:0000282c       ??_C@_0DP@IIBCAENF@waveInMessage?$CIDRV_QUERYFUNCTIONI@ 1008f82c     audiocapwav.obj
 0003:0000286c       ??_C@_0CE@FGHGMOMF@waveInGetDevCapsW?$CI?$CJ?5failed?5?$CIerr?$DN@ 1008f86c     audiocapwav.obj
 0003:00002890       ??_C@_0BM@GJFKNIOP@_hWaveIn?5is?5now?5set?5to?5NULL?$AA@ 1008f890     audiocapwav.obj
 0003:000028ac       ??_C@_0BO@BLLCNFHM@waveInClose?$CI?$CJ?5failed?5?$CIerr?$DN?$CFd?$CJ?$AA@ 1008f8ac     audiocapwav.obj
 0003:000028cc       ??_C@_0CI@MIPLLGKB@waveInUnprepareHeader?$CI?$CJ?5failed?5?$CI@ 1008f8cc     audiocapwav.obj
 0003:000028f4       ??_C@_0BO@KFLBOJM@waveInReset?$CI?$CJ?5failed?5?$CIerr?$DN?$CFd?$CJ?$AA@ 1008f8f4     audiocapwav.obj
 0003:00002914       ??_C@_0BN@GIDMLIEM@waveInStop?$CI?$CJ?5failed?5?$CIerr?$DN?$CFd?$CJ?$AA@ 1008f914     audiocapwav.obj
 0003:00002934       ??_C@_0BO@EOOJFEBK@waveInOpen?$CI?$CJ?5failed?5?$CIerr?$DN?$CFd?$CJ?6?$AA@ 1008f934     audiocapwav.obj
 0003:00002954       ??_C@_0DE@OHPIMEGD@opening?5input?5device?5correspondi@ 1008f954     audiocapwav.obj
 0003:00002988       ??_C@_0BP@KDEHGHEI@waveInClose?$CI?$CJ?5failed?5?$CIerr?$DN?$CFd?$CJ?6?$AA@ 1008f988     audiocapwav.obj
 0003:000029a8       ??_C@_0BF@IPGOFBB@device?5not?5exist?5?$CFd?6?$AA@ 1008f9a8     audiocapwav.obj
 0003:000029c0       ??_C@_0BO@LENLAAFG@waveInStart?$CI?$CJ?5failed?5?$CIerr?$DN?$CFd?$CJ?$AA@ 1008f9c0     audiocapwav.obj
 0003:000029e0       ??_C@_0CE@JIKNMFLC@waveInAddBuffer?$CI?$CFd?$CJ?5failed?5?$CIerr?$DN@ 1008f9e0     audiocapwav.obj
 0003:00002a04       ??_C@_0CI@PKFEBOJF@waveInPrepareHeader?$CI?$CFd?$CJ?5failed?5?$CI@ 1008fa04     audiocapwav.obj
 0003:00002a2c       ??_C@_0DA@OOIFHICE@waveInGetPosition?$CITIME_SAMPLES?$CJ?5@ 1008fa2c     audiocapwav.obj
 0003:00002a60       ??_7CAudioCapWav@@6BCTaskCreate@@@ 1008fa60     audiocapwav.obj
 0003:00002a6c       ??_7CAudioCapWav@@6BCAudioCapCom@@@ 1008fa6c     audiocapwav.obj
 0003:00002a84       ??_C@_0CC@FCPEKGEB@waveInGetPosition?5failed?5?$CImmr?$DN?$CFd@ 1008fa84     audiocapwav.obj
 0003:00002aa8       ??_C@_0CI@DOGLAIF@msec_read?5error?5?$CIres?5?$CFd?5wrapCoun@ 1008faa8     audiocapwav.obj
 0003:00002ad0       ??_C@_0CG@NAIPMDFM@WRAP?53?5?$CIreadSamples?5?$CFd?5recSample@ 1008fad0     audiocapwav.obj
 0003:00002af8       ??_C@_0CL@JMNAEOFI@WRAP?52?5?$CI_rec_samples_old?5?$CFd?5recS@ 1008faf8     audiocapwav.obj
 0003:00002b24       ??_C@_0CI@BMKBEKHM@AEC?5?$CI_rec_samples_old?5?$CFd?5recSamp@ 1008fb24     audiocapwav.obj
 0003:00002b4c       ??_C@_0BL@BIHDFBEF@WRAP?51?5?$CIrecDifference?5?$DN?$CFd?$CJ?$AA@ 1008fb4c     audiocapwav.obj
 0003:00002b68       ??_C@_0CE@GBFOHAEJ@waveInGetPosition?$CI?$CJ?5failed?5?$CIerr?$DN@ 1008fb68     audiocapwav.obj
 0003:00002b8c       ??_C@_0DF@BGCECLPI@kRecordingError?5message?5posted?3?5@ 1008fb8c     audiocapwav.obj
 0003:00002bc4       ??_C@_0CC@OHCIAGBP@_recPutBackDelay?5increased?5to?5?$CFd@ 1008fbc4     audiocapwav.obj
 0003:00002be8       ??_C@_0CF@NPBIJHOP@waveInAddBuffer?$CI?$CFd?$CJ?5failed?5?$CIerr?$DN@ 1008fbe8     audiocapwav.obj
 0003:00002c10       ??_C@_0CJ@HKHANLFP@waveInPrepareHeader?$CI?$CFd?$CJ?5failed?5?$CI@ 1008fc10     audiocapwav.obj
 0003:00002c3c       ??_C@_0CL@DLLCDLCE@waveInUnprepareHeader?$CI?$CFd?$CJ?5failed@ 1008fc3c     audiocapwav.obj
 0003:00002c68       ??_C@_0BP@BHCFFCOB@nBytesRecorded?$DN?$CFd?5?$DN?$DO?5don?8t?5use?$AA@ 1008fc68     audiocapwav.obj
 0003:00002c8c       ??_7CKdvMp3Codec@@6B@      1008fc8c     audiocodec.obj
 0003:00002c98       ??_7CAudioStreamCallback@@6B@ 1008fc98     audiocodec.obj
 0003:00002ca4       ??_7AudioPacketizationCallback@mediawrapper@@6B@ 1008fca4     audiocodec.obj
 0003:00002cac       ??_C@_0CD@GOFENPHF@acm?5open?5prepare?5OK?9?9?9?9?9?9?9?9?9?9?9?9?9@ 1008fcac     audiocodec.obj
 0003:00002cd0       ??_C@_0CO@JHOLOLLJ@?$FLCKdvMp3Codec?3?3Init?$FN?5?5step?53?5ret@ 1008fcd0     audiocodec.obj
 0003:00002d00       ??_C@_0CM@JBKNFFKN@?$FLCKdvMp3Codec?3?3Init?$FN?5?5step?52?5ret@ 1008fd00     audiocodec.obj
 0003:00002d2c       ??_C@_0BH@MDLGPIEG@acmDriverOpen?5failed?$CB?6?$AA@ 1008fd2c     audiocodec.obj
 0003:00002d44       ??_C@_0BG@JPEECHBF@acmDriverAdd?5failed?$CB?6?$AA@ 1008fd44     audiocodec.obj
 0003:00002d5c       ??_C@_0BI@BHLKFCEC@GetProcAddress?5failed?$CB?6?$AA@ 1008fd5c     audiocodec.obj
 0003:00002d74       ??_C@_0L@PBLAACBO@DriverProc?$AA@ 1008fd74     audiocodec.obj
 0003:00002d80       ??_C@_0BP@EMFEBMOB@GetDriverModuleHandle?5failed?$CB?6?$AA@ 1008fd80     audiocodec.obj
 0003:00002da0       ??_C@_0BE@LBEICAPO@OpenDriver?5failed?$CB?6?$AA@ 1008fda0     audiocodec.obj
 0003:00002db4       ??_C@_1BM@MGAPMAIA@?$AAk?$AAd?$AAt?$AAl?$AAg?$AA7?$AA2?$AA2?$AA1?$AA?4?$AAa?$AAc?$AAm?$AA?$AA@ 1008fdb4     audiocodec.obj
 0003:00002dd0       ??_C@_0ED@PNFJPOGD@?$FLCKdvMp3Codec?3?3Init?$FN?5?5step?51?5ret@ 1008fdd0     audiocodec.obj
 0003:00002e14       ??_C@_0BP@JKIEJAB@?$FLCKdvMp3Codec?3?3Covert?$FN?5mmr?3?$CFd?6?$AA@ 1008fe14     audiocodec.obj
 0003:00002e34       ??_C@_0CE@OKMBIMIO@?$FLCKdvMp3Codec?3?3SetRatio?$FN?5?5byRati@ 1008fe34     audiocodec.obj
 0003:00002e58       ??_C@_0DF@KNNEKGEM@?$FLCKdvMp3Codec?3?3SetRatio?$FN?5?5step?51@ 1008fe58     audiocodec.obj
 0003:00002e90       ??_C@_0CJ@CEFNFECC@m_dwSamplesPerSecond?3?$CFd?0m_dwChan@ 1008fe90     audiocodec.obj
 0003:00002ebc       ??_C@_03FAAAOPJM@red?$AA@  1008febc     audiocodec.obj
 0003:00002ec0       ??_C@_04BPKIMIGM@opus?$AA@ 1008fec0     audiocodec.obj
 0003:00002ec8       ??_C@_04BFLGJADH@ILBC?$AA@ 1008fec8     audiocodec.obj
 0003:00002ed0       ??_C@_04BPIKGJKH@ISAC?$AA@ 1008fed0     audiocodec.obj
 0003:00002ed8       ??_C@_0BN@LDJNIPLP@aud?5play?5?$CFd?5name?5?$CFs?5guid?5?$CFs?6?$AA@ 1008fed8     audiocommand.obj
 0003:00002ef8       ??_C@_0CD@INDBEHAP@?$DN?$DN?$DN?$DN?$DN?$DN?$DN?$DN?$DNaduio?5Play?5devices?$DN?$DN?$DN?$DN?$DN@ 1008fef8     audiocommand.obj
 0003:00002f1c       ??_C@_0CA@GFFOEHIF@aud?5recoder?5?$CFd?5name?5?$CFs?5guid?5?$CFs?6?$AA@ 1008ff1c     audiocommand.obj
 0003:00002f3c       ??_C@_0CG@HJNDODHC@?$DN?$DN?$DN?$DN?$DN?$DN?$DN?$DN?$DNaduio?5recoder?5devices?$DN?$DN@ 1008ff3c     audiocommand.obj
 0003:00002f64       ??_C@_0BK@OPDNJDCN@aud?5play?5name?5?$CFs?5guid?5?$CFs?6?$AA@ 1008ff64     audiocommand.obj
 0003:00002f80       ??_C@_0CB@MBOBCKAH@aud?5cur?5recoder?5name?5?$CFs?5guid?5?$CFs?6@ 1008ff80     audiocommand.obj
 0003:00002fa4       ??_C@_0BG@GPOEMJHG@?$CL?$CL?$CL?$CL?$CL?$CL?$CL?$CL?$CL?$CLenc?5vol?3?$CFd?6?$AA@ 1008ffa4     audiocommand.obj
 0003:00002fbc       ??_C@_09OMDMLNAO@127?40?40?40?$AA@ 1008ffbc     audiocommand.obj
 0003:00002fc8       ??_C@_0BK@EELLJBPB@?9?9?9?9?9?9?9?9?9byAudioPower?3?$CFd?6?$AA@ 1008ffc8     audiocommand.obj
 0003:00002fe4       ??_C@_0CE@NAMCCDLM@?$DN?$DN?$DN?$DN?$DN?$DN?$DN?$DN?$DN?$DN?$DN?$DNget?5audio?5auto?5gain?3@ 1008ffe4     audiocommand.obj
 0003:00003008       ??_C@_07PNHPMFHI@C?3?2YUV?2?$AA@ 10090008     audiocommand.obj
 0003:00003010       ??_C@_0CB@JFJBMOME@?9?9?9?9?9?9?9?9?9Output?5byAudioPower?3?$CFd?6@ 10090010     audiocommand.obj
 0003:00003034       ??_C@_0BG@NHGAACFN@?$CL?$CL?$CL?$CL?$CL?$CL?$CL?$CL?$CL?$CLdec?5vol?3?$CFd?6?$AA@ 10090034     audiocommand.obj
 0003:0000304c       ??_C@_0BH@LFGIFCMA@audio?5decoder?5is?5NULL?6?$AA@ 1009004c     audiocommand.obj
 0003:00003064       ??_C@_0M@NHGOBDML@null?5param?6?$AA@ 10090064     audiocommand.obj
 0003:00003070       ??_C@_0BL@IEDNGAGC@Set?5Audio?5Enc?5Fec?5failure?6?$AA@ 10090070     audiocommand.obj
 0003:0000308c       ??_C@_0BL@FJEAIAJM@Set?5Audio?5Dec?5Fec?5failure?6?$AA@ 1009008c     audiocommand.obj
 0003:000030a8       ??_C@_0BD@PEJOPIKB@wrong?5key?5content?6?$AA@ 100900a8     audiocommand.obj
 0003:000030bc       ??_C@_0BC@KNBMKBII@wrong?5key?5length?6?$AA@ 100900bc     audiocommand.obj
 0003:00003768       __real@3fe0000000000000    10090768     audiocommon.obj
 0003:00003770       __real@3ff0000000000000    10090770     audiocommon.obj
 0003:00003778       ??_C@_0FB@ICKOENNF@k?3?2cbb?2media?2mediacontrol_sky?240@ 10090778     audiodeviceman.obj
 0003:000037cc       ??_C@_0DL@KHKBFDID@?5Need?5data?5to?5Play?5?$CFdhz?5chn?3?5?$CFd?5@ 100907cc     audiodeviceman.obj
 0003:00003808       ??_C@_0DF@MGLNLHGM@Capture?5data?5?$CFdhz?5chn?3?5?$CFd?5Sample@ 10090808     audiodeviceman.obj
 0003:00003844       ??_7CAudioDeviceMan@@6B@   10090844     audiodeviceman.obj
 0003:00003848       ??_C@_1DA@GDJPBAML@?$AAE?$AAr?$AAr?$AAo?$AAr?$AA?5?$AAa?$AAu?$AAd?$AAi?$AAo?$AA?5?$AAR?$AAe?$AAc?$AAo?$AAr?$AAd?$AA?5?$AAN?$AAa?$AAm?$AAe?$AA?$AA@ 10090848     audiodeviceman.obj
 0003:00003878       ??_C@_0BM@HBDCKHO@select?5audio?5cap?5device?5?$CFs?6?$AA@ 10090878     audiodeviceman.obj
 0003:00003894       ??_C@_1CM@EFEKAGBI@?$AAE?$AAr?$AAr?$AAo?$AAr?$AA?5?$AAa?$AAu?$AAd?$AAi?$AAo?$AA?5?$AAP?$AAl?$AAa?$AAy?$AA?5?$AAN?$AAa?$AAm?$AAe?$AA?$AA@ 10090894     audiodeviceman.obj
 0003:000038c0       ??_C@_0CP@BJBDHIOP@if?5use?5system?5AEC?0AEC?5flag?5same?5@ 100908c0     audiodeviceman.obj
 0003:000038f0       ??_C@_0DA@OCCILOLE@mediasdk?5audiodeviceman?5setcaptu@ 100908f0     audiodeviceman.obj
 0003:00003920       ??_C@_0BD@OLBABOEK@vector?$DMT?$DO?5too?5long?$AA@ 10090920     audiodeviceman.obj
 0003:00003938       ??_C@_0FE@BEBBJCN@k?3?2cbb?2media?2mediacontrol_sky?240@ 10090938     audiointerfaceimp.obj
 0003:0000398c       ??_C@_0BA@GNIFMGL@not?5imp?5yet?5?$CFs?6?$AA@ 1009098c     audiointerfaceimp.obj
 0003:0000399c       ??_C@_0BL@PLFJIOME@CKdvEncoder?3?3SetVoiceCheck?$AA@ 1009099c     audiointerfaceimp.obj
 0003:000039b8       ??_C@_0CB@ENOAHONF@CKdvEncoder?3?3SetAudioCapCallBack@ 100909b8     audiointerfaceimp.obj
 0003:000039dc       ??_C@_0CA@HLDPBBMO@Com?5interface?5failed?5?3?5Play?5API?$AA@ 100909dc     audioplaywasapi.obj
 0003:00003a00       ??_C@_0FC@MIJFIOOM@k?3?2cbb?2media?2mediacontrol_sky?240@ 10090a00     audioplaywasapi.obj
 0003:00003a54       ??_C@_0BA@DFPOFECK@audio?5playing?5?6?$AA@ 10090a54     audioplaywasapi.obj
 0003:00003a64       ??_C@_0CJ@EOOOKMKG@?5error?5audio?5Play?5device?5wasspi?5@ 10090a64     audioplaywasapi.obj
 0003:00003a90       ??_C@_0BP@KPLLKEOG@m_cPlayStopEvent?5wait?5timeout?6?$AA@ 10090a90     audioplaywasapi.obj
 0003:00003ab0       ??_C@_0BL@HDLKECJC@m_cPlayStopEvent?5wait?5err?6?$AA@ 10090ab0     audioplaywasapi.obj
 0003:00003acc       ??_C@_0BK@FICOEPPD@play?5client?5stop?5success?6?$AA@ 10090acc     audioplaywasapi.obj
 0003:00003aec       ??_7CAudioPlayWasapi@@6BCTaskCreate@@@ 10090aec     audioplaywasapi.obj
 0003:00003af8       ??_7CAudioPlayWasapi@@6BCAudioPlayCom@@@ 10090af8     audioplaywasapi.obj
 0003:00003b18       ??_7CAudioPlayCom@@6B@     10090b18     audioplaywasapi.obj
 0003:00003b34       ??_C@_0BA@NNIMGKK@audioplaywasapi?$AA@ 10090b34     audioplaywasapi.obj
 0003:00003b44       __GUID_f294acfc_3146_4483_a7bf_addca7c260e2 10090b44     audioplaywasapi.obj
 0003:00003b54       ??_C@_0BK@EJLIKNAD@we?5got?5waveformat?5?5Play?3?6?$AA@ 10090b54     audioplaywasapi.obj
 0003:00003b70       ??_C@_0BK@PAGCALOD@we?5need?5waveformat?5Play?3?6?$AA@ 10090b70     audioplaywasapi.obj
 0003:00003b90       ??_C@_0EP@CAMMMPI@k?3?2cbb?2media?2mediacontrol_sky?240@ 10090b90     audioplaywav.obj
 0003:00003be0       ??_C@_02KPKOKMHB@?$CFS?$AA@ 10090be0     audioplaywav.obj
 0003:00003be4       ??_C@_0CD@IDLFCNHH@audio?5playing?5?0need?5to?5stop?5firs@ 10090be4     audioplaywav.obj
 0003:00003c08       ??_C@_0DM@ECKJEMJI@waveOutMessage?$CIDRV_QUERYFUNCTION@ 10090c08     audioplaywav.obj
 0003:00003c48       ??_C@_0EA@MMBKEGDG@waveOutMessage?$CIDRV_QUERYFUNCTION@ 10090c48     audioplaywav.obj
 0003:00003c88       ??_C@_0CF@KNPJILBF@waveOutGetDevCapsW?$CI?$CJ?5failed?5?$CIerr@ 10090c88     audioplaywav.obj
 0003:00003cb0       ??_C@_0BN@JPGHCJKE@_hWaveOut?5is?5now?5set?5to?5NULL?$AA@ 10090cb0     audioplaywav.obj
 0003:00003cd0       ??_C@_0CJ@OIKOPAD@waveOutUnprepareHeader?$CI?$CJ?5failed?5@ 10090cd0     audioplaywav.obj
 0003:00003cfc       ??_C@_0BP@CELJOPON@waveOutReset?$CI?$CJ?5failed?5?$CIerr?$DN?$CFd?$CJ?$AA@ 10090cfc     audioplaywav.obj
 0003:00003d1c       ??_C@_0BL@FOIHMMAJ@failed?5to?5activate?5playout?$AA@ 10090d1c     audioplaywav.obj
 0003:00003d38       ??_C@_0DL@JNNDFEME@waveOutPrepareHeader?$CI?$CFd?$CJ?5failed?5@ 10090d38     audioplaywav.obj
 0003:00003d74       ??_C@_0CJ@DMCFEHDH@waveOutPrepareHeader?$CI?$CFd?$CJ?5failed?5@ 10090d74     audioplaywav.obj
 0003:00003da0       ??_C@_0BO@FLPOFHIB@waveOutOpen?$CI?$CJ?5failed?5?$CIerr?$DN?$CFd?$CJ?$AA@ 10090da0     audioplaywav.obj
 0003:00003dc0       ??_C@_0DE@EGLCDOBF@opening?5output?5device?5correspond@ 10090dc0     audioplaywav.obj
 0003:00003df4       ??_C@_0BP@DFFACEAN@waveOutClose?$CI?$CJ?5failed?5?$CIerr?$DN?$CFd?$CJ?$AA@ 10090df4     audioplaywav.obj
 0003:00003e14       ??_C@_0N@MAJGMGDF@audioplaywav?$AA@ 10090e14     audioplaywav.obj
 0003:00003e24       ??_C@_0BB@NMAMFGFA@RecProc?$CI?$CJ?5failed?$AA@ 10090e24     audioplaywav.obj
 0003:00003e38       ??_C@_0BG@KODCNANL@play?5thread?5timeout?$CB?6?$AA@ 10090e38     audioplaywav.obj
 0003:00003e54       ??_7CAudioPlayWav@@6BCTaskCreate@@@ 10090e54     audioplaywav.obj
 0003:00003e60       ??_7CAudioPlayWav@@6BCAudioPlayCom@@@ 10090e60     audioplaywav.obj
 0003:00003e7c       ??_C@_0CB@HJPICGDP@waveOutWrite?$CI?$CFd?$CJ?5failed?5?$CIerr?$DN?$CFd?$CJ@ 10090e7c     audioplaywav.obj
 0003:00003ea0       ??_C@_0CG@GOLJFHAF@audio?5play?5header?5pos?5?$DO?5GetPosit@ 10090ea0     audioplaywav.obj
 0003:00003ec8       ??_C@_0BO@EIOCIPLO@further?5actions?5are?5required?$CB?$AA@ 10090ec8     audioplaywav.obj
 0003:00003ee8       ??_C@_0DI@EIBJNAIM@Modification?5?$CD2?3?5_useHeader?5?$DN?5?$CFd@ 10090ee8     audioplaywav.obj
 0003:00003f20       ??_C@_0DI@HACCFLPP@Modification?5?$CD1?3?5_useHeader?5?$DN?5?$CFd@ 10090f20     audioplaywav.obj
 0003:00003f58       ??_C@_0EB@HHOLEKPG@?5?5msecleft?$CI?$CJ?5?$CIwrap?5around?5occure@ 10090f58     audioplaywav.obj
 0003:00003fa0       ??_C@_0EB@MNANEIBI@?5?5msecleft?$CI?$CJ?5?$CIwrap?5around?5occure@ 10090fa0     audioplaywav.obj
 0003:00003fe4       ??_C@_0DP@IPOOFKMG@msecleft?$CI?$CJ?5?$DN?$DO?5wrap?5around?5occure@ 10090fe4     audioplaywav.obj
 0003:00004024       ??_C@_0CF@JKNBDFJJ@waveOutGetPosition?$CI?$CJ?5failed?5?$CIerr@ 10091024     audioplaywav.obj
 0003:0000404c       ??_C@_0CL@EFEMPJCI@Minimum?5playout?5threshold?5is?5lim@ 1009104c     audioplaywav.obj
 0003:00004078       ??_C@_0CD@IFEKONMH@Playout?5threshold?5is?5limited?5to?5@ 10091078     audioplaywav.obj
 0003:0000409c       ??_C@_0CD@NGJDMONH@Playout?5threshold?5is?5limited?5to?5@ 1009109c     audioplaywav.obj
 0003:000040c0       ??_C@_0DA@MENNOJMB@Playout?5threshold?5is?5decreased?3?5@ 100910c0     audioplaywav.obj
 0003:000040f0       ??_C@_0DA@KOOMIPAL@Playout?5threshold?5is?5increased?3?5@ 100910f0     audioplaywav.obj
 0003:00004120       ??_C@_0EJ@KFIJNHMG@New?5playout?5states?5?$CIer?$DN0?0?5erZero@ 10091120     audioplaywav.obj
 0003:00004170       ??_C@_0EJ@CAHBPFAJ@New?5playout?5states?5?$CIer?$DN0?0?5erZero@ 10091170     audioplaywav.obj
 0003:000041c0       ??_C@_0EI@EABPLKMN@New?5playout?5states?5?$CIer?$DN0?0erZero?$DN@ 100911c0     audioplaywav.obj
 0003:00004208       ??_C@_0EP@EHLJPBGL@k?3?2cbb?2media?2mediacontrol_sky?240@ 10091208     audioprocess.obj
 0003:00004258       ??_C@_0BE@MHJKJHGM@func?5?$CFs?5ret?5?$CFd?5?3?$CFs?6?$AA@ 10091258     audioprocess.obj
 0003:0000426c       ??_C@_0L@EBJPCFOO@ERR_OTHERS?$AA@ 1009126c     audioprocess.obj
 0003:00004278       ??_C@_0BI@MANDKJBM@ERR_AUDPROC_INFRAMESIZE?$AA@ 10091278     audioprocess.obj
 0003:00004290       ??_C@_0CB@JBIDJEBC@ERR_AUDPROC_INVALID_VOLUME_INDEX@ 10091290     audioprocess.obj
 0003:000042b4       ??_C@_0BI@HFOBNLMM@ERR_SPHEXICT_CLOSE_FAIL?$AA@ 100912b4     audioprocess.obj
 0003:000042cc       ??_C@_0CB@LMLGPCCG@ERR_AUDPROC_SPH_EXCIT_MODE_CHECK@ 100912cc     audioprocess.obj
 0003:000042f0       ??_C@_0CI@DPEGDAMN@ERR_AUDPROC_SPH_EXCIT_TAUDSPHEXC@ 100912f0     audioprocess.obj
 0003:00004318       ??_C@_0BH@BCBNKEBO@ERR_SPHEXICT_OPEN_FAIL?$AA@ 10091318     audioprocess.obj
 0003:00004330       ??_C@_0BP@KLHNPLCK@ERR_AUDPROC_AVG_POW_MODE_CHECK?$AA@ 10091330     audioprocess.obj
 0003:00004350       ??_C@_0CH@DMKLOEAG@ERR_AUDPROC_AVG_POW_TAUDPOWERSTA@ 10091350     audioprocess.obj
 0003:00004378       ??_C@_0BK@PAADODN@ERR_AUDPSPLIT_INFRAMESIZE?$AA@ 10091378     audioprocess.obj
 0003:00004394       ??_C@_0BN@KOKIELAL@ERR_AUDPSPLIT_INPUTBUF_SMALL?$AA@ 10091394     audioprocess.obj
 0003:000043b4       ??_C@_0BK@LNFIFFCO@ERR_AUDPROC_CLOSE_RESMPLE?$AA@ 100913b4     audioprocess.obj
